ARM GAS  /tmp/ccaSmKi1.s 			page 1


   1              		.cpu cortex-m4
   2              		.eabi_attribute 27, 1
   3              		.eabi_attribute 28, 1
   4              		.eabi_attribute 20, 1
   5              		.eabi_attribute 21, 1
   6              		.eabi_attribute 23, 3
   7              		.eabi_attribute 24, 1
   8              		.eabi_attribute 25, 1
   9              		.eabi_attribute 26, 1
  10              		.eabi_attribute 30, 1
  11              		.eabi_attribute 34, 1
  12              		.eabi_attribute 18, 4
  13              		.file	"operation.cpp"
  14              		.text
  15              	.Ltext0:
  16              		.cfi_sections	.debug_frame
  17              		.section	.text._ZNK9actuators18motor_driver_param9serializeEPh,"axG",%progbits,_ZNK9actuators18mot
  18              		.align	1
  19              		.weak	_ZNK9actuators18motor_driver_param9serializeEPh
  20              		.arch armv7e-m
  21              		.syntax unified
  22              		.thumb
  23              		.thumb_func
  24              		.fpu fpv4-sp-d16
  26              	_ZNK9actuators18motor_driver_param9serializeEPh:
  27              	.LVL0:
  28              	.LFB153:
  29              		.file 1 "Core/Inc/ros/actuators/motor_driver_param.h"
   1:Core/Inc/ros/actuators/motor_driver_param.h **** #ifndef _ROS_actuators_motor_driver_param_h
   2:Core/Inc/ros/actuators/motor_driver_param.h **** #define _ROS_actuators_motor_driver_param_h
   3:Core/Inc/ros/actuators/motor_driver_param.h **** 
   4:Core/Inc/ros/actuators/motor_driver_param.h **** #include <stdint.h>
   5:Core/Inc/ros/actuators/motor_driver_param.h **** #include <string.h>
   6:Core/Inc/ros/actuators/motor_driver_param.h **** #include <stdlib.h>
   7:Core/Inc/ros/actuators/motor_driver_param.h **** #include "ros/msg.h"
   8:Core/Inc/ros/actuators/motor_driver_param.h **** 
   9:Core/Inc/ros/actuators/motor_driver_param.h **** namespace actuators
  10:Core/Inc/ros/actuators/motor_driver_param.h **** {
  11:Core/Inc/ros/actuators/motor_driver_param.h **** 
  12:Core/Inc/ros/actuators/motor_driver_param.h ****   class motor_driver_param : public ros::Msg
  13:Core/Inc/ros/actuators/motor_driver_param.h ****   {
  14:Core/Inc/ros/actuators/motor_driver_param.h ****     public:
  15:Core/Inc/ros/actuators/motor_driver_param.h ****       typedef uint8_t _id_type;
  16:Core/Inc/ros/actuators/motor_driver_param.h ****       _id_type id;
  17:Core/Inc/ros/actuators/motor_driver_param.h ****       typedef uint8_t _dir1_type;
  18:Core/Inc/ros/actuators/motor_driver_param.h ****       _dir1_type dir1;
  19:Core/Inc/ros/actuators/motor_driver_param.h ****       typedef uint8_t _dir2_type;
  20:Core/Inc/ros/actuators/motor_driver_param.h ****       _dir2_type dir2;
  21:Core/Inc/ros/actuators/motor_driver_param.h ****       typedef uint16_t _pwm_type;
  22:Core/Inc/ros/actuators/motor_driver_param.h ****       _pwm_type pwm;
  23:Core/Inc/ros/actuators/motor_driver_param.h **** 
  24:Core/Inc/ros/actuators/motor_driver_param.h ****     motor_driver_param():
  25:Core/Inc/ros/actuators/motor_driver_param.h ****       id(0),
  26:Core/Inc/ros/actuators/motor_driver_param.h ****       dir1(0),
  27:Core/Inc/ros/actuators/motor_driver_param.h ****       dir2(0),
  28:Core/Inc/ros/actuators/motor_driver_param.h ****       pwm(0)
  29:Core/Inc/ros/actuators/motor_driver_param.h ****     {
ARM GAS  /tmp/ccaSmKi1.s 			page 2


  30:Core/Inc/ros/actuators/motor_driver_param.h ****     }
  31:Core/Inc/ros/actuators/motor_driver_param.h **** 
  32:Core/Inc/ros/actuators/motor_driver_param.h ****     virtual int serialize(unsigned char *outbuffer) const override
  30              		.loc 1 32 17 view -0
  31              		.cfi_startproc
  32              		@ args = 0, pretend = 0, frame = 0
  33              		@ frame_needed = 0, uses_anonymous_args = 0
  34              		@ link register save eliminated.
  33:Core/Inc/ros/actuators/motor_driver_param.h ****     {
  34:Core/Inc/ros/actuators/motor_driver_param.h ****       int offset = 0;
  35              		.loc 1 34 7 view .LVU1
  35:Core/Inc/ros/actuators/motor_driver_param.h ****       *(outbuffer + offset + 0) = (this->id >> (8 * 0)) & 0xFF;
  36              		.loc 1 35 7 view .LVU2
  37              		.loc 1 35 42 is_stmt 0 view .LVU3
  38 0000 0379     		ldrb	r3, [r0, #4]	@ zero_extendqisi2
  39              		.loc 1 35 33 view .LVU4
  40 0002 0B70     		strb	r3, [r1]
  36:Core/Inc/ros/actuators/motor_driver_param.h ****       offset += sizeof(this->id);
  41              		.loc 1 36 7 is_stmt 1 view .LVU5
  42              	.LVL1:
  37:Core/Inc/ros/actuators/motor_driver_param.h ****       *(outbuffer + offset + 0) = (this->dir1 >> (8 * 0)) & 0xFF;
  43              		.loc 1 37 7 view .LVU6
  44              		.loc 1 37 42 is_stmt 0 view .LVU7
  45 0004 4379     		ldrb	r3, [r0, #5]	@ zero_extendqisi2
  46              		.loc 1 37 33 view .LVU8
  47 0006 4B70     		strb	r3, [r1, #1]
  38:Core/Inc/ros/actuators/motor_driver_param.h ****       offset += sizeof(this->dir1);
  48              		.loc 1 38 7 is_stmt 1 view .LVU9
  49              	.LVL2:
  39:Core/Inc/ros/actuators/motor_driver_param.h ****       *(outbuffer + offset + 0) = (this->dir2 >> (8 * 0)) & 0xFF;
  50              		.loc 1 39 7 view .LVU10
  51              		.loc 1 39 42 is_stmt 0 view .LVU11
  52 0008 8379     		ldrb	r3, [r0, #6]	@ zero_extendqisi2
  53              		.loc 1 39 33 view .LVU12
  54 000a 8B70     		strb	r3, [r1, #2]
  40:Core/Inc/ros/actuators/motor_driver_param.h ****       offset += sizeof(this->dir2);
  55              		.loc 1 40 7 is_stmt 1 view .LVU13
  56              	.LVL3:
  41:Core/Inc/ros/actuators/motor_driver_param.h ****       *(outbuffer + offset + 0) = (this->pwm >> (8 * 0)) & 0xFF;
  57              		.loc 1 41 7 view .LVU14
  58              		.loc 1 41 42 is_stmt 0 view .LVU15
  59 000c 0389     		ldrh	r3, [r0, #8]
  60              		.loc 1 41 33 view .LVU16
  61 000e CB70     		strb	r3, [r1, #3]
  42:Core/Inc/ros/actuators/motor_driver_param.h ****       *(outbuffer + offset + 1) = (this->pwm >> (8 * 1)) & 0xFF;
  62              		.loc 1 42 7 is_stmt 1 view .LVU17
  63              		.loc 1 42 42 is_stmt 0 view .LVU18
  64 0010 0389     		ldrh	r3, [r0, #8]
  65              		.loc 1 42 46 view .LVU19
  66 0012 1B0A     		lsrs	r3, r3, #8
  67              		.loc 1 42 33 view .LVU20
  68 0014 0B71     		strb	r3, [r1, #4]
  43:Core/Inc/ros/actuators/motor_driver_param.h ****       offset += sizeof(this->pwm);
  69              		.loc 1 43 7 is_stmt 1 view .LVU21
  70              	.LVL4:
  44:Core/Inc/ros/actuators/motor_driver_param.h ****       return offset;
  71              		.loc 1 44 7 view .LVU22
ARM GAS  /tmp/ccaSmKi1.s 			page 3


  45:Core/Inc/ros/actuators/motor_driver_param.h ****     }
  72              		.loc 1 45 5 is_stmt 0 view .LVU23
  73 0016 0520     		movs	r0, #5
  74              	.LVL5:
  75              		.loc 1 45 5 view .LVU24
  76 0018 7047     		bx	lr
  77              		.cfi_endproc
  78              	.LFE153:
  80              		.section	.text._ZN9actuators18motor_driver_param11deserializeEPh,"axG",%progbits,_ZN9actuators18mo
  81              		.align	1
  82              		.weak	_ZN9actuators18motor_driver_param11deserializeEPh
  83              		.syntax unified
  84              		.thumb
  85              		.thumb_func
  86              		.fpu fpv4-sp-d16
  88              	_ZN9actuators18motor_driver_param11deserializeEPh:
  89              	.LVL6:
  90              	.LFB154:
  46:Core/Inc/ros/actuators/motor_driver_param.h **** 
  47:Core/Inc/ros/actuators/motor_driver_param.h ****     virtual int deserialize(unsigned char *inbuffer) override
  91              		.loc 1 47 17 is_stmt 1 view -0
  92              		.cfi_startproc
  93              		@ args = 0, pretend = 0, frame = 0
  94              		@ frame_needed = 0, uses_anonymous_args = 0
  95              		@ link register save eliminated.
  48:Core/Inc/ros/actuators/motor_driver_param.h ****     {
  49:Core/Inc/ros/actuators/motor_driver_param.h ****       int offset = 0;
  96              		.loc 1 49 7 view .LVU26
  50:Core/Inc/ros/actuators/motor_driver_param.h ****       this->id =  ((uint8_t) (*(inbuffer + offset)));
  97              		.loc 1 50 7 view .LVU27
  98              		.loc 1 50 31 is_stmt 0 view .LVU28
  99 0000 0B78     		ldrb	r3, [r1]	@ zero_extendqisi2
 100              		.loc 1 50 16 view .LVU29
 101 0002 0371     		strb	r3, [r0, #4]
  51:Core/Inc/ros/actuators/motor_driver_param.h ****       offset += sizeof(this->id);
 102              		.loc 1 51 7 is_stmt 1 view .LVU30
 103              	.LVL7:
  52:Core/Inc/ros/actuators/motor_driver_param.h ****       this->dir1 =  ((uint8_t) (*(inbuffer + offset)));
 104              		.loc 1 52 7 view .LVU31
 105              		.loc 1 52 33 is_stmt 0 view .LVU32
 106 0004 4B78     		ldrb	r3, [r1, #1]	@ zero_extendqisi2
 107              		.loc 1 52 18 view .LVU33
 108 0006 4371     		strb	r3, [r0, #5]
  53:Core/Inc/ros/actuators/motor_driver_param.h ****       offset += sizeof(this->dir1);
 109              		.loc 1 53 7 is_stmt 1 view .LVU34
 110              	.LVL8:
  54:Core/Inc/ros/actuators/motor_driver_param.h ****       this->dir2 =  ((uint8_t) (*(inbuffer + offset)));
 111              		.loc 1 54 7 view .LVU35
 112              		.loc 1 54 33 is_stmt 0 view .LVU36
 113 0008 8B78     		ldrb	r3, [r1, #2]	@ zero_extendqisi2
 114              		.loc 1 54 18 view .LVU37
 115 000a 8371     		strb	r3, [r0, #6]
  55:Core/Inc/ros/actuators/motor_driver_param.h ****       offset += sizeof(this->dir2);
 116              		.loc 1 55 7 is_stmt 1 view .LVU38
 117              	.LVL9:
  56:Core/Inc/ros/actuators/motor_driver_param.h ****       this->pwm =  ((uint16_t) (*(inbuffer + offset)));
 118              		.loc 1 56 7 view .LVU39
ARM GAS  /tmp/ccaSmKi1.s 			page 4


 119              		.loc 1 56 21 is_stmt 0 view .LVU40
 120 000c CB78     		ldrb	r3, [r1, #3]	@ zero_extendqisi2
 121              		.loc 1 56 17 view .LVU41
 122 000e 0381     		strh	r3, [r0, #8]	@ movhi
  57:Core/Inc/ros/actuators/motor_driver_param.h ****       this->pwm |= ((uint16_t) (*(inbuffer + offset + 1))) << (8 * 1);
 123              		.loc 1 57 7 is_stmt 1 view .LVU42
 124              		.loc 1 57 33 is_stmt 0 view .LVU43
 125 0010 0A79     		ldrb	r2, [r1, #4]	@ zero_extendqisi2
 126              		.loc 1 57 17 view .LVU44
 127 0012 43EA0223 		orr	r3, r3, r2, lsl #8
 128 0016 0381     		strh	r3, [r0, #8]	@ movhi
  58:Core/Inc/ros/actuators/motor_driver_param.h ****       offset += sizeof(this->pwm);
 129              		.loc 1 58 7 is_stmt 1 view .LVU45
 130              	.LVL10:
  59:Core/Inc/ros/actuators/motor_driver_param.h ****      return offset;
 131              		.loc 1 59 6 view .LVU46
  60:Core/Inc/ros/actuators/motor_driver_param.h ****     }
 132              		.loc 1 60 5 is_stmt 0 view .LVU47
 133 0018 0520     		movs	r0, #5
 134              	.LVL11:
 135              		.loc 1 60 5 view .LVU48
 136 001a 7047     		bx	lr
 137              		.cfi_endproc
 138              	.LFE154:
 140              		.section	.rodata._ZN9actuators18motor_driver_param7getTypeEv.str1.4,"aMS",%progbits,1
 141              		.align	2
 142              	.LC0:
 143 0000 61637475 		.ascii	"actuators/motor_driver_param\000"
 143      61746F72 
 143      732F6D6F 
 143      746F725F 
 143      64726976 
 144              		.section	.text._ZN9actuators18motor_driver_param7getTypeEv,"axG",%progbits,_ZN9actuators18motor_dr
 145              		.align	1
 146              		.weak	_ZN9actuators18motor_driver_param7getTypeEv
 147              		.syntax unified
 148              		.thumb
 149              		.thumb_func
 150              		.fpu fpv4-sp-d16
 152              	_ZN9actuators18motor_driver_param7getTypeEv:
 153              	.LVL12:
 154              	.LFB155:
  61:Core/Inc/ros/actuators/motor_driver_param.h **** 
  62:Core/Inc/ros/actuators/motor_driver_param.h ****     virtual const char * getType() override { return "actuators/motor_driver_param"; };
 155              		.loc 1 62 26 is_stmt 1 view -0
 156              		.cfi_startproc
 157              		@ args = 0, pretend = 0, frame = 0
 158              		@ frame_needed = 0, uses_anonymous_args = 0
 159              		@ link register save eliminated.
 160              		.loc 1 62 47 view .LVU50
 161              		.loc 1 62 86 is_stmt 0 view .LVU51
 162 0000 0048     		ldr	r0, .L4
 163              	.LVL13:
 164              		.loc 1 62 86 view .LVU52
 165 0002 7047     		bx	lr
 166              	.L5:
 167              		.align	2
ARM GAS  /tmp/ccaSmKi1.s 			page 5


 168              	.L4:
 169 0004 00000000 		.word	.LC0
 170              		.cfi_endproc
 171              	.LFE155:
 173              		.section	.rodata._ZN9actuators18motor_driver_param6getMD5Ev.str1.4,"aMS",%progbits,1
 174              		.align	2
 175              	.LC1:
 176 0000 34646437 		.ascii	"4dd7daa3fbb798d83aefe25263d7d1e1\000"
 176      64616133 
 176      66626237 
 176      39386438 
 176      33616566 
 177              		.section	.text._ZN9actuators18motor_driver_param6getMD5Ev,"axG",%progbits,_ZN9actuators18motor_dri
 178              		.align	1
 179              		.weak	_ZN9actuators18motor_driver_param6getMD5Ev
 180              		.syntax unified
 181              		.thumb
 182              		.thumb_func
 183              		.fpu fpv4-sp-d16
 185              	_ZN9actuators18motor_driver_param6getMD5Ev:
 186              	.LVL14:
 187              	.LFB156:
  63:Core/Inc/ros/actuators/motor_driver_param.h ****     virtual const char * getMD5() override { return "4dd7daa3fbb798d83aefe25263d7d1e1"; };
 188              		.loc 1 63 26 is_stmt 1 view -0
 189              		.cfi_startproc
 190              		@ args = 0, pretend = 0, frame = 0
 191              		@ frame_needed = 0, uses_anonymous_args = 0
 192              		@ link register save eliminated.
 193              		.loc 1 63 46 view .LVU54
 194              		.loc 1 63 89 is_stmt 0 view .LVU55
 195 0000 0048     		ldr	r0, .L7
 196              	.LVL15:
 197              		.loc 1 63 89 view .LVU56
 198 0002 7047     		bx	lr
 199              	.L8:
 200              		.align	2
 201              	.L7:
 202 0004 00000000 		.word	.LC1
 203              		.cfi_endproc
 204              	.LFE156:
 206              		.section	.text._ZNK8std_msgs4Time9serializeEPh,"axG",%progbits,_ZNK8std_msgs4Time9serializeEPh,com
 207              		.align	1
 208              		.weak	_ZNK8std_msgs4Time9serializeEPh
 209              		.syntax unified
 210              		.thumb
 211              		.thumb_func
 212              		.fpu fpv4-sp-d16
 214              	_ZNK8std_msgs4Time9serializeEPh:
 215              	.LVL16:
 216              	.LFB424:
 217              		.file 2 "Core/Inc/ros/std_msgs/Time.h"
   1:Core/Inc/ros/std_msgs/Time.h **** #ifndef _ROS_std_msgs_Time_h
   2:Core/Inc/ros/std_msgs/Time.h **** #define _ROS_std_msgs_Time_h
   3:Core/Inc/ros/std_msgs/Time.h **** 
   4:Core/Inc/ros/std_msgs/Time.h **** #include <stdint.h>
   5:Core/Inc/ros/std_msgs/Time.h **** #include <string.h>
   6:Core/Inc/ros/std_msgs/Time.h **** #include <stdlib.h>
ARM GAS  /tmp/ccaSmKi1.s 			page 6


   7:Core/Inc/ros/std_msgs/Time.h **** #include "ros/msg.h"
   8:Core/Inc/ros/std_msgs/Time.h **** #include "ros/time.h"
   9:Core/Inc/ros/std_msgs/Time.h **** 
  10:Core/Inc/ros/std_msgs/Time.h **** namespace std_msgs
  11:Core/Inc/ros/std_msgs/Time.h **** {
  12:Core/Inc/ros/std_msgs/Time.h **** 
  13:Core/Inc/ros/std_msgs/Time.h ****   class Time : public ros::Msg
  14:Core/Inc/ros/std_msgs/Time.h ****   {
  15:Core/Inc/ros/std_msgs/Time.h ****     public:
  16:Core/Inc/ros/std_msgs/Time.h ****       typedef ros::Time _data_type;
  17:Core/Inc/ros/std_msgs/Time.h ****       _data_type data;
  18:Core/Inc/ros/std_msgs/Time.h **** 
  19:Core/Inc/ros/std_msgs/Time.h ****     Time():
  20:Core/Inc/ros/std_msgs/Time.h ****       data()
  21:Core/Inc/ros/std_msgs/Time.h ****     {
  22:Core/Inc/ros/std_msgs/Time.h ****     }
  23:Core/Inc/ros/std_msgs/Time.h **** 
  24:Core/Inc/ros/std_msgs/Time.h ****     virtual int serialize(unsigned char *outbuffer) const override
 218              		.loc 2 24 17 is_stmt 1 view -0
 219              		.cfi_startproc
 220              		@ args = 0, pretend = 0, frame = 0
 221              		@ frame_needed = 0, uses_anonymous_args = 0
 222              		@ link register save eliminated.
  25:Core/Inc/ros/std_msgs/Time.h ****     {
  26:Core/Inc/ros/std_msgs/Time.h ****       int offset = 0;
 223              		.loc 2 26 7 view .LVU58
  27:Core/Inc/ros/std_msgs/Time.h ****       *(outbuffer + offset + 0) = (this->data.sec >> (8 * 0)) & 0xFF;
 224              		.loc 2 27 7 view .LVU59
 225              		.loc 2 27 47 is_stmt 0 view .LVU60
 226 0000 4368     		ldr	r3, [r0, #4]
 227              		.loc 2 27 33 view .LVU61
 228 0002 0B70     		strb	r3, [r1]
  28:Core/Inc/ros/std_msgs/Time.h ****       *(outbuffer + offset + 1) = (this->data.sec >> (8 * 1)) & 0xFF;
 229              		.loc 2 28 7 is_stmt 1 view .LVU62
 230              		.loc 2 28 47 is_stmt 0 view .LVU63
 231 0004 4368     		ldr	r3, [r0, #4]
 232              		.loc 2 28 51 view .LVU64
 233 0006 1B0A     		lsrs	r3, r3, #8
 234              		.loc 2 28 33 view .LVU65
 235 0008 4B70     		strb	r3, [r1, #1]
  29:Core/Inc/ros/std_msgs/Time.h ****       *(outbuffer + offset + 2) = (this->data.sec >> (8 * 2)) & 0xFF;
 236              		.loc 2 29 7 is_stmt 1 view .LVU66
 237              		.loc 2 29 51 is_stmt 0 view .LVU67
 238 000a C388     		ldrh	r3, [r0, #6]
 239              		.loc 2 29 33 view .LVU68
 240 000c 8B70     		strb	r3, [r1, #2]
  30:Core/Inc/ros/std_msgs/Time.h ****       *(outbuffer + offset + 3) = (this->data.sec >> (8 * 3)) & 0xFF;
 241              		.loc 2 30 7 is_stmt 1 view .LVU69
 242              		.loc 2 30 51 is_stmt 0 view .LVU70
 243 000e C379     		ldrb	r3, [r0, #7]	@ zero_extendqisi2
 244              		.loc 2 30 33 view .LVU71
 245 0010 CB70     		strb	r3, [r1, #3]
  31:Core/Inc/ros/std_msgs/Time.h ****       offset += sizeof(this->data.sec);
 246              		.loc 2 31 7 is_stmt 1 view .LVU72
 247              	.LVL17:
  32:Core/Inc/ros/std_msgs/Time.h ****       *(outbuffer + offset + 0) = (this->data.nsec >> (8 * 0)) & 0xFF;
 248              		.loc 2 32 7 view .LVU73
ARM GAS  /tmp/ccaSmKi1.s 			page 7


 249              		.loc 2 32 47 is_stmt 0 view .LVU74
 250 0012 8368     		ldr	r3, [r0, #8]
 251              		.loc 2 32 33 view .LVU75
 252 0014 0B71     		strb	r3, [r1, #4]
  33:Core/Inc/ros/std_msgs/Time.h ****       *(outbuffer + offset + 1) = (this->data.nsec >> (8 * 1)) & 0xFF;
 253              		.loc 2 33 7 is_stmt 1 view .LVU76
 254              		.loc 2 33 47 is_stmt 0 view .LVU77
 255 0016 8368     		ldr	r3, [r0, #8]
 256              		.loc 2 33 52 view .LVU78
 257 0018 1B0A     		lsrs	r3, r3, #8
 258              		.loc 2 33 33 view .LVU79
 259 001a 4B71     		strb	r3, [r1, #5]
  34:Core/Inc/ros/std_msgs/Time.h ****       *(outbuffer + offset + 2) = (this->data.nsec >> (8 * 2)) & 0xFF;
 260              		.loc 2 34 7 is_stmt 1 view .LVU80
 261              		.loc 2 34 52 is_stmt 0 view .LVU81
 262 001c 4389     		ldrh	r3, [r0, #10]
 263              		.loc 2 34 33 view .LVU82
 264 001e 8B71     		strb	r3, [r1, #6]
  35:Core/Inc/ros/std_msgs/Time.h ****       *(outbuffer + offset + 3) = (this->data.nsec >> (8 * 3)) & 0xFF;
 265              		.loc 2 35 7 is_stmt 1 view .LVU83
 266              		.loc 2 35 52 is_stmt 0 view .LVU84
 267 0020 C37A     		ldrb	r3, [r0, #11]	@ zero_extendqisi2
 268              		.loc 2 35 33 view .LVU85
 269 0022 CB71     		strb	r3, [r1, #7]
  36:Core/Inc/ros/std_msgs/Time.h ****       offset += sizeof(this->data.nsec);
 270              		.loc 2 36 7 is_stmt 1 view .LVU86
 271              	.LVL18:
  37:Core/Inc/ros/std_msgs/Time.h ****       return offset;
 272              		.loc 2 37 7 view .LVU87
  38:Core/Inc/ros/std_msgs/Time.h ****     }
 273              		.loc 2 38 5 is_stmt 0 view .LVU88
 274 0024 0820     		movs	r0, #8
 275              	.LVL19:
 276              		.loc 2 38 5 view .LVU89
 277 0026 7047     		bx	lr
 278              		.cfi_endproc
 279              	.LFE424:
 281              		.section	.text._ZN8std_msgs4Time11deserializeEPh,"axG",%progbits,_ZN8std_msgs4Time11deserializeEPh
 282              		.align	1
 283              		.weak	_ZN8std_msgs4Time11deserializeEPh
 284              		.syntax unified
 285              		.thumb
 286              		.thumb_func
 287              		.fpu fpv4-sp-d16
 289              	_ZN8std_msgs4Time11deserializeEPh:
 290              	.LVL20:
 291              	.LFB425:
  39:Core/Inc/ros/std_msgs/Time.h **** 
  40:Core/Inc/ros/std_msgs/Time.h ****     virtual int deserialize(unsigned char *inbuffer) override
 292              		.loc 2 40 17 is_stmt 1 view -0
 293              		.cfi_startproc
 294              		@ args = 0, pretend = 0, frame = 0
 295              		@ frame_needed = 0, uses_anonymous_args = 0
 296              		@ link register save eliminated.
  41:Core/Inc/ros/std_msgs/Time.h ****     {
  42:Core/Inc/ros/std_msgs/Time.h ****       int offset = 0;
 297              		.loc 2 42 7 view .LVU91
ARM GAS  /tmp/ccaSmKi1.s 			page 8


  43:Core/Inc/ros/std_msgs/Time.h ****       this->data.sec =  ((uint32_t) (*(inbuffer + offset)));
 298              		.loc 2 43 7 view .LVU92
 299              		.loc 2 43 38 is_stmt 0 view .LVU93
 300 0000 0B78     		ldrb	r3, [r1]	@ zero_extendqisi2
 301              		.loc 2 43 22 view .LVU94
 302 0002 4360     		str	r3, [r0, #4]
  44:Core/Inc/ros/std_msgs/Time.h ****       this->data.sec |= ((uint32_t) (*(inbuffer + offset + 1))) << (8 * 1);
 303              		.loc 2 44 7 is_stmt 1 view .LVU95
 304              		.loc 2 44 38 is_stmt 0 view .LVU96
 305 0004 4A78     		ldrb	r2, [r1, #1]	@ zero_extendqisi2
 306              		.loc 2 44 22 view .LVU97
 307 0006 43EA0223 		orr	r3, r3, r2, lsl #8
 308 000a 4360     		str	r3, [r0, #4]
  45:Core/Inc/ros/std_msgs/Time.h ****       this->data.sec |= ((uint32_t) (*(inbuffer + offset + 2))) << (8 * 2);
 309              		.loc 2 45 7 is_stmt 1 view .LVU98
 310              		.loc 2 45 38 is_stmt 0 view .LVU99
 311 000c 8A78     		ldrb	r2, [r1, #2]	@ zero_extendqisi2
 312              		.loc 2 45 22 view .LVU100
 313 000e 43EA0243 		orr	r3, r3, r2, lsl #16
 314 0012 4360     		str	r3, [r0, #4]
  46:Core/Inc/ros/std_msgs/Time.h ****       this->data.sec |= ((uint32_t) (*(inbuffer + offset + 3))) << (8 * 3);
 315              		.loc 2 46 7 is_stmt 1 view .LVU101
 316              		.loc 2 46 38 is_stmt 0 view .LVU102
 317 0014 CA78     		ldrb	r2, [r1, #3]	@ zero_extendqisi2
 318              		.loc 2 46 22 view .LVU103
 319 0016 43EA0263 		orr	r3, r3, r2, lsl #24
 320 001a 4360     		str	r3, [r0, #4]
  47:Core/Inc/ros/std_msgs/Time.h ****       offset += sizeof(this->data.sec);
 321              		.loc 2 47 7 is_stmt 1 view .LVU104
 322              	.LVL21:
  48:Core/Inc/ros/std_msgs/Time.h ****       this->data.nsec =  ((uint32_t) (*(inbuffer + offset)));
 323              		.loc 2 48 7 view .LVU105
 324              		.loc 2 48 39 is_stmt 0 view .LVU106
 325 001c 0B79     		ldrb	r3, [r1, #4]	@ zero_extendqisi2
 326              		.loc 2 48 23 view .LVU107
 327 001e 8360     		str	r3, [r0, #8]
  49:Core/Inc/ros/std_msgs/Time.h ****       this->data.nsec |= ((uint32_t) (*(inbuffer + offset + 1))) << (8 * 1);
 328              		.loc 2 49 7 is_stmt 1 view .LVU108
 329              		.loc 2 49 39 is_stmt 0 view .LVU109
 330 0020 4A79     		ldrb	r2, [r1, #5]	@ zero_extendqisi2
 331              		.loc 2 49 23 view .LVU110
 332 0022 43EA0223 		orr	r3, r3, r2, lsl #8
 333 0026 8360     		str	r3, [r0, #8]
  50:Core/Inc/ros/std_msgs/Time.h ****       this->data.nsec |= ((uint32_t) (*(inbuffer + offset + 2))) << (8 * 2);
 334              		.loc 2 50 7 is_stmt 1 view .LVU111
 335              		.loc 2 50 39 is_stmt 0 view .LVU112
 336 0028 8A79     		ldrb	r2, [r1, #6]	@ zero_extendqisi2
 337              		.loc 2 50 23 view .LVU113
 338 002a 43EA0243 		orr	r3, r3, r2, lsl #16
 339 002e 8360     		str	r3, [r0, #8]
  51:Core/Inc/ros/std_msgs/Time.h ****       this->data.nsec |= ((uint32_t) (*(inbuffer + offset + 3))) << (8 * 3);
 340              		.loc 2 51 7 is_stmt 1 view .LVU114
 341              		.loc 2 51 39 is_stmt 0 view .LVU115
 342 0030 CA79     		ldrb	r2, [r1, #7]	@ zero_extendqisi2
 343              		.loc 2 51 23 view .LVU116
 344 0032 43EA0263 		orr	r3, r3, r2, lsl #24
 345 0036 8360     		str	r3, [r0, #8]
ARM GAS  /tmp/ccaSmKi1.s 			page 9


  52:Core/Inc/ros/std_msgs/Time.h ****       offset += sizeof(this->data.nsec);
 346              		.loc 2 52 7 is_stmt 1 view .LVU117
 347              	.LVL22:
  53:Core/Inc/ros/std_msgs/Time.h ****      return offset;
 348              		.loc 2 53 6 view .LVU118
  54:Core/Inc/ros/std_msgs/Time.h ****     }
 349              		.loc 2 54 5 is_stmt 0 view .LVU119
 350 0038 0820     		movs	r0, #8
 351              	.LVL23:
 352              		.loc 2 54 5 view .LVU120
 353 003a 7047     		bx	lr
 354              		.cfi_endproc
 355              	.LFE425:
 357              		.section	.rodata._ZN8std_msgs4Time7getTypeEv.str1.4,"aMS",%progbits,1
 358              		.align	2
 359              	.LC2:
 360 0000 7374645F 		.ascii	"std_msgs/Time\000"
 360      6D736773 
 360      2F54696D 
 360      6500
 361              		.section	.text._ZN8std_msgs4Time7getTypeEv,"axG",%progbits,_ZN8std_msgs4Time7getTypeEv,comdat
 362              		.align	1
 363              		.weak	_ZN8std_msgs4Time7getTypeEv
 364              		.syntax unified
 365              		.thumb
 366              		.thumb_func
 367              		.fpu fpv4-sp-d16
 369              	_ZN8std_msgs4Time7getTypeEv:
 370              	.LVL24:
 371              	.LFB426:
  55:Core/Inc/ros/std_msgs/Time.h **** 
  56:Core/Inc/ros/std_msgs/Time.h ****     virtual const char * getType() override { return "std_msgs/Time"; };
 372              		.loc 2 56 26 is_stmt 1 view -0
 373              		.cfi_startproc
 374              		@ args = 0, pretend = 0, frame = 0
 375              		@ frame_needed = 0, uses_anonymous_args = 0
 376              		@ link register save eliminated.
 377              		.loc 2 56 47 view .LVU122
 378              		.loc 2 56 71 is_stmt 0 view .LVU123
 379 0000 0048     		ldr	r0, .L12
 380              	.LVL25:
 381              		.loc 2 56 71 view .LVU124
 382 0002 7047     		bx	lr
 383              	.L13:
 384              		.align	2
 385              	.L12:
 386 0004 00000000 		.word	.LC2
 387              		.cfi_endproc
 388              	.LFE426:
 390              		.section	.rodata._ZN8std_msgs4Time6getMD5Ev.str1.4,"aMS",%progbits,1
 391              		.align	2
 392              	.LC3:
 393 0000 63643731 		.ascii	"cd7166c74c552c311fbcc2fe5a7bc289\000"
 393      36366337 
 393      34633535 
 393      32633331 
 393      31666263 
ARM GAS  /tmp/ccaSmKi1.s 			page 10


 394              		.section	.text._ZN8std_msgs4Time6getMD5Ev,"axG",%progbits,_ZN8std_msgs4Time6getMD5Ev,comdat
 395              		.align	1
 396              		.weak	_ZN8std_msgs4Time6getMD5Ev
 397              		.syntax unified
 398              		.thumb
 399              		.thumb_func
 400              		.fpu fpv4-sp-d16
 402              	_ZN8std_msgs4Time6getMD5Ev:
 403              	.LVL26:
 404              	.LFB427:
  57:Core/Inc/ros/std_msgs/Time.h ****     virtual const char * getMD5() override { return "cd7166c74c552c311fbcc2fe5a7bc289"; };
 405              		.loc 2 57 26 is_stmt 1 view -0
 406              		.cfi_startproc
 407              		@ args = 0, pretend = 0, frame = 0
 408              		@ frame_needed = 0, uses_anonymous_args = 0
 409              		@ link register save eliminated.
 410              		.loc 2 57 46 view .LVU126
 411              		.loc 2 57 89 is_stmt 0 view .LVU127
 412 0000 0048     		ldr	r0, .L15
 413              	.LVL27:
 414              		.loc 2 57 89 view .LVU128
 415 0002 7047     		bx	lr
 416              	.L16:
 417              		.align	2
 418              	.L15:
 419 0004 00000000 		.word	.LC3
 420              		.cfi_endproc
 421              	.LFE427:
 423              		.section	.rodata._ZN14rosserial_msgs9TopicInfo7getTypeEv.str1.4,"aMS",%progbits,1
 424              		.align	2
 425              	.LC4:
 426 0000 726F7373 		.ascii	"rosserial_msgs/TopicInfo\000"
 426      65726961 
 426      6C5F6D73 
 426      67732F54 
 426      6F706963 
 427              		.section	.text._ZN14rosserial_msgs9TopicInfo7getTypeEv,"axG",%progbits,_ZN14rosserial_msgs9TopicIn
 428              		.align	1
 429              		.weak	_ZN14rosserial_msgs9TopicInfo7getTypeEv
 430              		.syntax unified
 431              		.thumb
 432              		.thumb_func
 433              		.fpu fpv4-sp-d16
 435              	_ZN14rosserial_msgs9TopicInfo7getTypeEv:
 436              	.LVL28:
 437              	.LFB433:
 438              		.file 3 "Core/Inc/ros/rosserial_msgs/TopicInfo.h"
   1:Core/Inc/ros/rosserial_msgs/TopicInfo.h **** #ifndef _ROS_rosserial_msgs_TopicInfo_h
   2:Core/Inc/ros/rosserial_msgs/TopicInfo.h **** #define _ROS_rosserial_msgs_TopicInfo_h
   3:Core/Inc/ros/rosserial_msgs/TopicInfo.h **** 
   4:Core/Inc/ros/rosserial_msgs/TopicInfo.h **** #include <stdint.h>
   5:Core/Inc/ros/rosserial_msgs/TopicInfo.h **** #include <string.h>
   6:Core/Inc/ros/rosserial_msgs/TopicInfo.h **** #include <stdlib.h>
   7:Core/Inc/ros/rosserial_msgs/TopicInfo.h **** #include "ros/msg.h"
   8:Core/Inc/ros/rosserial_msgs/TopicInfo.h **** 
   9:Core/Inc/ros/rosserial_msgs/TopicInfo.h **** namespace rosserial_msgs
  10:Core/Inc/ros/rosserial_msgs/TopicInfo.h **** {
ARM GAS  /tmp/ccaSmKi1.s 			page 11


  11:Core/Inc/ros/rosserial_msgs/TopicInfo.h **** 
  12:Core/Inc/ros/rosserial_msgs/TopicInfo.h ****   class TopicInfo : public ros::Msg
  13:Core/Inc/ros/rosserial_msgs/TopicInfo.h ****   {
  14:Core/Inc/ros/rosserial_msgs/TopicInfo.h ****     public:
  15:Core/Inc/ros/rosserial_msgs/TopicInfo.h ****       typedef uint16_t _topic_id_type;
  16:Core/Inc/ros/rosserial_msgs/TopicInfo.h ****       _topic_id_type topic_id;
  17:Core/Inc/ros/rosserial_msgs/TopicInfo.h ****       typedef const char* _topic_name_type;
  18:Core/Inc/ros/rosserial_msgs/TopicInfo.h ****       _topic_name_type topic_name;
  19:Core/Inc/ros/rosserial_msgs/TopicInfo.h ****       typedef const char* _message_type_type;
  20:Core/Inc/ros/rosserial_msgs/TopicInfo.h ****       _message_type_type message_type;
  21:Core/Inc/ros/rosserial_msgs/TopicInfo.h ****       typedef const char* _md5sum_type;
  22:Core/Inc/ros/rosserial_msgs/TopicInfo.h ****       _md5sum_type md5sum;
  23:Core/Inc/ros/rosserial_msgs/TopicInfo.h ****       typedef int32_t _buffer_size_type;
  24:Core/Inc/ros/rosserial_msgs/TopicInfo.h ****       _buffer_size_type buffer_size;
  25:Core/Inc/ros/rosserial_msgs/TopicInfo.h ****       enum { ID_PUBLISHER = 0 };
  26:Core/Inc/ros/rosserial_msgs/TopicInfo.h ****       enum { ID_SUBSCRIBER = 1 };
  27:Core/Inc/ros/rosserial_msgs/TopicInfo.h ****       enum { ID_SERVICE_SERVER = 2 };
  28:Core/Inc/ros/rosserial_msgs/TopicInfo.h ****       enum { ID_SERVICE_CLIENT = 4 };
  29:Core/Inc/ros/rosserial_msgs/TopicInfo.h ****       enum { ID_PARAMETER_REQUEST = 6 };
  30:Core/Inc/ros/rosserial_msgs/TopicInfo.h ****       enum { ID_LOG = 7 };
  31:Core/Inc/ros/rosserial_msgs/TopicInfo.h ****       enum { ID_TIME = 10 };
  32:Core/Inc/ros/rosserial_msgs/TopicInfo.h ****       enum { ID_TX_STOP = 11 };
  33:Core/Inc/ros/rosserial_msgs/TopicInfo.h **** 
  34:Core/Inc/ros/rosserial_msgs/TopicInfo.h ****     TopicInfo():
  35:Core/Inc/ros/rosserial_msgs/TopicInfo.h ****       topic_id(0),
  36:Core/Inc/ros/rosserial_msgs/TopicInfo.h ****       topic_name(""),
  37:Core/Inc/ros/rosserial_msgs/TopicInfo.h ****       message_type(""),
  38:Core/Inc/ros/rosserial_msgs/TopicInfo.h ****       md5sum(""),
  39:Core/Inc/ros/rosserial_msgs/TopicInfo.h ****       buffer_size(0)
  40:Core/Inc/ros/rosserial_msgs/TopicInfo.h ****     {
  41:Core/Inc/ros/rosserial_msgs/TopicInfo.h ****     }
  42:Core/Inc/ros/rosserial_msgs/TopicInfo.h **** 
  43:Core/Inc/ros/rosserial_msgs/TopicInfo.h ****     virtual int serialize(unsigned char *outbuffer) const override
  44:Core/Inc/ros/rosserial_msgs/TopicInfo.h ****     {
  45:Core/Inc/ros/rosserial_msgs/TopicInfo.h ****       int offset = 0;
  46:Core/Inc/ros/rosserial_msgs/TopicInfo.h ****       *(outbuffer + offset + 0) = (this->topic_id >> (8 * 0)) & 0xFF;
  47:Core/Inc/ros/rosserial_msgs/TopicInfo.h ****       *(outbuffer + offset + 1) = (this->topic_id >> (8 * 1)) & 0xFF;
  48:Core/Inc/ros/rosserial_msgs/TopicInfo.h ****       offset += sizeof(this->topic_id);
  49:Core/Inc/ros/rosserial_msgs/TopicInfo.h ****       uint32_t length_topic_name = strlen(this->topic_name);
  50:Core/Inc/ros/rosserial_msgs/TopicInfo.h ****       varToArr(outbuffer + offset, length_topic_name);
  51:Core/Inc/ros/rosserial_msgs/TopicInfo.h ****       offset += 4;
  52:Core/Inc/ros/rosserial_msgs/TopicInfo.h ****       memcpy(outbuffer + offset, this->topic_name, length_topic_name);
  53:Core/Inc/ros/rosserial_msgs/TopicInfo.h ****       offset += length_topic_name;
  54:Core/Inc/ros/rosserial_msgs/TopicInfo.h ****       uint32_t length_message_type = strlen(this->message_type);
  55:Core/Inc/ros/rosserial_msgs/TopicInfo.h ****       varToArr(outbuffer + offset, length_message_type);
  56:Core/Inc/ros/rosserial_msgs/TopicInfo.h ****       offset += 4;
  57:Core/Inc/ros/rosserial_msgs/TopicInfo.h ****       memcpy(outbuffer + offset, this->message_type, length_message_type);
  58:Core/Inc/ros/rosserial_msgs/TopicInfo.h ****       offset += length_message_type;
  59:Core/Inc/ros/rosserial_msgs/TopicInfo.h ****       uint32_t length_md5sum = strlen(this->md5sum);
  60:Core/Inc/ros/rosserial_msgs/TopicInfo.h ****       varToArr(outbuffer + offset, length_md5sum);
  61:Core/Inc/ros/rosserial_msgs/TopicInfo.h ****       offset += 4;
  62:Core/Inc/ros/rosserial_msgs/TopicInfo.h ****       memcpy(outbuffer + offset, this->md5sum, length_md5sum);
  63:Core/Inc/ros/rosserial_msgs/TopicInfo.h ****       offset += length_md5sum;
  64:Core/Inc/ros/rosserial_msgs/TopicInfo.h ****       union {
  65:Core/Inc/ros/rosserial_msgs/TopicInfo.h ****         int32_t real;
  66:Core/Inc/ros/rosserial_msgs/TopicInfo.h ****         uint32_t base;
  67:Core/Inc/ros/rosserial_msgs/TopicInfo.h ****       } u_buffer_size;
ARM GAS  /tmp/ccaSmKi1.s 			page 12


  68:Core/Inc/ros/rosserial_msgs/TopicInfo.h ****       u_buffer_size.real = this->buffer_size;
  69:Core/Inc/ros/rosserial_msgs/TopicInfo.h ****       *(outbuffer + offset + 0) = (u_buffer_size.base >> (8 * 0)) & 0xFF;
  70:Core/Inc/ros/rosserial_msgs/TopicInfo.h ****       *(outbuffer + offset + 1) = (u_buffer_size.base >> (8 * 1)) & 0xFF;
  71:Core/Inc/ros/rosserial_msgs/TopicInfo.h ****       *(outbuffer + offset + 2) = (u_buffer_size.base >> (8 * 2)) & 0xFF;
  72:Core/Inc/ros/rosserial_msgs/TopicInfo.h ****       *(outbuffer + offset + 3) = (u_buffer_size.base >> (8 * 3)) & 0xFF;
  73:Core/Inc/ros/rosserial_msgs/TopicInfo.h ****       offset += sizeof(this->buffer_size);
  74:Core/Inc/ros/rosserial_msgs/TopicInfo.h ****       return offset;
  75:Core/Inc/ros/rosserial_msgs/TopicInfo.h ****     }
  76:Core/Inc/ros/rosserial_msgs/TopicInfo.h **** 
  77:Core/Inc/ros/rosserial_msgs/TopicInfo.h ****     virtual int deserialize(unsigned char *inbuffer) override
  78:Core/Inc/ros/rosserial_msgs/TopicInfo.h ****     {
  79:Core/Inc/ros/rosserial_msgs/TopicInfo.h ****       int offset = 0;
  80:Core/Inc/ros/rosserial_msgs/TopicInfo.h ****       this->topic_id =  ((uint16_t) (*(inbuffer + offset)));
  81:Core/Inc/ros/rosserial_msgs/TopicInfo.h ****       this->topic_id |= ((uint16_t) (*(inbuffer + offset + 1))) << (8 * 1);
  82:Core/Inc/ros/rosserial_msgs/TopicInfo.h ****       offset += sizeof(this->topic_id);
  83:Core/Inc/ros/rosserial_msgs/TopicInfo.h ****       uint32_t length_topic_name;
  84:Core/Inc/ros/rosserial_msgs/TopicInfo.h ****       arrToVar(length_topic_name, (inbuffer + offset));
  85:Core/Inc/ros/rosserial_msgs/TopicInfo.h ****       offset += 4;
  86:Core/Inc/ros/rosserial_msgs/TopicInfo.h ****       for(unsigned int k= offset; k< offset+length_topic_name; ++k){
  87:Core/Inc/ros/rosserial_msgs/TopicInfo.h ****           inbuffer[k-1]=inbuffer[k];
  88:Core/Inc/ros/rosserial_msgs/TopicInfo.h ****       }
  89:Core/Inc/ros/rosserial_msgs/TopicInfo.h ****       inbuffer[offset+length_topic_name-1]=0;
  90:Core/Inc/ros/rosserial_msgs/TopicInfo.h ****       this->topic_name = (char *)(inbuffer + offset-1);
  91:Core/Inc/ros/rosserial_msgs/TopicInfo.h ****       offset += length_topic_name;
  92:Core/Inc/ros/rosserial_msgs/TopicInfo.h ****       uint32_t length_message_type;
  93:Core/Inc/ros/rosserial_msgs/TopicInfo.h ****       arrToVar(length_message_type, (inbuffer + offset));
  94:Core/Inc/ros/rosserial_msgs/TopicInfo.h ****       offset += 4;
  95:Core/Inc/ros/rosserial_msgs/TopicInfo.h ****       for(unsigned int k= offset; k< offset+length_message_type; ++k){
  96:Core/Inc/ros/rosserial_msgs/TopicInfo.h ****           inbuffer[k-1]=inbuffer[k];
  97:Core/Inc/ros/rosserial_msgs/TopicInfo.h ****       }
  98:Core/Inc/ros/rosserial_msgs/TopicInfo.h ****       inbuffer[offset+length_message_type-1]=0;
  99:Core/Inc/ros/rosserial_msgs/TopicInfo.h ****       this->message_type = (char *)(inbuffer + offset-1);
 100:Core/Inc/ros/rosserial_msgs/TopicInfo.h ****       offset += length_message_type;
 101:Core/Inc/ros/rosserial_msgs/TopicInfo.h ****       uint32_t length_md5sum;
 102:Core/Inc/ros/rosserial_msgs/TopicInfo.h ****       arrToVar(length_md5sum, (inbuffer + offset));
 103:Core/Inc/ros/rosserial_msgs/TopicInfo.h ****       offset += 4;
 104:Core/Inc/ros/rosserial_msgs/TopicInfo.h ****       for(unsigned int k= offset; k< offset+length_md5sum; ++k){
 105:Core/Inc/ros/rosserial_msgs/TopicInfo.h ****           inbuffer[k-1]=inbuffer[k];
 106:Core/Inc/ros/rosserial_msgs/TopicInfo.h ****       }
 107:Core/Inc/ros/rosserial_msgs/TopicInfo.h ****       inbuffer[offset+length_md5sum-1]=0;
 108:Core/Inc/ros/rosserial_msgs/TopicInfo.h ****       this->md5sum = (char *)(inbuffer + offset-1);
 109:Core/Inc/ros/rosserial_msgs/TopicInfo.h ****       offset += length_md5sum;
 110:Core/Inc/ros/rosserial_msgs/TopicInfo.h ****       union {
 111:Core/Inc/ros/rosserial_msgs/TopicInfo.h ****         int32_t real;
 112:Core/Inc/ros/rosserial_msgs/TopicInfo.h ****         uint32_t base;
 113:Core/Inc/ros/rosserial_msgs/TopicInfo.h ****       } u_buffer_size;
 114:Core/Inc/ros/rosserial_msgs/TopicInfo.h ****       u_buffer_size.base = 0;
 115:Core/Inc/ros/rosserial_msgs/TopicInfo.h ****       u_buffer_size.base |= ((uint32_t) (*(inbuffer + offset + 0))) << (8 * 0);
 116:Core/Inc/ros/rosserial_msgs/TopicInfo.h ****       u_buffer_size.base |= ((uint32_t) (*(inbuffer + offset + 1))) << (8 * 1);
 117:Core/Inc/ros/rosserial_msgs/TopicInfo.h ****       u_buffer_size.base |= ((uint32_t) (*(inbuffer + offset + 2))) << (8 * 2);
 118:Core/Inc/ros/rosserial_msgs/TopicInfo.h ****       u_buffer_size.base |= ((uint32_t) (*(inbuffer + offset + 3))) << (8 * 3);
 119:Core/Inc/ros/rosserial_msgs/TopicInfo.h ****       this->buffer_size = u_buffer_size.real;
 120:Core/Inc/ros/rosserial_msgs/TopicInfo.h ****       offset += sizeof(this->buffer_size);
 121:Core/Inc/ros/rosserial_msgs/TopicInfo.h ****      return offset;
 122:Core/Inc/ros/rosserial_msgs/TopicInfo.h ****     }
 123:Core/Inc/ros/rosserial_msgs/TopicInfo.h **** 
 124:Core/Inc/ros/rosserial_msgs/TopicInfo.h ****     virtual const char * getType() override { return "rosserial_msgs/TopicInfo"; };
ARM GAS  /tmp/ccaSmKi1.s 			page 13


 439              		.loc 3 124 26 is_stmt 1 view -0
 440              		.cfi_startproc
 441              		@ args = 0, pretend = 0, frame = 0
 442              		@ frame_needed = 0, uses_anonymous_args = 0
 443              		@ link register save eliminated.
 444              		.loc 3 124 47 view .LVU130
 445              		.loc 3 124 82 is_stmt 0 view .LVU131
 446 0000 0048     		ldr	r0, .L18
 447              	.LVL29:
 448              		.loc 3 124 82 view .LVU132
 449 0002 7047     		bx	lr
 450              	.L19:
 451              		.align	2
 452              	.L18:
 453 0004 00000000 		.word	.LC4
 454              		.cfi_endproc
 455              	.LFE433:
 457              		.section	.rodata._ZN14rosserial_msgs9TopicInfo6getMD5Ev.str1.4,"aMS",%progbits,1
 458              		.align	2
 459              	.LC5:
 460 0000 30616435 		.ascii	"0ad51f88fc44892f8c10684077646005\000"
 460      31663838 
 460      66633434 
 460      38393266 
 460      38633130 
 461              		.section	.text._ZN14rosserial_msgs9TopicInfo6getMD5Ev,"axG",%progbits,_ZN14rosserial_msgs9TopicInf
 462              		.align	1
 463              		.weak	_ZN14rosserial_msgs9TopicInfo6getMD5Ev
 464              		.syntax unified
 465              		.thumb
 466              		.thumb_func
 467              		.fpu fpv4-sp-d16
 469              	_ZN14rosserial_msgs9TopicInfo6getMD5Ev:
 470              	.LVL30:
 471              	.LFB434:
 125:Core/Inc/ros/rosserial_msgs/TopicInfo.h ****     virtual const char * getMD5() override { return "0ad51f88fc44892f8c10684077646005"; };
 472              		.loc 3 125 26 is_stmt 1 view -0
 473              		.cfi_startproc
 474              		@ args = 0, pretend = 0, frame = 0
 475              		@ frame_needed = 0, uses_anonymous_args = 0
 476              		@ link register save eliminated.
 477              		.loc 3 125 46 view .LVU134
 478              		.loc 3 125 89 is_stmt 0 view .LVU135
 479 0000 0048     		ldr	r0, .L21
 480              	.LVL31:
 481              		.loc 3 125 89 view .LVU136
 482 0002 7047     		bx	lr
 483              	.L22:
 484              		.align	2
 485              	.L21:
 486 0004 00000000 		.word	.LC5
 487              		.cfi_endproc
 488              	.LFE434:
 490              		.section	.rodata._ZN14rosserial_msgs3Log7getTypeEv.str1.4,"aMS",%progbits,1
 491              		.align	2
 492              	.LC6:
 493 0000 726F7373 		.ascii	"rosserial_msgs/Log\000"
ARM GAS  /tmp/ccaSmKi1.s 			page 14


 493      65726961 
 493      6C5F6D73 
 493      67732F4C 
 493      6F6700
 494              		.section	.text._ZN14rosserial_msgs3Log7getTypeEv,"axG",%progbits,_ZN14rosserial_msgs3Log7getTypeEv
 495              		.align	1
 496              		.weak	_ZN14rosserial_msgs3Log7getTypeEv
 497              		.syntax unified
 498              		.thumb
 499              		.thumb_func
 500              		.fpu fpv4-sp-d16
 502              	_ZN14rosserial_msgs3Log7getTypeEv:
 503              	.LVL32:
 504              	.LFB440:
 505              		.file 4 "Core/Inc/ros/rosserial_msgs/Log.h"
   1:Core/Inc/ros/rosserial_msgs/Log.h **** #ifndef _ROS_rosserial_msgs_Log_h
   2:Core/Inc/ros/rosserial_msgs/Log.h **** #define _ROS_rosserial_msgs_Log_h
   3:Core/Inc/ros/rosserial_msgs/Log.h **** 
   4:Core/Inc/ros/rosserial_msgs/Log.h **** #include <stdint.h>
   5:Core/Inc/ros/rosserial_msgs/Log.h **** #include <string.h>
   6:Core/Inc/ros/rosserial_msgs/Log.h **** #include <stdlib.h>
   7:Core/Inc/ros/rosserial_msgs/Log.h **** #include "ros/msg.h"
   8:Core/Inc/ros/rosserial_msgs/Log.h **** 
   9:Core/Inc/ros/rosserial_msgs/Log.h **** namespace rosserial_msgs
  10:Core/Inc/ros/rosserial_msgs/Log.h **** {
  11:Core/Inc/ros/rosserial_msgs/Log.h **** 
  12:Core/Inc/ros/rosserial_msgs/Log.h ****   class Log : public ros::Msg
  13:Core/Inc/ros/rosserial_msgs/Log.h ****   {
  14:Core/Inc/ros/rosserial_msgs/Log.h ****     public:
  15:Core/Inc/ros/rosserial_msgs/Log.h ****       typedef uint8_t _level_type;
  16:Core/Inc/ros/rosserial_msgs/Log.h ****       _level_type level;
  17:Core/Inc/ros/rosserial_msgs/Log.h ****       typedef const char* _msg_type;
  18:Core/Inc/ros/rosserial_msgs/Log.h ****       _msg_type msg;
  19:Core/Inc/ros/rosserial_msgs/Log.h ****       enum { ROSDEBUG = 0 };
  20:Core/Inc/ros/rosserial_msgs/Log.h ****       enum { INFO = 1 };
  21:Core/Inc/ros/rosserial_msgs/Log.h ****       enum { WARN = 2 };
  22:Core/Inc/ros/rosserial_msgs/Log.h ****       enum { ERROR = 3 };
  23:Core/Inc/ros/rosserial_msgs/Log.h ****       enum { FATAL = 4 };
  24:Core/Inc/ros/rosserial_msgs/Log.h **** 
  25:Core/Inc/ros/rosserial_msgs/Log.h ****     Log():
  26:Core/Inc/ros/rosserial_msgs/Log.h ****       level(0),
  27:Core/Inc/ros/rosserial_msgs/Log.h ****       msg("")
  28:Core/Inc/ros/rosserial_msgs/Log.h ****     {
  29:Core/Inc/ros/rosserial_msgs/Log.h ****     }
  30:Core/Inc/ros/rosserial_msgs/Log.h **** 
  31:Core/Inc/ros/rosserial_msgs/Log.h ****     virtual int serialize(unsigned char *outbuffer) const override
  32:Core/Inc/ros/rosserial_msgs/Log.h ****     {
  33:Core/Inc/ros/rosserial_msgs/Log.h ****       int offset = 0;
  34:Core/Inc/ros/rosserial_msgs/Log.h ****       *(outbuffer + offset + 0) = (this->level >> (8 * 0)) & 0xFF;
  35:Core/Inc/ros/rosserial_msgs/Log.h ****       offset += sizeof(this->level);
  36:Core/Inc/ros/rosserial_msgs/Log.h ****       uint32_t length_msg = strlen(this->msg);
  37:Core/Inc/ros/rosserial_msgs/Log.h ****       varToArr(outbuffer + offset, length_msg);
  38:Core/Inc/ros/rosserial_msgs/Log.h ****       offset += 4;
  39:Core/Inc/ros/rosserial_msgs/Log.h ****       memcpy(outbuffer + offset, this->msg, length_msg);
  40:Core/Inc/ros/rosserial_msgs/Log.h ****       offset += length_msg;
  41:Core/Inc/ros/rosserial_msgs/Log.h ****       return offset;
  42:Core/Inc/ros/rosserial_msgs/Log.h ****     }
ARM GAS  /tmp/ccaSmKi1.s 			page 15


  43:Core/Inc/ros/rosserial_msgs/Log.h **** 
  44:Core/Inc/ros/rosserial_msgs/Log.h ****     virtual int deserialize(unsigned char *inbuffer) override
  45:Core/Inc/ros/rosserial_msgs/Log.h ****     {
  46:Core/Inc/ros/rosserial_msgs/Log.h ****       int offset = 0;
  47:Core/Inc/ros/rosserial_msgs/Log.h ****       this->level =  ((uint8_t) (*(inbuffer + offset)));
  48:Core/Inc/ros/rosserial_msgs/Log.h ****       offset += sizeof(this->level);
  49:Core/Inc/ros/rosserial_msgs/Log.h ****       uint32_t length_msg;
  50:Core/Inc/ros/rosserial_msgs/Log.h ****       arrToVar(length_msg, (inbuffer + offset));
  51:Core/Inc/ros/rosserial_msgs/Log.h ****       offset += 4;
  52:Core/Inc/ros/rosserial_msgs/Log.h ****       for(unsigned int k= offset; k< offset+length_msg; ++k){
  53:Core/Inc/ros/rosserial_msgs/Log.h ****           inbuffer[k-1]=inbuffer[k];
  54:Core/Inc/ros/rosserial_msgs/Log.h ****       }
  55:Core/Inc/ros/rosserial_msgs/Log.h ****       inbuffer[offset+length_msg-1]=0;
  56:Core/Inc/ros/rosserial_msgs/Log.h ****       this->msg = (char *)(inbuffer + offset-1);
  57:Core/Inc/ros/rosserial_msgs/Log.h ****       offset += length_msg;
  58:Core/Inc/ros/rosserial_msgs/Log.h ****      return offset;
  59:Core/Inc/ros/rosserial_msgs/Log.h ****     }
  60:Core/Inc/ros/rosserial_msgs/Log.h **** 
  61:Core/Inc/ros/rosserial_msgs/Log.h ****     virtual const char * getType() override { return "rosserial_msgs/Log"; };
 506              		.loc 4 61 26 is_stmt 1 view -0
 507              		.cfi_startproc
 508              		@ args = 0, pretend = 0, frame = 0
 509              		@ frame_needed = 0, uses_anonymous_args = 0
 510              		@ link register save eliminated.
 511              		.loc 4 61 47 view .LVU138
 512              		.loc 4 61 76 is_stmt 0 view .LVU139
 513 0000 0048     		ldr	r0, .L24
 514              	.LVL33:
 515              		.loc 4 61 76 view .LVU140
 516 0002 7047     		bx	lr
 517              	.L25:
 518              		.align	2
 519              	.L24:
 520 0004 00000000 		.word	.LC6
 521              		.cfi_endproc
 522              	.LFE440:
 524              		.section	.rodata._ZN14rosserial_msgs3Log6getMD5Ev.str1.4,"aMS",%progbits,1
 525              		.align	2
 526              	.LC7:
 527 0000 31316162 		.ascii	"11abd731c25933261cd6183bd12d6295\000"
 527      64373331 
 527      63323539 
 527      33333236 
 527      31636436 
 528              		.section	.text._ZN14rosserial_msgs3Log6getMD5Ev,"axG",%progbits,_ZN14rosserial_msgs3Log6getMD5Ev,c
 529              		.align	1
 530              		.weak	_ZN14rosserial_msgs3Log6getMD5Ev
 531              		.syntax unified
 532              		.thumb
 533              		.thumb_func
 534              		.fpu fpv4-sp-d16
 536              	_ZN14rosserial_msgs3Log6getMD5Ev:
 537              	.LVL34:
 538              	.LFB441:
  62:Core/Inc/ros/rosserial_msgs/Log.h ****     virtual const char * getMD5() override { return "11abd731c25933261cd6183bd12d6295"; };
 539              		.loc 4 62 26 is_stmt 1 view -0
 540              		.cfi_startproc
ARM GAS  /tmp/ccaSmKi1.s 			page 16


 541              		@ args = 0, pretend = 0, frame = 0
 542              		@ frame_needed = 0, uses_anonymous_args = 0
 543              		@ link register save eliminated.
 544              		.loc 4 62 46 view .LVU142
 545              		.loc 4 62 89 is_stmt 0 view .LVU143
 546 0000 0048     		ldr	r0, .L27
 547              	.LVL35:
 548              		.loc 4 62 89 view .LVU144
 549 0002 7047     		bx	lr
 550              	.L28:
 551              		.align	2
 552              	.L27:
 553 0004 00000000 		.word	.LC7
 554              		.cfi_endproc
 555              	.LFE441:
 557              		.section	.text._ZN14rosserial_msgs20RequestParamResponse7getTypeEv,"axG",%progbits,_ZN14rosserial_
 558              		.align	1
 559              		.weak	_ZN14rosserial_msgs20RequestParamResponse7getTypeEv
 560              		.syntax unified
 561              		.thumb
 562              		.thumb_func
 563              		.fpu fpv4-sp-d16
 565              	_ZN14rosserial_msgs20RequestParamResponse7getTypeEv:
 566              	.LVL36:
 567              	.LFB454:
 568              		.file 5 "Core/Inc/ros/rosserial_msgs/RequestParam.h"
   1:Core/Inc/ros/rosserial_msgs/RequestParam.h **** #ifndef _ROS_SERVICE_RequestParam_h
   2:Core/Inc/ros/rosserial_msgs/RequestParam.h **** #define _ROS_SERVICE_RequestParam_h
   3:Core/Inc/ros/rosserial_msgs/RequestParam.h **** #include <stdint.h>
   4:Core/Inc/ros/rosserial_msgs/RequestParam.h **** #include <string.h>
   5:Core/Inc/ros/rosserial_msgs/RequestParam.h **** #include <stdlib.h>
   6:Core/Inc/ros/rosserial_msgs/RequestParam.h **** #include "ros/msg.h"
   7:Core/Inc/ros/rosserial_msgs/RequestParam.h **** 
   8:Core/Inc/ros/rosserial_msgs/RequestParam.h **** namespace rosserial_msgs
   9:Core/Inc/ros/rosserial_msgs/RequestParam.h **** {
  10:Core/Inc/ros/rosserial_msgs/RequestParam.h **** 
  11:Core/Inc/ros/rosserial_msgs/RequestParam.h **** static const char REQUESTPARAM[] = "rosserial_msgs/RequestParam";
  12:Core/Inc/ros/rosserial_msgs/RequestParam.h **** 
  13:Core/Inc/ros/rosserial_msgs/RequestParam.h ****   class RequestParamRequest : public ros::Msg
  14:Core/Inc/ros/rosserial_msgs/RequestParam.h ****   {
  15:Core/Inc/ros/rosserial_msgs/RequestParam.h ****     public:
  16:Core/Inc/ros/rosserial_msgs/RequestParam.h ****       typedef const char* _name_type;
  17:Core/Inc/ros/rosserial_msgs/RequestParam.h ****       _name_type name;
  18:Core/Inc/ros/rosserial_msgs/RequestParam.h **** 
  19:Core/Inc/ros/rosserial_msgs/RequestParam.h ****     RequestParamRequest():
  20:Core/Inc/ros/rosserial_msgs/RequestParam.h ****       name("")
  21:Core/Inc/ros/rosserial_msgs/RequestParam.h ****     {
  22:Core/Inc/ros/rosserial_msgs/RequestParam.h ****     }
  23:Core/Inc/ros/rosserial_msgs/RequestParam.h **** 
  24:Core/Inc/ros/rosserial_msgs/RequestParam.h ****     virtual int serialize(unsigned char *outbuffer) const override
  25:Core/Inc/ros/rosserial_msgs/RequestParam.h ****     {
  26:Core/Inc/ros/rosserial_msgs/RequestParam.h ****       int offset = 0;
  27:Core/Inc/ros/rosserial_msgs/RequestParam.h ****       uint32_t length_name = strlen(this->name);
  28:Core/Inc/ros/rosserial_msgs/RequestParam.h ****       varToArr(outbuffer + offset, length_name);
  29:Core/Inc/ros/rosserial_msgs/RequestParam.h ****       offset += 4;
  30:Core/Inc/ros/rosserial_msgs/RequestParam.h ****       memcpy(outbuffer + offset, this->name, length_name);
  31:Core/Inc/ros/rosserial_msgs/RequestParam.h ****       offset += length_name;
ARM GAS  /tmp/ccaSmKi1.s 			page 17


  32:Core/Inc/ros/rosserial_msgs/RequestParam.h ****       return offset;
  33:Core/Inc/ros/rosserial_msgs/RequestParam.h ****     }
  34:Core/Inc/ros/rosserial_msgs/RequestParam.h **** 
  35:Core/Inc/ros/rosserial_msgs/RequestParam.h ****     virtual int deserialize(unsigned char *inbuffer) override
  36:Core/Inc/ros/rosserial_msgs/RequestParam.h ****     {
  37:Core/Inc/ros/rosserial_msgs/RequestParam.h ****       int offset = 0;
  38:Core/Inc/ros/rosserial_msgs/RequestParam.h ****       uint32_t length_name;
  39:Core/Inc/ros/rosserial_msgs/RequestParam.h ****       arrToVar(length_name, (inbuffer + offset));
  40:Core/Inc/ros/rosserial_msgs/RequestParam.h ****       offset += 4;
  41:Core/Inc/ros/rosserial_msgs/RequestParam.h ****       for(unsigned int k= offset; k< offset+length_name; ++k){
  42:Core/Inc/ros/rosserial_msgs/RequestParam.h ****           inbuffer[k-1]=inbuffer[k];
  43:Core/Inc/ros/rosserial_msgs/RequestParam.h ****       }
  44:Core/Inc/ros/rosserial_msgs/RequestParam.h ****       inbuffer[offset+length_name-1]=0;
  45:Core/Inc/ros/rosserial_msgs/RequestParam.h ****       this->name = (char *)(inbuffer + offset-1);
  46:Core/Inc/ros/rosserial_msgs/RequestParam.h ****       offset += length_name;
  47:Core/Inc/ros/rosserial_msgs/RequestParam.h ****      return offset;
  48:Core/Inc/ros/rosserial_msgs/RequestParam.h ****     }
  49:Core/Inc/ros/rosserial_msgs/RequestParam.h **** 
  50:Core/Inc/ros/rosserial_msgs/RequestParam.h ****     virtual const char * getType() override { return REQUESTPARAM; };
  51:Core/Inc/ros/rosserial_msgs/RequestParam.h ****     virtual const char * getMD5() override { return "c1f3d28f1b044c871e6eff2e9fc3c667"; };
  52:Core/Inc/ros/rosserial_msgs/RequestParam.h **** 
  53:Core/Inc/ros/rosserial_msgs/RequestParam.h ****   };
  54:Core/Inc/ros/rosserial_msgs/RequestParam.h **** 
  55:Core/Inc/ros/rosserial_msgs/RequestParam.h ****   class RequestParamResponse : public ros::Msg
  56:Core/Inc/ros/rosserial_msgs/RequestParam.h ****   {
  57:Core/Inc/ros/rosserial_msgs/RequestParam.h ****     public:
  58:Core/Inc/ros/rosserial_msgs/RequestParam.h ****       uint32_t ints_length;
  59:Core/Inc/ros/rosserial_msgs/RequestParam.h ****       typedef int32_t _ints_type;
  60:Core/Inc/ros/rosserial_msgs/RequestParam.h ****       _ints_type st_ints;
  61:Core/Inc/ros/rosserial_msgs/RequestParam.h ****       _ints_type * ints;
  62:Core/Inc/ros/rosserial_msgs/RequestParam.h ****       uint32_t floats_length;
  63:Core/Inc/ros/rosserial_msgs/RequestParam.h ****       typedef float _floats_type;
  64:Core/Inc/ros/rosserial_msgs/RequestParam.h ****       _floats_type st_floats;
  65:Core/Inc/ros/rosserial_msgs/RequestParam.h ****       _floats_type * floats;
  66:Core/Inc/ros/rosserial_msgs/RequestParam.h ****       uint32_t strings_length;
  67:Core/Inc/ros/rosserial_msgs/RequestParam.h ****       typedef char* _strings_type;
  68:Core/Inc/ros/rosserial_msgs/RequestParam.h ****       _strings_type st_strings;
  69:Core/Inc/ros/rosserial_msgs/RequestParam.h ****       _strings_type * strings;
  70:Core/Inc/ros/rosserial_msgs/RequestParam.h **** 
  71:Core/Inc/ros/rosserial_msgs/RequestParam.h ****     RequestParamResponse():
  72:Core/Inc/ros/rosserial_msgs/RequestParam.h ****       ints_length(0), st_ints(), ints(nullptr),
  73:Core/Inc/ros/rosserial_msgs/RequestParam.h ****       floats_length(0), st_floats(), floats(nullptr),
  74:Core/Inc/ros/rosserial_msgs/RequestParam.h ****       strings_length(0), st_strings(), strings(nullptr)
  75:Core/Inc/ros/rosserial_msgs/RequestParam.h ****     {
  76:Core/Inc/ros/rosserial_msgs/RequestParam.h ****     }
  77:Core/Inc/ros/rosserial_msgs/RequestParam.h **** 
  78:Core/Inc/ros/rosserial_msgs/RequestParam.h ****     virtual int serialize(unsigned char *outbuffer) const override
  79:Core/Inc/ros/rosserial_msgs/RequestParam.h ****     {
  80:Core/Inc/ros/rosserial_msgs/RequestParam.h ****       int offset = 0;
  81:Core/Inc/ros/rosserial_msgs/RequestParam.h ****       *(outbuffer + offset + 0) = (this->ints_length >> (8 * 0)) & 0xFF;
  82:Core/Inc/ros/rosserial_msgs/RequestParam.h ****       *(outbuffer + offset + 1) = (this->ints_length >> (8 * 1)) & 0xFF;
  83:Core/Inc/ros/rosserial_msgs/RequestParam.h ****       *(outbuffer + offset + 2) = (this->ints_length >> (8 * 2)) & 0xFF;
  84:Core/Inc/ros/rosserial_msgs/RequestParam.h ****       *(outbuffer + offset + 3) = (this->ints_length >> (8 * 3)) & 0xFF;
  85:Core/Inc/ros/rosserial_msgs/RequestParam.h ****       offset += sizeof(this->ints_length);
  86:Core/Inc/ros/rosserial_msgs/RequestParam.h ****       for( uint32_t i = 0; i < ints_length; i++){
  87:Core/Inc/ros/rosserial_msgs/RequestParam.h ****       union {
  88:Core/Inc/ros/rosserial_msgs/RequestParam.h ****         int32_t real;
ARM GAS  /tmp/ccaSmKi1.s 			page 18


  89:Core/Inc/ros/rosserial_msgs/RequestParam.h ****         uint32_t base;
  90:Core/Inc/ros/rosserial_msgs/RequestParam.h ****       } u_intsi;
  91:Core/Inc/ros/rosserial_msgs/RequestParam.h ****       u_intsi.real = this->ints[i];
  92:Core/Inc/ros/rosserial_msgs/RequestParam.h ****       *(outbuffer + offset + 0) = (u_intsi.base >> (8 * 0)) & 0xFF;
  93:Core/Inc/ros/rosserial_msgs/RequestParam.h ****       *(outbuffer + offset + 1) = (u_intsi.base >> (8 * 1)) & 0xFF;
  94:Core/Inc/ros/rosserial_msgs/RequestParam.h ****       *(outbuffer + offset + 2) = (u_intsi.base >> (8 * 2)) & 0xFF;
  95:Core/Inc/ros/rosserial_msgs/RequestParam.h ****       *(outbuffer + offset + 3) = (u_intsi.base >> (8 * 3)) & 0xFF;
  96:Core/Inc/ros/rosserial_msgs/RequestParam.h ****       offset += sizeof(this->ints[i]);
  97:Core/Inc/ros/rosserial_msgs/RequestParam.h ****       }
  98:Core/Inc/ros/rosserial_msgs/RequestParam.h ****       *(outbuffer + offset + 0) = (this->floats_length >> (8 * 0)) & 0xFF;
  99:Core/Inc/ros/rosserial_msgs/RequestParam.h ****       *(outbuffer + offset + 1) = (this->floats_length >> (8 * 1)) & 0xFF;
 100:Core/Inc/ros/rosserial_msgs/RequestParam.h ****       *(outbuffer + offset + 2) = (this->floats_length >> (8 * 2)) & 0xFF;
 101:Core/Inc/ros/rosserial_msgs/RequestParam.h ****       *(outbuffer + offset + 3) = (this->floats_length >> (8 * 3)) & 0xFF;
 102:Core/Inc/ros/rosserial_msgs/RequestParam.h ****       offset += sizeof(this->floats_length);
 103:Core/Inc/ros/rosserial_msgs/RequestParam.h ****       for( uint32_t i = 0; i < floats_length; i++){
 104:Core/Inc/ros/rosserial_msgs/RequestParam.h ****       union {
 105:Core/Inc/ros/rosserial_msgs/RequestParam.h ****         float real;
 106:Core/Inc/ros/rosserial_msgs/RequestParam.h ****         uint32_t base;
 107:Core/Inc/ros/rosserial_msgs/RequestParam.h ****       } u_floatsi;
 108:Core/Inc/ros/rosserial_msgs/RequestParam.h ****       u_floatsi.real = this->floats[i];
 109:Core/Inc/ros/rosserial_msgs/RequestParam.h ****       *(outbuffer + offset + 0) = (u_floatsi.base >> (8 * 0)) & 0xFF;
 110:Core/Inc/ros/rosserial_msgs/RequestParam.h ****       *(outbuffer + offset + 1) = (u_floatsi.base >> (8 * 1)) & 0xFF;
 111:Core/Inc/ros/rosserial_msgs/RequestParam.h ****       *(outbuffer + offset + 2) = (u_floatsi.base >> (8 * 2)) & 0xFF;
 112:Core/Inc/ros/rosserial_msgs/RequestParam.h ****       *(outbuffer + offset + 3) = (u_floatsi.base >> (8 * 3)) & 0xFF;
 113:Core/Inc/ros/rosserial_msgs/RequestParam.h ****       offset += sizeof(this->floats[i]);
 114:Core/Inc/ros/rosserial_msgs/RequestParam.h ****       }
 115:Core/Inc/ros/rosserial_msgs/RequestParam.h ****       *(outbuffer + offset + 0) = (this->strings_length >> (8 * 0)) & 0xFF;
 116:Core/Inc/ros/rosserial_msgs/RequestParam.h ****       *(outbuffer + offset + 1) = (this->strings_length >> (8 * 1)) & 0xFF;
 117:Core/Inc/ros/rosserial_msgs/RequestParam.h ****       *(outbuffer + offset + 2) = (this->strings_length >> (8 * 2)) & 0xFF;
 118:Core/Inc/ros/rosserial_msgs/RequestParam.h ****       *(outbuffer + offset + 3) = (this->strings_length >> (8 * 3)) & 0xFF;
 119:Core/Inc/ros/rosserial_msgs/RequestParam.h ****       offset += sizeof(this->strings_length);
 120:Core/Inc/ros/rosserial_msgs/RequestParam.h ****       for( uint32_t i = 0; i < strings_length; i++){
 121:Core/Inc/ros/rosserial_msgs/RequestParam.h ****       uint32_t length_stringsi = strlen(this->strings[i]);
 122:Core/Inc/ros/rosserial_msgs/RequestParam.h ****       varToArr(outbuffer + offset, length_stringsi);
 123:Core/Inc/ros/rosserial_msgs/RequestParam.h ****       offset += 4;
 124:Core/Inc/ros/rosserial_msgs/RequestParam.h ****       memcpy(outbuffer + offset, this->strings[i], length_stringsi);
 125:Core/Inc/ros/rosserial_msgs/RequestParam.h ****       offset += length_stringsi;
 126:Core/Inc/ros/rosserial_msgs/RequestParam.h ****       }
 127:Core/Inc/ros/rosserial_msgs/RequestParam.h ****       return offset;
 128:Core/Inc/ros/rosserial_msgs/RequestParam.h ****     }
 129:Core/Inc/ros/rosserial_msgs/RequestParam.h **** 
 130:Core/Inc/ros/rosserial_msgs/RequestParam.h ****     virtual int deserialize(unsigned char *inbuffer) override
 131:Core/Inc/ros/rosserial_msgs/RequestParam.h ****     {
 132:Core/Inc/ros/rosserial_msgs/RequestParam.h ****       int offset = 0;
 133:Core/Inc/ros/rosserial_msgs/RequestParam.h ****       uint32_t ints_lengthT = ((uint32_t) (*(inbuffer + offset))); 
 134:Core/Inc/ros/rosserial_msgs/RequestParam.h ****       ints_lengthT |= ((uint32_t) (*(inbuffer + offset + 1))) << (8 * 1); 
 135:Core/Inc/ros/rosserial_msgs/RequestParam.h ****       ints_lengthT |= ((uint32_t) (*(inbuffer + offset + 2))) << (8 * 2); 
 136:Core/Inc/ros/rosserial_msgs/RequestParam.h ****       ints_lengthT |= ((uint32_t) (*(inbuffer + offset + 3))) << (8 * 3); 
 137:Core/Inc/ros/rosserial_msgs/RequestParam.h ****       offset += sizeof(this->ints_length);
 138:Core/Inc/ros/rosserial_msgs/RequestParam.h ****       if(ints_lengthT > ints_length)
 139:Core/Inc/ros/rosserial_msgs/RequestParam.h ****         this->ints = (int32_t*)realloc(this->ints, ints_lengthT * sizeof(int32_t));
 140:Core/Inc/ros/rosserial_msgs/RequestParam.h ****       ints_length = ints_lengthT;
 141:Core/Inc/ros/rosserial_msgs/RequestParam.h ****       for( uint32_t i = 0; i < ints_length; i++){
 142:Core/Inc/ros/rosserial_msgs/RequestParam.h ****       union {
 143:Core/Inc/ros/rosserial_msgs/RequestParam.h ****         int32_t real;
 144:Core/Inc/ros/rosserial_msgs/RequestParam.h ****         uint32_t base;
 145:Core/Inc/ros/rosserial_msgs/RequestParam.h ****       } u_st_ints;
ARM GAS  /tmp/ccaSmKi1.s 			page 19


 146:Core/Inc/ros/rosserial_msgs/RequestParam.h ****       u_st_ints.base = 0;
 147:Core/Inc/ros/rosserial_msgs/RequestParam.h ****       u_st_ints.base |= ((uint32_t) (*(inbuffer + offset + 0))) << (8 * 0);
 148:Core/Inc/ros/rosserial_msgs/RequestParam.h ****       u_st_ints.base |= ((uint32_t) (*(inbuffer + offset + 1))) << (8 * 1);
 149:Core/Inc/ros/rosserial_msgs/RequestParam.h ****       u_st_ints.base |= ((uint32_t) (*(inbuffer + offset + 2))) << (8 * 2);
 150:Core/Inc/ros/rosserial_msgs/RequestParam.h ****       u_st_ints.base |= ((uint32_t) (*(inbuffer + offset + 3))) << (8 * 3);
 151:Core/Inc/ros/rosserial_msgs/RequestParam.h ****       this->st_ints = u_st_ints.real;
 152:Core/Inc/ros/rosserial_msgs/RequestParam.h ****       offset += sizeof(this->st_ints);
 153:Core/Inc/ros/rosserial_msgs/RequestParam.h ****         memcpy( &(this->ints[i]), &(this->st_ints), sizeof(int32_t));
 154:Core/Inc/ros/rosserial_msgs/RequestParam.h ****       }
 155:Core/Inc/ros/rosserial_msgs/RequestParam.h ****       uint32_t floats_lengthT = ((uint32_t) (*(inbuffer + offset))); 
 156:Core/Inc/ros/rosserial_msgs/RequestParam.h ****       floats_lengthT |= ((uint32_t) (*(inbuffer + offset + 1))) << (8 * 1); 
 157:Core/Inc/ros/rosserial_msgs/RequestParam.h ****       floats_lengthT |= ((uint32_t) (*(inbuffer + offset + 2))) << (8 * 2); 
 158:Core/Inc/ros/rosserial_msgs/RequestParam.h ****       floats_lengthT |= ((uint32_t) (*(inbuffer + offset + 3))) << (8 * 3); 
 159:Core/Inc/ros/rosserial_msgs/RequestParam.h ****       offset += sizeof(this->floats_length);
 160:Core/Inc/ros/rosserial_msgs/RequestParam.h ****       if(floats_lengthT > floats_length)
 161:Core/Inc/ros/rosserial_msgs/RequestParam.h ****         this->floats = (float*)realloc(this->floats, floats_lengthT * sizeof(float));
 162:Core/Inc/ros/rosserial_msgs/RequestParam.h ****       floats_length = floats_lengthT;
 163:Core/Inc/ros/rosserial_msgs/RequestParam.h ****       for( uint32_t i = 0; i < floats_length; i++){
 164:Core/Inc/ros/rosserial_msgs/RequestParam.h ****       union {
 165:Core/Inc/ros/rosserial_msgs/RequestParam.h ****         float real;
 166:Core/Inc/ros/rosserial_msgs/RequestParam.h ****         uint32_t base;
 167:Core/Inc/ros/rosserial_msgs/RequestParam.h ****       } u_st_floats;
 168:Core/Inc/ros/rosserial_msgs/RequestParam.h ****       u_st_floats.base = 0;
 169:Core/Inc/ros/rosserial_msgs/RequestParam.h ****       u_st_floats.base |= ((uint32_t) (*(inbuffer + offset + 0))) << (8 * 0);
 170:Core/Inc/ros/rosserial_msgs/RequestParam.h ****       u_st_floats.base |= ((uint32_t) (*(inbuffer + offset + 1))) << (8 * 1);
 171:Core/Inc/ros/rosserial_msgs/RequestParam.h ****       u_st_floats.base |= ((uint32_t) (*(inbuffer + offset + 2))) << (8 * 2);
 172:Core/Inc/ros/rosserial_msgs/RequestParam.h ****       u_st_floats.base |= ((uint32_t) (*(inbuffer + offset + 3))) << (8 * 3);
 173:Core/Inc/ros/rosserial_msgs/RequestParam.h ****       this->st_floats = u_st_floats.real;
 174:Core/Inc/ros/rosserial_msgs/RequestParam.h ****       offset += sizeof(this->st_floats);
 175:Core/Inc/ros/rosserial_msgs/RequestParam.h ****         memcpy( &(this->floats[i]), &(this->st_floats), sizeof(float));
 176:Core/Inc/ros/rosserial_msgs/RequestParam.h ****       }
 177:Core/Inc/ros/rosserial_msgs/RequestParam.h ****       uint32_t strings_lengthT = ((uint32_t) (*(inbuffer + offset))); 
 178:Core/Inc/ros/rosserial_msgs/RequestParam.h ****       strings_lengthT |= ((uint32_t) (*(inbuffer + offset + 1))) << (8 * 1); 
 179:Core/Inc/ros/rosserial_msgs/RequestParam.h ****       strings_lengthT |= ((uint32_t) (*(inbuffer + offset + 2))) << (8 * 2); 
 180:Core/Inc/ros/rosserial_msgs/RequestParam.h ****       strings_lengthT |= ((uint32_t) (*(inbuffer + offset + 3))) << (8 * 3); 
 181:Core/Inc/ros/rosserial_msgs/RequestParam.h ****       offset += sizeof(this->strings_length);
 182:Core/Inc/ros/rosserial_msgs/RequestParam.h ****       if(strings_lengthT > strings_length)
 183:Core/Inc/ros/rosserial_msgs/RequestParam.h ****         this->strings = (char**)realloc(this->strings, strings_lengthT * sizeof(char*));
 184:Core/Inc/ros/rosserial_msgs/RequestParam.h ****       strings_length = strings_lengthT;
 185:Core/Inc/ros/rosserial_msgs/RequestParam.h ****       for( uint32_t i = 0; i < strings_length; i++){
 186:Core/Inc/ros/rosserial_msgs/RequestParam.h ****       uint32_t length_st_strings;
 187:Core/Inc/ros/rosserial_msgs/RequestParam.h ****       arrToVar(length_st_strings, (inbuffer + offset));
 188:Core/Inc/ros/rosserial_msgs/RequestParam.h ****       offset += 4;
 189:Core/Inc/ros/rosserial_msgs/RequestParam.h ****       for(unsigned int k= offset; k< offset+length_st_strings; ++k){
 190:Core/Inc/ros/rosserial_msgs/RequestParam.h ****           inbuffer[k-1]=inbuffer[k];
 191:Core/Inc/ros/rosserial_msgs/RequestParam.h ****       }
 192:Core/Inc/ros/rosserial_msgs/RequestParam.h ****       inbuffer[offset+length_st_strings-1]=0;
 193:Core/Inc/ros/rosserial_msgs/RequestParam.h ****       this->st_strings = (char *)(inbuffer + offset-1);
 194:Core/Inc/ros/rosserial_msgs/RequestParam.h ****       offset += length_st_strings;
 195:Core/Inc/ros/rosserial_msgs/RequestParam.h ****         memcpy( &(this->strings[i]), &(this->st_strings), sizeof(char*));
 196:Core/Inc/ros/rosserial_msgs/RequestParam.h ****       }
 197:Core/Inc/ros/rosserial_msgs/RequestParam.h ****      return offset;
 198:Core/Inc/ros/rosserial_msgs/RequestParam.h ****     }
 199:Core/Inc/ros/rosserial_msgs/RequestParam.h **** 
 200:Core/Inc/ros/rosserial_msgs/RequestParam.h ****     virtual const char * getType() override { return REQUESTPARAM; };
 569              		.loc 5 200 26 is_stmt 1 view -0
 570              		.cfi_startproc
ARM GAS  /tmp/ccaSmKi1.s 			page 20


 571              		@ args = 0, pretend = 0, frame = 0
 572              		@ frame_needed = 0, uses_anonymous_args = 0
 573              		@ link register save eliminated.
 574              		.loc 5 200 47 view .LVU146
 575              		.loc 5 200 68 is_stmt 0 view .LVU147
 576 0000 0048     		ldr	r0, .L30
 577              	.LVL37:
 578              		.loc 5 200 68 view .LVU148
 579 0002 7047     		bx	lr
 580              	.L31:
 581              		.align	2
 582              	.L30:
 583 0004 00000000 		.word	.LANCHOR0
 584              		.cfi_endproc
 585              	.LFE454:
 587              		.section	.rodata._ZN14rosserial_msgs20RequestParamResponse6getMD5Ev.str1.4,"aMS",%progbits,1
 588              		.align	2
 589              	.LC8:
 590 0000 39663065 		.ascii	"9f0e98bda65981986ddf53afa7a40e49\000"
 590      39386264 
 590      61363539 
 590      38313938 
 590      36646466 
 591              		.section	.text._ZN14rosserial_msgs20RequestParamResponse6getMD5Ev,"axG",%progbits,_ZN14rosserial_m
 592              		.align	1
 593              		.weak	_ZN14rosserial_msgs20RequestParamResponse6getMD5Ev
 594              		.syntax unified
 595              		.thumb
 596              		.thumb_func
 597              		.fpu fpv4-sp-d16
 599              	_ZN14rosserial_msgs20RequestParamResponse6getMD5Ev:
 600              	.LVL38:
 601              	.LFB455:
 201:Core/Inc/ros/rosserial_msgs/RequestParam.h ****     virtual const char * getMD5() override { return "9f0e98bda65981986ddf53afa7a40e49"; };
 602              		.loc 5 201 26 is_stmt 1 view -0
 603              		.cfi_startproc
 604              		@ args = 0, pretend = 0, frame = 0
 605              		@ frame_needed = 0, uses_anonymous_args = 0
 606              		@ link register save eliminated.
 607              		.loc 5 201 46 view .LVU150
 608              		.loc 5 201 89 is_stmt 0 view .LVU151
 609 0000 0048     		ldr	r0, .L33
 610              	.LVL39:
 611              		.loc 5 201 89 view .LVU152
 612 0002 7047     		bx	lr
 613              	.L34:
 614              		.align	2
 615              	.L33:
 616 0004 00000000 		.word	.LC8
 617              		.cfi_endproc
 618              	.LFE455:
 620              		.section	.text._ZNK9actuators7Vector49serializeEPh,"axG",%progbits,_ZNK9actuators7Vector49serializ
 621              		.align	1
 622              		.weak	_ZNK9actuators7Vector49serializeEPh
 623              		.syntax unified
 624              		.thumb
 625              		.thumb_func
ARM GAS  /tmp/ccaSmKi1.s 			page 21


 626              		.fpu fpv4-sp-d16
 628              	_ZNK9actuators7Vector49serializeEPh:
 629              	.LVL40:
 630              	.LFB530:
 631              		.file 6 "Core/Inc/ros/actuators/Vector4.h"
   1:Core/Inc/ros/actuators/Vector4.h **** #ifndef _ROS_actuators_Vector4_h
   2:Core/Inc/ros/actuators/Vector4.h **** #define _ROS_actuators_Vector4_h
   3:Core/Inc/ros/actuators/Vector4.h **** 
   4:Core/Inc/ros/actuators/Vector4.h **** #include <stdint.h>
   5:Core/Inc/ros/actuators/Vector4.h **** #include <string.h>
   6:Core/Inc/ros/actuators/Vector4.h **** #include <stdlib.h>
   7:Core/Inc/ros/actuators/Vector4.h **** #include "ros/msg.h"
   8:Core/Inc/ros/actuators/Vector4.h **** 
   9:Core/Inc/ros/actuators/Vector4.h **** namespace actuators
  10:Core/Inc/ros/actuators/Vector4.h **** {
  11:Core/Inc/ros/actuators/Vector4.h **** 
  12:Core/Inc/ros/actuators/Vector4.h ****   class Vector4 : public ros::Msg
  13:Core/Inc/ros/actuators/Vector4.h ****   {
  14:Core/Inc/ros/actuators/Vector4.h ****     public:
  15:Core/Inc/ros/actuators/Vector4.h ****       float quad[4];
  16:Core/Inc/ros/actuators/Vector4.h **** 
  17:Core/Inc/ros/actuators/Vector4.h ****     Vector4():
  18:Core/Inc/ros/actuators/Vector4.h ****       quad()
  19:Core/Inc/ros/actuators/Vector4.h ****     {
  20:Core/Inc/ros/actuators/Vector4.h ****     }
  21:Core/Inc/ros/actuators/Vector4.h **** 
  22:Core/Inc/ros/actuators/Vector4.h ****     virtual int serialize(unsigned char *outbuffer) const override
 632              		.loc 6 22 17 is_stmt 1 view -0
 633              		.cfi_startproc
 634              		@ args = 0, pretend = 0, frame = 0
 635              		@ frame_needed = 0, uses_anonymous_args = 0
 636              		.loc 6 22 17 is_stmt 0 view .LVU154
 637 0000 10B5     		push	{r4, lr}
 638              	.LCFI0:
 639              		.cfi_def_cfa_offset 8
 640              		.cfi_offset 4, -8
 641              		.cfi_offset 14, -4
 642 0002 0446     		mov	r4, r0
  23:Core/Inc/ros/actuators/Vector4.h ****     {
  24:Core/Inc/ros/actuators/Vector4.h ****       int offset = 0;
 643              		.loc 6 24 7 is_stmt 1 view .LVU155
 644              	.LVL41:
  25:Core/Inc/ros/actuators/Vector4.h ****       for( uint32_t i = 0; i < 4; i++){
 645              		.loc 6 25 7 view .LVU156
 646              	.LBB180:
 647              		.loc 6 25 21 is_stmt 0 view .LVU157
 648 0004 0022     		movs	r2, #0
 649              	.LBE180:
  24:Core/Inc/ros/actuators/Vector4.h ****       for( uint32_t i = 0; i < 4; i++){
 650              		.loc 6 24 11 view .LVU158
 651 0006 1046     		mov	r0, r2
 652              	.LVL42:
  24:Core/Inc/ros/actuators/Vector4.h ****       for( uint32_t i = 0; i < 4; i++){
 653              		.loc 6 24 11 view .LVU159
 654 0008 16E0     		b	.L37
 655              	.LVL43:
 656              	.L39:
ARM GAS  /tmp/ccaSmKi1.s 			page 22


 657              	.LBB182:
 658              	.LBB181:
  26:Core/Inc/ros/actuators/Vector4.h ****       union {
 659              		.loc 6 26 7 is_stmt 1 discriminator 2 view .LVU160
  27:Core/Inc/ros/actuators/Vector4.h ****         float real;
  28:Core/Inc/ros/actuators/Vector4.h ****         uint32_t base;
  29:Core/Inc/ros/actuators/Vector4.h ****       } u_quadi;
  30:Core/Inc/ros/actuators/Vector4.h ****       u_quadi.real = this->quad[i];
 660              		.loc 6 30 7 discriminator 2 view .LVU161
 661              		.loc 6 30 34 is_stmt 0 discriminator 2 view .LVU162
 662 000a 04EB8203 		add	r3, r4, r2, lsl #2
  31:Core/Inc/ros/actuators/Vector4.h ****       *(outbuffer + offset + 0) = (u_quadi.base >> (8 * 0)) & 0xFF;
 663              		.loc 6 31 7 is_stmt 1 discriminator 2 view .LVU163
 664 000e 5B68     		ldr	r3, [r3, #4]
 665              		.loc 6 31 33 is_stmt 0 discriminator 2 view .LVU164
 666 0010 0B54     		strb	r3, [r1, r0]
  32:Core/Inc/ros/actuators/Vector4.h ****       *(outbuffer + offset + 1) = (u_quadi.base >> (8 * 1)) & 0xFF;
 667              		.loc 6 32 7 is_stmt 1 discriminator 2 view .LVU165
 668              		.loc 6 32 49 is_stmt 0 discriminator 2 view .LVU166
 669 0012 4FEA132E 		lsr	lr, r3, #8
 670              		.loc 6 32 28 discriminator 2 view .LVU167
 671 0016 00F1010C 		add	ip, r0, #1
 672              		.loc 6 32 33 discriminator 2 view .LVU168
 673 001a 01F80CE0 		strb	lr, [r1, ip]
  33:Core/Inc/ros/actuators/Vector4.h ****       *(outbuffer + offset + 2) = (u_quadi.base >> (8 * 2)) & 0xFF;
 674              		.loc 6 33 7 is_stmt 1 discriminator 2 view .LVU169
 675              		.loc 6 33 49 is_stmt 0 discriminator 2 view .LVU170
 676 001e 4FEA134E 		lsr	lr, r3, #16
 677              		.loc 6 33 28 discriminator 2 view .LVU171
 678 0022 00F1020C 		add	ip, r0, #2
 679              		.loc 6 33 33 discriminator 2 view .LVU172
 680 0026 01F80CE0 		strb	lr, [r1, ip]
  34:Core/Inc/ros/actuators/Vector4.h ****       *(outbuffer + offset + 3) = (u_quadi.base >> (8 * 3)) & 0xFF;
 681              		.loc 6 34 7 is_stmt 1 discriminator 2 view .LVU173
 682              		.loc 6 34 49 is_stmt 0 discriminator 2 view .LVU174
 683 002a 1B0E     		lsrs	r3, r3, #24
 684              		.loc 6 34 28 discriminator 2 view .LVU175
 685 002c 00F1030C 		add	ip, r0, #3
 686              		.loc 6 34 33 discriminator 2 view .LVU176
 687 0030 01F80C30 		strb	r3, [r1, ip]
  35:Core/Inc/ros/actuators/Vector4.h ****       offset += sizeof(this->quad[i]);
 688              		.loc 6 35 7 is_stmt 1 discriminator 2 view .LVU177
 689              		.loc 6 35 14 is_stmt 0 discriminator 2 view .LVU178
 690 0034 0430     		adds	r0, r0, #4
 691              	.LVL44:
 692              		.loc 6 35 14 discriminator 2 view .LVU179
 693              	.LBE181:
  25:Core/Inc/ros/actuators/Vector4.h ****       union {
 694              		.loc 6 25 7 is_stmt 1 discriminator 2 view .LVU180
 695 0036 0132     		adds	r2, r2, #1
 696              	.LVL45:
 697              	.L37:
  25:Core/Inc/ros/actuators/Vector4.h ****       union {
 698              		.loc 6 25 30 discriminator 3 view .LVU181
 699 0038 032A     		cmp	r2, #3
 700 003a E6D9     		bls	.L39
 701              	.LBE182:
ARM GAS  /tmp/ccaSmKi1.s 			page 23


  36:Core/Inc/ros/actuators/Vector4.h ****       }
  37:Core/Inc/ros/actuators/Vector4.h ****       return offset;
  38:Core/Inc/ros/actuators/Vector4.h ****     }
 702              		.loc 6 38 5 is_stmt 0 view .LVU182
 703 003c 10BD     		pop	{r4, pc}
 704              		.loc 6 38 5 view .LVU183
 705              		.cfi_endproc
 706              	.LFE530:
 708              		.section	.text._ZN9actuators7Vector411deserializeEPh,"axG",%progbits,_ZN9actuators7Vector411deseri
 709              		.align	1
 710              		.weak	_ZN9actuators7Vector411deserializeEPh
 711              		.syntax unified
 712              		.thumb
 713              		.thumb_func
 714              		.fpu fpv4-sp-d16
 716              	_ZN9actuators7Vector411deserializeEPh:
 717              	.LVL46:
 718              	.LFB531:
  39:Core/Inc/ros/actuators/Vector4.h **** 
  40:Core/Inc/ros/actuators/Vector4.h ****     virtual int deserialize(unsigned char *inbuffer) override
 719              		.loc 6 40 17 is_stmt 1 view -0
 720              		.cfi_startproc
 721              		@ args = 0, pretend = 0, frame = 0
 722              		@ frame_needed = 0, uses_anonymous_args = 0
 723              		.loc 6 40 17 is_stmt 0 view .LVU185
 724 0000 10B5     		push	{r4, lr}
 725              	.LCFI1:
 726              		.cfi_def_cfa_offset 8
 727              		.cfi_offset 4, -8
 728              		.cfi_offset 14, -4
 729 0002 0446     		mov	r4, r0
  41:Core/Inc/ros/actuators/Vector4.h ****     {
  42:Core/Inc/ros/actuators/Vector4.h ****       int offset = 0;
 730              		.loc 6 42 7 is_stmt 1 view .LVU186
 731              	.LVL47:
  43:Core/Inc/ros/actuators/Vector4.h ****       for( uint32_t i = 0; i < 4; i++){
 732              		.loc 6 43 7 view .LVU187
 733              	.LBB183:
 734              		.loc 6 43 21 is_stmt 0 view .LVU188
 735 0004 0022     		movs	r2, #0
 736              	.LBE183:
  42:Core/Inc/ros/actuators/Vector4.h ****       for( uint32_t i = 0; i < 4; i++){
 737              		.loc 6 42 11 view .LVU189
 738 0006 1046     		mov	r0, r2
 739              	.LVL48:
  42:Core/Inc/ros/actuators/Vector4.h ****       for( uint32_t i = 0; i < 4; i++){
 740              		.loc 6 42 11 view .LVU190
 741 0008 18E0     		b	.L42
 742              	.LVL49:
 743              	.L44:
 744              	.LBB185:
 745              	.LBB184:
  44:Core/Inc/ros/actuators/Vector4.h ****       union {
 746              		.loc 6 44 7 is_stmt 1 discriminator 2 view .LVU191
  45:Core/Inc/ros/actuators/Vector4.h ****         float real;
  46:Core/Inc/ros/actuators/Vector4.h ****         uint32_t base;
  47:Core/Inc/ros/actuators/Vector4.h ****       } u_quadi;
ARM GAS  /tmp/ccaSmKi1.s 			page 24


  48:Core/Inc/ros/actuators/Vector4.h ****       u_quadi.base = 0;
 747              		.loc 6 48 7 discriminator 2 view .LVU192
  49:Core/Inc/ros/actuators/Vector4.h ****       u_quadi.base |= ((uint32_t) (*(inbuffer + offset + 0))) << (8 * 0);
 748              		.loc 6 49 7 discriminator 2 view .LVU193
 749              		.loc 6 49 36 is_stmt 0 discriminator 2 view .LVU194
 750 000a 0B5C     		ldrb	r3, [r1, r0]	@ zero_extendqisi2
  50:Core/Inc/ros/actuators/Vector4.h ****       u_quadi.base |= ((uint32_t) (*(inbuffer + offset + 1))) << (8 * 1);
 751              		.loc 6 50 7 is_stmt 1 discriminator 2 view .LVU195
 752              		.loc 6 50 56 is_stmt 0 discriminator 2 view .LVU196
 753 000c 00F1010C 		add	ip, r0, #1
 754              		.loc 6 50 36 discriminator 2 view .LVU197
 755 0010 11F80CC0 		ldrb	ip, [r1, ip]	@ zero_extendqisi2
 756              		.loc 6 50 20 discriminator 2 view .LVU198
 757 0014 43EA0C23 		orr	r3, r3, ip, lsl #8
  51:Core/Inc/ros/actuators/Vector4.h ****       u_quadi.base |= ((uint32_t) (*(inbuffer + offset + 2))) << (8 * 2);
 758              		.loc 6 51 7 is_stmt 1 discriminator 2 view .LVU199
 759              		.loc 6 51 56 is_stmt 0 discriminator 2 view .LVU200
 760 0018 00F1020C 		add	ip, r0, #2
 761              		.loc 6 51 36 discriminator 2 view .LVU201
 762 001c 11F80CC0 		ldrb	ip, [r1, ip]	@ zero_extendqisi2
 763              		.loc 6 51 20 discriminator 2 view .LVU202
 764 0020 43EA0C43 		orr	r3, r3, ip, lsl #16
  52:Core/Inc/ros/actuators/Vector4.h ****       u_quadi.base |= ((uint32_t) (*(inbuffer + offset + 3))) << (8 * 3);
 765              		.loc 6 52 7 is_stmt 1 discriminator 2 view .LVU203
 766              		.loc 6 52 56 is_stmt 0 discriminator 2 view .LVU204
 767 0024 00F1030C 		add	ip, r0, #3
 768              		.loc 6 52 36 discriminator 2 view .LVU205
 769 0028 11F80CE0 		ldrb	lr, [r1, ip]	@ zero_extendqisi2
  53:Core/Inc/ros/actuators/Vector4.h ****       this->quad[i] = u_quadi.real;
 770              		.loc 6 53 7 is_stmt 1 discriminator 2 view .LVU206
 771              		.loc 6 53 21 is_stmt 0 discriminator 2 view .LVU207
 772 002c 04EB820C 		add	ip, r4, r2, lsl #2
 773 0030 43EA0E63 		orr	r3, r3, lr, lsl #24
 774 0034 CCF80430 		str	r3, [ip, #4]	@ float
  54:Core/Inc/ros/actuators/Vector4.h ****       offset += sizeof(this->quad[i]);
 775              		.loc 6 54 7 is_stmt 1 discriminator 2 view .LVU208
 776              		.loc 6 54 14 is_stmt 0 discriminator 2 view .LVU209
 777 0038 0430     		adds	r0, r0, #4
 778              	.LVL50:
 779              		.loc 6 54 14 discriminator 2 view .LVU210
 780              	.LBE184:
  43:Core/Inc/ros/actuators/Vector4.h ****       union {
 781              		.loc 6 43 7 is_stmt 1 discriminator 2 view .LVU211
 782 003a 0132     		adds	r2, r2, #1
 783              	.LVL51:
 784              	.L42:
  43:Core/Inc/ros/actuators/Vector4.h ****       union {
 785              		.loc 6 43 30 discriminator 3 view .LVU212
 786 003c 032A     		cmp	r2, #3
 787 003e E4D9     		bls	.L44
 788              	.LBE185:
  55:Core/Inc/ros/actuators/Vector4.h ****       }
  56:Core/Inc/ros/actuators/Vector4.h ****      return offset;
  57:Core/Inc/ros/actuators/Vector4.h ****     }
 789              		.loc 6 57 5 is_stmt 0 view .LVU213
 790 0040 10BD     		pop	{r4, pc}
 791              		.loc 6 57 5 view .LVU214
ARM GAS  /tmp/ccaSmKi1.s 			page 25


 792              		.cfi_endproc
 793              	.LFE531:
 795              		.section	.rodata._ZN9actuators7Vector47getTypeEv.str1.4,"aMS",%progbits,1
 796              		.align	2
 797              	.LC9:
 798 0000 61637475 		.ascii	"actuators/Vector4\000"
 798      61746F72 
 798      732F5665 
 798      63746F72 
 798      3400
 799              		.section	.text._ZN9actuators7Vector47getTypeEv,"axG",%progbits,_ZN9actuators7Vector47getTypeEv,com
 800              		.align	1
 801              		.weak	_ZN9actuators7Vector47getTypeEv
 802              		.syntax unified
 803              		.thumb
 804              		.thumb_func
 805              		.fpu fpv4-sp-d16
 807              	_ZN9actuators7Vector47getTypeEv:
 808              	.LVL52:
 809              	.LFB532:
  58:Core/Inc/ros/actuators/Vector4.h **** 
  59:Core/Inc/ros/actuators/Vector4.h ****     virtual const char * getType() override { return "actuators/Vector4"; };
 810              		.loc 6 59 26 is_stmt 1 view -0
 811              		.cfi_startproc
 812              		@ args = 0, pretend = 0, frame = 0
 813              		@ frame_needed = 0, uses_anonymous_args = 0
 814              		@ link register save eliminated.
 815              		.loc 6 59 47 view .LVU216
 816              		.loc 6 59 75 is_stmt 0 view .LVU217
 817 0000 0048     		ldr	r0, .L46
 818              	.LVL53:
 819              		.loc 6 59 75 view .LVU218
 820 0002 7047     		bx	lr
 821              	.L47:
 822              		.align	2
 823              	.L46:
 824 0004 00000000 		.word	.LC9
 825              		.cfi_endproc
 826              	.LFE532:
 828              		.section	.rodata._ZN9actuators7Vector46getMD5Ev.str1.4,"aMS",%progbits,1
 829              		.align	2
 830              	.LC10:
 831 0000 33393064 		.ascii	"390dd8b5493d1ef8649e084b0a6daa79\000"
 831      64386235 
 831      34393364 
 831      31656638 
 831      36343965 
 832              		.section	.text._ZN9actuators7Vector46getMD5Ev,"axG",%progbits,_ZN9actuators7Vector46getMD5Ev,comda
 833              		.align	1
 834              		.weak	_ZN9actuators7Vector46getMD5Ev
 835              		.syntax unified
 836              		.thumb
 837              		.thumb_func
 838              		.fpu fpv4-sp-d16
 840              	_ZN9actuators7Vector46getMD5Ev:
 841              	.LVL54:
 842              	.LFB533:
ARM GAS  /tmp/ccaSmKi1.s 			page 26


  60:Core/Inc/ros/actuators/Vector4.h ****     virtual const char * getMD5() override { return "390dd8b5493d1ef8649e084b0a6daa79"; };
 843              		.loc 6 60 26 is_stmt 1 view -0
 844              		.cfi_startproc
 845              		@ args = 0, pretend = 0, frame = 0
 846              		@ frame_needed = 0, uses_anonymous_args = 0
 847              		@ link register save eliminated.
 848              		.loc 6 60 46 view .LVU220
 849              		.loc 6 60 89 is_stmt 0 view .LVU221
 850 0000 0048     		ldr	r0, .L49
 851              	.LVL55:
 852              		.loc 6 60 89 view .LVU222
 853 0002 7047     		bx	lr
 854              	.L50:
 855              		.align	2
 856              	.L49:
 857 0004 00000000 		.word	.LC10
 858              		.cfi_endproc
 859              	.LFE533:
 861              		.section	.text._ZNK9actuators7Vector29serializeEPh,"axG",%progbits,_ZNK9actuators7Vector29serializ
 862              		.align	1
 863              		.weak	_ZNK9actuators7Vector29serializeEPh
 864              		.syntax unified
 865              		.thumb
 866              		.thumb_func
 867              		.fpu fpv4-sp-d16
 869              	_ZNK9actuators7Vector29serializeEPh:
 870              	.LVL56:
 871              	.LFB537:
 872              		.file 7 "Core/Inc/ros/actuators/Vector2.h"
   1:Core/Inc/ros/actuators/Vector2.h **** #ifndef _ROS_actuators_Vector2_h
   2:Core/Inc/ros/actuators/Vector2.h **** #define _ROS_actuators_Vector2_h
   3:Core/Inc/ros/actuators/Vector2.h **** 
   4:Core/Inc/ros/actuators/Vector2.h **** #include <stdint.h>
   5:Core/Inc/ros/actuators/Vector2.h **** #include <string.h>
   6:Core/Inc/ros/actuators/Vector2.h **** #include <stdlib.h>
   7:Core/Inc/ros/actuators/Vector2.h **** #include "ros/msg.h"
   8:Core/Inc/ros/actuators/Vector2.h **** 
   9:Core/Inc/ros/actuators/Vector2.h **** namespace actuators
  10:Core/Inc/ros/actuators/Vector2.h **** {
  11:Core/Inc/ros/actuators/Vector2.h **** 
  12:Core/Inc/ros/actuators/Vector2.h ****   class Vector2 : public ros::Msg
  13:Core/Inc/ros/actuators/Vector2.h ****   {
  14:Core/Inc/ros/actuators/Vector2.h ****     public:
  15:Core/Inc/ros/actuators/Vector2.h ****       float dual[2];
  16:Core/Inc/ros/actuators/Vector2.h **** 
  17:Core/Inc/ros/actuators/Vector2.h ****     Vector2():
  18:Core/Inc/ros/actuators/Vector2.h ****       dual()
  19:Core/Inc/ros/actuators/Vector2.h ****     {
  20:Core/Inc/ros/actuators/Vector2.h ****     }
  21:Core/Inc/ros/actuators/Vector2.h **** 
  22:Core/Inc/ros/actuators/Vector2.h ****     virtual int serialize(unsigned char *outbuffer) const override
 873              		.loc 7 22 17 is_stmt 1 view -0
 874              		.cfi_startproc
 875              		@ args = 0, pretend = 0, frame = 0
 876              		@ frame_needed = 0, uses_anonymous_args = 0
 877              		.loc 7 22 17 is_stmt 0 view .LVU224
 878 0000 8446     		mov	ip, r0
ARM GAS  /tmp/ccaSmKi1.s 			page 27


  23:Core/Inc/ros/actuators/Vector2.h ****     {
  24:Core/Inc/ros/actuators/Vector2.h ****       int offset = 0;
 879              		.loc 7 24 7 is_stmt 1 view .LVU225
 880              	.LVL57:
  25:Core/Inc/ros/actuators/Vector2.h ****       for( uint32_t i = 0; i < 2; i++){
 881              		.loc 7 25 7 view .LVU226
 882              	.LBB186:
 883              		.loc 7 25 21 is_stmt 0 view .LVU227
 884 0002 0022     		movs	r2, #0
 885              	.LBE186:
  24:Core/Inc/ros/actuators/Vector2.h ****       for( uint32_t i = 0; i < 2; i++){
 886              		.loc 7 24 11 view .LVU228
 887 0004 1046     		mov	r0, r2
 888              	.LVL58:
 889              	.LBB188:
 890              		.loc 7 25 30 is_stmt 1 view .LVU229
 891 0006 012A     		cmp	r2, #1
 892 0008 18D8     		bhi	.L59
 893              	.LBE188:
  22:Core/Inc/ros/actuators/Vector2.h ****     {
 894              		.loc 7 22 17 is_stmt 0 view .LVU230
 895 000a 10B5     		push	{r4, lr}
 896              	.LCFI2:
 897              		.cfi_def_cfa_offset 8
 898              		.cfi_offset 4, -8
 899              		.cfi_offset 14, -4
 900              	.LVL59:
 901              	.L57:
 902              	.LBB189:
 903              	.LBB187:
  26:Core/Inc/ros/actuators/Vector2.h ****       union {
 904              		.loc 7 26 7 is_stmt 1 discriminator 2 view .LVU231
  27:Core/Inc/ros/actuators/Vector2.h ****         float real;
  28:Core/Inc/ros/actuators/Vector2.h ****         uint32_t base;
  29:Core/Inc/ros/actuators/Vector2.h ****       } u_duali;
  30:Core/Inc/ros/actuators/Vector2.h ****       u_duali.real = this->dual[i];
 905              		.loc 7 30 7 discriminator 2 view .LVU232
 906              		.loc 7 30 34 is_stmt 0 discriminator 2 view .LVU233
 907 000c 0CEB8203 		add	r3, ip, r2, lsl #2
  31:Core/Inc/ros/actuators/Vector2.h ****       *(outbuffer + offset + 0) = (u_duali.base >> (8 * 0)) & 0xFF;
 908              		.loc 7 31 7 is_stmt 1 discriminator 2 view .LVU234
 909 0010 5B68     		ldr	r3, [r3, #4]
 910              		.loc 7 31 33 is_stmt 0 discriminator 2 view .LVU235
 911 0012 0B54     		strb	r3, [r1, r0]
  32:Core/Inc/ros/actuators/Vector2.h ****       *(outbuffer + offset + 1) = (u_duali.base >> (8 * 1)) & 0xFF;
 912              		.loc 7 32 7 is_stmt 1 discriminator 2 view .LVU236
 913              		.loc 7 32 49 is_stmt 0 discriminator 2 view .LVU237
 914 0014 4FEA132E 		lsr	lr, r3, #8
 915              		.loc 7 32 28 discriminator 2 view .LVU238
 916 0018 441C     		adds	r4, r0, #1
 917              		.loc 7 32 33 discriminator 2 view .LVU239
 918 001a 01F804E0 		strb	lr, [r1, r4]
  33:Core/Inc/ros/actuators/Vector2.h ****       *(outbuffer + offset + 2) = (u_duali.base >> (8 * 2)) & 0xFF;
 919              		.loc 7 33 7 is_stmt 1 discriminator 2 view .LVU240
 920              		.loc 7 33 49 is_stmt 0 discriminator 2 view .LVU241
 921 001e 1C0C     		lsrs	r4, r3, #16
 922              		.loc 7 33 28 discriminator 2 view .LVU242
ARM GAS  /tmp/ccaSmKi1.s 			page 28


 923 0020 00F1020E 		add	lr, r0, #2
 924              		.loc 7 33 33 discriminator 2 view .LVU243
 925 0024 01F80E40 		strb	r4, [r1, lr]
  34:Core/Inc/ros/actuators/Vector2.h ****       *(outbuffer + offset + 3) = (u_duali.base >> (8 * 3)) & 0xFF;
 926              		.loc 7 34 7 is_stmt 1 discriminator 2 view .LVU244
 927              		.loc 7 34 49 is_stmt 0 discriminator 2 view .LVU245
 928 0028 1B0E     		lsrs	r3, r3, #24
 929              		.loc 7 34 28 discriminator 2 view .LVU246
 930 002a 00F1030E 		add	lr, r0, #3
 931              		.loc 7 34 33 discriminator 2 view .LVU247
 932 002e 01F80E30 		strb	r3, [r1, lr]
  35:Core/Inc/ros/actuators/Vector2.h ****       offset += sizeof(this->dual[i]);
 933              		.loc 7 35 7 is_stmt 1 discriminator 2 view .LVU248
 934              		.loc 7 35 14 is_stmt 0 discriminator 2 view .LVU249
 935 0032 0430     		adds	r0, r0, #4
 936              	.LVL60:
 937              		.loc 7 35 14 discriminator 2 view .LVU250
 938              	.LBE187:
  25:Core/Inc/ros/actuators/Vector2.h ****       union {
 939              		.loc 7 25 7 is_stmt 1 discriminator 2 view .LVU251
 940 0034 0132     		adds	r2, r2, #1
 941              	.LVL61:
  25:Core/Inc/ros/actuators/Vector2.h ****       union {
 942              		.loc 7 25 30 discriminator 2 view .LVU252
 943 0036 012A     		cmp	r2, #1
 944 0038 E8D9     		bls	.L57
 945              	.LBE189:
  36:Core/Inc/ros/actuators/Vector2.h ****       }
  37:Core/Inc/ros/actuators/Vector2.h ****       return offset;
  38:Core/Inc/ros/actuators/Vector2.h ****     }
 946              		.loc 7 38 5 is_stmt 0 view .LVU253
 947 003a 10BD     		pop	{r4, pc}
 948              	.LVL62:
 949              	.L59:
 950              	.LCFI3:
 951              		.cfi_def_cfa_offset 0
 952              		.cfi_restore 4
 953              		.cfi_restore 14
 954              		.loc 7 38 5 view .LVU254
 955 003c 7047     		bx	lr
 956              		.cfi_endproc
 957              	.LFE537:
 959              		.section	.text._ZN9actuators7Vector211deserializeEPh,"axG",%progbits,_ZN9actuators7Vector211deseri
 960              		.align	1
 961              		.weak	_ZN9actuators7Vector211deserializeEPh
 962              		.syntax unified
 963              		.thumb
 964              		.thumb_func
 965              		.fpu fpv4-sp-d16
 967              	_ZN9actuators7Vector211deserializeEPh:
 968              	.LVL63:
 969              	.LFB538:
  39:Core/Inc/ros/actuators/Vector2.h **** 
  40:Core/Inc/ros/actuators/Vector2.h ****     virtual int deserialize(unsigned char *inbuffer) override
 970              		.loc 7 40 17 is_stmt 1 view -0
 971              		.cfi_startproc
 972              		@ args = 0, pretend = 0, frame = 0
ARM GAS  /tmp/ccaSmKi1.s 			page 29


 973              		@ frame_needed = 0, uses_anonymous_args = 0
 974              		.loc 7 40 17 is_stmt 0 view .LVU256
 975 0000 8446     		mov	ip, r0
  41:Core/Inc/ros/actuators/Vector2.h ****     {
  42:Core/Inc/ros/actuators/Vector2.h ****       int offset = 0;
 976              		.loc 7 42 7 is_stmt 1 view .LVU257
 977              	.LVL64:
  43:Core/Inc/ros/actuators/Vector2.h ****       for( uint32_t i = 0; i < 2; i++){
 978              		.loc 7 43 7 view .LVU258
 979              	.LBB190:
 980              		.loc 7 43 21 is_stmt 0 view .LVU259
 981 0002 0022     		movs	r2, #0
 982              	.LBE190:
  42:Core/Inc/ros/actuators/Vector2.h ****       for( uint32_t i = 0; i < 2; i++){
 983              		.loc 7 42 11 view .LVU260
 984 0004 1046     		mov	r0, r2
 985              	.LVL65:
 986              	.LBB192:
 987              		.loc 7 43 30 is_stmt 1 view .LVU261
 988 0006 012A     		cmp	r2, #1
 989 0008 16D8     		bhi	.L68
 990              	.LBE192:
  40:Core/Inc/ros/actuators/Vector2.h ****     {
 991              		.loc 7 40 17 is_stmt 0 view .LVU262
 992 000a 10B5     		push	{r4, lr}
 993              	.LCFI4:
 994              		.cfi_def_cfa_offset 8
 995              		.cfi_offset 4, -8
 996              		.cfi_offset 14, -4
 997              	.LVL66:
 998              	.L66:
 999              	.LBB193:
 1000              	.LBB191:
  44:Core/Inc/ros/actuators/Vector2.h ****       union {
 1001              		.loc 7 44 7 is_stmt 1 discriminator 2 view .LVU263
  45:Core/Inc/ros/actuators/Vector2.h ****         float real;
  46:Core/Inc/ros/actuators/Vector2.h ****         uint32_t base;
  47:Core/Inc/ros/actuators/Vector2.h ****       } u_duali;
  48:Core/Inc/ros/actuators/Vector2.h ****       u_duali.base = 0;
 1002              		.loc 7 48 7 discriminator 2 view .LVU264
  49:Core/Inc/ros/actuators/Vector2.h ****       u_duali.base |= ((uint32_t) (*(inbuffer + offset + 0))) << (8 * 0);
 1003              		.loc 7 49 7 discriminator 2 view .LVU265
 1004              		.loc 7 49 36 is_stmt 0 discriminator 2 view .LVU266
 1005 000c 0B5C     		ldrb	r3, [r1, r0]	@ zero_extendqisi2
  50:Core/Inc/ros/actuators/Vector2.h ****       u_duali.base |= ((uint32_t) (*(inbuffer + offset + 1))) << (8 * 1);
 1006              		.loc 7 50 7 is_stmt 1 discriminator 2 view .LVU267
 1007              		.loc 7 50 56 is_stmt 0 discriminator 2 view .LVU268
 1008 000e 441C     		adds	r4, r0, #1
 1009              		.loc 7 50 36 discriminator 2 view .LVU269
 1010 0010 0C5D     		ldrb	r4, [r1, r4]	@ zero_extendqisi2
 1011              		.loc 7 50 20 discriminator 2 view .LVU270
 1012 0012 43EA0423 		orr	r3, r3, r4, lsl #8
  51:Core/Inc/ros/actuators/Vector2.h ****       u_duali.base |= ((uint32_t) (*(inbuffer + offset + 2))) << (8 * 2);
 1013              		.loc 7 51 7 is_stmt 1 discriminator 2 view .LVU271
 1014              		.loc 7 51 56 is_stmt 0 discriminator 2 view .LVU272
 1015 0016 841C     		adds	r4, r0, #2
 1016              		.loc 7 51 36 discriminator 2 view .LVU273
ARM GAS  /tmp/ccaSmKi1.s 			page 30


 1017 0018 0C5D     		ldrb	r4, [r1, r4]	@ zero_extendqisi2
 1018              		.loc 7 51 20 discriminator 2 view .LVU274
 1019 001a 43EA0443 		orr	r3, r3, r4, lsl #16
  52:Core/Inc/ros/actuators/Vector2.h ****       u_duali.base |= ((uint32_t) (*(inbuffer + offset + 3))) << (8 * 3);
 1020              		.loc 7 52 7 is_stmt 1 discriminator 2 view .LVU275
 1021              		.loc 7 52 56 is_stmt 0 discriminator 2 view .LVU276
 1022 001e C41C     		adds	r4, r0, #3
 1023              		.loc 7 52 36 discriminator 2 view .LVU277
 1024 0020 0C5D     		ldrb	r4, [r1, r4]	@ zero_extendqisi2
  53:Core/Inc/ros/actuators/Vector2.h ****       this->dual[i] = u_duali.real;
 1025              		.loc 7 53 7 is_stmt 1 discriminator 2 view .LVU278
 1026              		.loc 7 53 21 is_stmt 0 discriminator 2 view .LVU279
 1027 0022 0CEB820E 		add	lr, ip, r2, lsl #2
 1028 0026 43EA0463 		orr	r3, r3, r4, lsl #24
 1029 002a CEF80430 		str	r3, [lr, #4]	@ float
  54:Core/Inc/ros/actuators/Vector2.h ****       offset += sizeof(this->dual[i]);
 1030              		.loc 7 54 7 is_stmt 1 discriminator 2 view .LVU280
 1031              		.loc 7 54 14 is_stmt 0 discriminator 2 view .LVU281
 1032 002e 0430     		adds	r0, r0, #4
 1033              	.LVL67:
 1034              		.loc 7 54 14 discriminator 2 view .LVU282
 1035              	.LBE191:
  43:Core/Inc/ros/actuators/Vector2.h ****       union {
 1036              		.loc 7 43 7 is_stmt 1 discriminator 2 view .LVU283
 1037 0030 0132     		adds	r2, r2, #1
 1038              	.LVL68:
  43:Core/Inc/ros/actuators/Vector2.h ****       union {
 1039              		.loc 7 43 30 discriminator 2 view .LVU284
 1040 0032 012A     		cmp	r2, #1
 1041 0034 EAD9     		bls	.L66
 1042              	.LBE193:
  55:Core/Inc/ros/actuators/Vector2.h ****       }
  56:Core/Inc/ros/actuators/Vector2.h ****      return offset;
  57:Core/Inc/ros/actuators/Vector2.h ****     }
 1043              		.loc 7 57 5 is_stmt 0 view .LVU285
 1044 0036 10BD     		pop	{r4, pc}
 1045              	.LVL69:
 1046              	.L68:
 1047              	.LCFI5:
 1048              		.cfi_def_cfa_offset 0
 1049              		.cfi_restore 4
 1050              		.cfi_restore 14
 1051              		.loc 7 57 5 view .LVU286
 1052 0038 7047     		bx	lr
 1053              		.cfi_endproc
 1054              	.LFE538:
 1056              		.section	.rodata._ZN9actuators7Vector27getTypeEv.str1.4,"aMS",%progbits,1
 1057              		.align	2
 1058              	.LC11:
 1059 0000 61637475 		.ascii	"actuators/Vector2\000"
 1059      61746F72 
 1059      732F5665 
 1059      63746F72 
 1059      3200
 1060              		.section	.text._ZN9actuators7Vector27getTypeEv,"axG",%progbits,_ZN9actuators7Vector27getTypeEv,com
 1061              		.align	1
 1062              		.weak	_ZN9actuators7Vector27getTypeEv
ARM GAS  /tmp/ccaSmKi1.s 			page 31


 1063              		.syntax unified
 1064              		.thumb
 1065              		.thumb_func
 1066              		.fpu fpv4-sp-d16
 1068              	_ZN9actuators7Vector27getTypeEv:
 1069              	.LVL70:
 1070              	.LFB539:
  58:Core/Inc/ros/actuators/Vector2.h **** 
  59:Core/Inc/ros/actuators/Vector2.h ****     virtual const char * getType() override { return "actuators/Vector2"; };
 1071              		.loc 7 59 26 is_stmt 1 view -0
 1072              		.cfi_startproc
 1073              		@ args = 0, pretend = 0, frame = 0
 1074              		@ frame_needed = 0, uses_anonymous_args = 0
 1075              		@ link register save eliminated.
 1076              		.loc 7 59 47 view .LVU288
 1077              		.loc 7 59 75 is_stmt 0 view .LVU289
 1078 0000 0048     		ldr	r0, .L70
 1079              	.LVL71:
 1080              		.loc 7 59 75 view .LVU290
 1081 0002 7047     		bx	lr
 1082              	.L71:
 1083              		.align	2
 1084              	.L70:
 1085 0004 00000000 		.word	.LC11
 1086              		.cfi_endproc
 1087              	.LFE539:
 1089              		.section	.rodata._ZN9actuators7Vector26getMD5Ev.str1.4,"aMS",%progbits,1
 1090              		.align	2
 1091              	.LC12:
 1092 0000 64633666 		.ascii	"dc6fc6947e0b42110f3e03b6150ecb68\000"
 1092      63363934 
 1092      37653062 
 1092      34323131 
 1092      30663365 
 1093              		.section	.text._ZN9actuators7Vector26getMD5Ev,"axG",%progbits,_ZN9actuators7Vector26getMD5Ev,comda
 1094              		.align	1
 1095              		.weak	_ZN9actuators7Vector26getMD5Ev
 1096              		.syntax unified
 1097              		.thumb
 1098              		.thumb_func
 1099              		.fpu fpv4-sp-d16
 1101              	_ZN9actuators7Vector26getMD5Ev:
 1102              	.LVL72:
 1103              	.LFB540:
  60:Core/Inc/ros/actuators/Vector2.h ****     virtual const char * getMD5() override { return "dc6fc6947e0b42110f3e03b6150ecb68"; };
 1104              		.loc 7 60 26 is_stmt 1 view -0
 1105              		.cfi_startproc
 1106              		@ args = 0, pretend = 0, frame = 0
 1107              		@ frame_needed = 0, uses_anonymous_args = 0
 1108              		@ link register save eliminated.
 1109              		.loc 7 60 46 view .LVU292
 1110              		.loc 7 60 89 is_stmt 0 view .LVU293
 1111 0000 0048     		ldr	r0, .L73
 1112              	.LVL73:
 1113              		.loc 7 60 89 view .LVU294
 1114 0002 7047     		bx	lr
 1115              	.L74:
ARM GAS  /tmp/ccaSmKi1.s 			page 32


 1116              		.align	2
 1117              	.L73:
 1118 0004 00000000 		.word	.LC12
 1119              		.cfi_endproc
 1120              	.LFE540:
 1122              		.section	.rodata._Z41__static_initialization_and_destruction_0ii.str1.4,"aMS",%progbits,1
 1123              		.align	2
 1124              	.LC13:
 1125 0000 656E636F 		.ascii	"encoder_base_count\000"
 1125      6465725F 
 1125      62617365 
 1125      5F636F75 
 1125      6E7400
 1126 0013 00       		.align	2
 1127              	.LC14:
 1128 0014 66726565 		.ascii	"free_wheel_distance\000"
 1128      5F776865 
 1128      656C5F64 
 1128      69737461 
 1128      6E636500 
 1129              		.align	2
 1130              	.LC15:
 1131 0028 6D6F746F 		.ascii	"motor_base\000"
 1131      725F6261 
 1131      736500
 1132              		.section	.text._Z41__static_initialization_and_destruction_0ii,"ax",%progbits
 1133              		.align	1
 1134              		.syntax unified
 1135              		.thumb
 1136              		.thumb_func
 1137              		.fpu fpv4-sp-d16
 1139              	_Z41__static_initialization_and_destruction_0ii:
 1140              	.LVL74:
 1141              	.LFB578:
 1142              		.file 8 "Core/Src/operation.cpp"
   1:Core/Src/operation.cpp **** #include"robo_init.h"
   2:Core/Src/operation.cpp **** #include"operation.h"
   3:Core/Src/operation.cpp **** #include<ros.h>
   4:Core/Src/operation.cpp **** #include"actuators/Vector4.h"
   5:Core/Src/operation.cpp **** #include"actuators/motor_driver_param.h"
   6:Core/Src/operation.cpp **** #include"actuators/Vector2.h"
   7:Core/Src/operation.cpp **** ros::NodeHandle nh;
   8:Core/Src/operation.cpp **** actuators::Vector4 encoder_count;
   9:Core/Src/operation.cpp **** actuators::Vector2 free_wheel_e;
  10:Core/Src/operation.cpp **** extern motor motor_[4];
  11:Core/Src/operation.cpp **** extern encoder encoder_[4];
  12:Core/Src/operation.cpp **** extern free_wheel ex;
  13:Core/Src/operation.cpp **** extern free_wheel ey;
  14:Core/Src/operation.cpp **** void HAL_UART_TxCpltCallback(UART_HandleTypeDef *huart){
  15:Core/Src/operation.cpp ****   nh.getHardware()->flush();
  16:Core/Src/operation.cpp **** }
  17:Core/Src/operation.cpp **** 
  18:Core/Src/operation.cpp **** void HAL_UART_RxCpltCallback(UART_HandleTypeDef *huart){
  19:Core/Src/operation.cpp ****   nh.getHardware()->reset_rbuf();
  20:Core/Src/operation.cpp **** }
  21:Core/Src/operation.cpp **** ros::Publisher pub1("encoder_base_count", &encoder_count);
  22:Core/Src/operation.cpp **** ros::Publisher pub2("free_wheel_distance", &free_wheel_e);
ARM GAS  /tmp/ccaSmKi1.s 			page 33


  23:Core/Src/operation.cpp **** void motor_base_callback(const actuators::motor_driver_param& msg)
  24:Core/Src/operation.cpp **** {
  25:Core/Src/operation.cpp ****   motor_[msg.id].set_motorParam(msg);
  26:Core/Src/operation.cpp ****   //  if(msg.id==0){  
  27:Core/Src/operation.cpp ****   //     printf("d1 %d\n",msg.dir1);
  28:Core/Src/operation.cpp ****   //  printf("d2 %d\n",msg.dir2);
  29:Core/Src/operation.cpp ****   //  printf("pwm %d\n", msg.pwm);
  30:Core/Src/operation.cpp ****   //  }
  31:Core/Src/operation.cpp **** }
  32:Core/Src/operation.cpp **** ros::Subscriber<actuators::motor_driver_param> sub("motor_base",motor_base_callback);
  33:Core/Src/operation.cpp **** void init()
  34:Core/Src/operation.cpp **** {
  35:Core/Src/operation.cpp ****   
  36:Core/Src/operation.cpp ****  robo_init();
  37:Core/Src/operation.cpp ****  nh.initNode();
  38:Core/Src/operation.cpp ****  nh.advertise(pub1);
  39:Core/Src/operation.cpp ****  nh.advertise(pub2);
  40:Core/Src/operation.cpp ****  nh.subscribe(sub);
  41:Core/Src/operation.cpp **** }
  42:Core/Src/operation.cpp **** void run()
  43:Core/Src/operation.cpp **** {
  44:Core/Src/operation.cpp ****  for(int i=0;i<4;i++)
  45:Core/Src/operation.cpp ****  {
  46:Core/Src/operation.cpp ****   encoder_count.quad[i]=encoder_[i].get_count();
  47:Core/Src/operation.cpp ****  }
  48:Core/Src/operation.cpp ****   free_wheel_e.dual[0]=ex.get_distance();
  49:Core/Src/operation.cpp ****   free_wheel_e.dual[1]=ey.get_distance();
  50:Core/Src/operation.cpp ****   pub1.publish(&encoder_count);
  51:Core/Src/operation.cpp ****   pub2.publish(&free_wheel_e);
  52:Core/Src/operation.cpp ****   nh.spinOnce();
  53:Core/Src/operation.cpp ****   HAL_Delay(10);
  54:Core/Src/operation.cpp **** }...
 1143              		.loc 8 54 1 is_stmt 1 view -0
 1144              		.cfi_startproc
 1145              		@ args = 0, pretend = 0, frame = 0
 1146              		@ frame_needed = 0, uses_anonymous_args = 0
 1147              		.loc 8 54 1 is_stmt 0 view .LVU296
 1148 0000 0128     		cmp	r0, #1
 1149 0002 00D0     		beq	.L85
 1150 0004 7047     		bx	lr
 1151              	.L85:
 1152              		.loc 8 54 1 discriminator 1 view .LVU297
 1153 0006 F8B5     		push	{r3, r4, r5, r6, r7, lr}
 1154              	.LCFI6:
 1155              		.cfi_def_cfa_offset 24
 1156              		.cfi_offset 3, -24
 1157              		.cfi_offset 4, -20
 1158              		.cfi_offset 5, -16
 1159              		.cfi_offset 6, -12
 1160              		.cfi_offset 7, -8
 1161              		.cfi_offset 14, -4
 1162 0008 0446     		mov	r4, r0
 1163              		.loc 8 54 1 discriminator 1 view .LVU298
 1164 000a 4FF6FF73 		movw	r3, #65535
 1165 000e 9942     		cmp	r1, r3
 1166 0010 00D0     		beq	.L86
 1167              	.LVL75:
ARM GAS  /tmp/ccaSmKi1.s 			page 34


 1168              	.L75:
 1169              		.loc 8 54 1 view .LVU299
 1170 0012 F8BD     		pop	{r3, r4, r5, r6, r7, pc}
 1171              	.LVL76:
 1172              	.L86:
 1173              	.LBB233:
 1174              	.LBI233:
 1175              		.file 9 "Core/Inc/ros/ros/node_handle.h"
   1:Core/Inc/ros/ros/node_handle.h **** /*
   2:Core/Inc/ros/ros/node_handle.h ****  * Software License Agreement (BSD License)
   3:Core/Inc/ros/ros/node_handle.h ****  *
   4:Core/Inc/ros/ros/node_handle.h ****  * Copyright (c) 2011, Willow Garage, Inc.
   5:Core/Inc/ros/ros/node_handle.h ****  * All rights reserved.
   6:Core/Inc/ros/ros/node_handle.h ****  *
   7:Core/Inc/ros/ros/node_handle.h ****  * Redistribution and use in source and binary forms, with or without
   8:Core/Inc/ros/ros/node_handle.h ****  * modification, are permitted provided that the following conditions
   9:Core/Inc/ros/ros/node_handle.h ****  * are met:
  10:Core/Inc/ros/ros/node_handle.h ****  *
  11:Core/Inc/ros/ros/node_handle.h ****  *  * Redistributions of source code must retain the above copyright
  12:Core/Inc/ros/ros/node_handle.h ****  *    notice, this list of conditions and the following disclaimer.
  13:Core/Inc/ros/ros/node_handle.h ****  *  * Redistributions in binary form must reproduce the above
  14:Core/Inc/ros/ros/node_handle.h ****  *    copyright notice, this list of conditions and the following
  15:Core/Inc/ros/ros/node_handle.h ****  *    disclaimer in the documentation and/or other materials provided
  16:Core/Inc/ros/ros/node_handle.h ****  *    with the distribution.
  17:Core/Inc/ros/ros/node_handle.h ****  *  * Neither the name of Willow Garage, Inc. nor the names of its
  18:Core/Inc/ros/ros/node_handle.h ****  *    contributors may be used to endorse or promote prducts derived
  19:Core/Inc/ros/ros/node_handle.h ****  *    from this software without specific prior written permission.
  20:Core/Inc/ros/ros/node_handle.h ****  *
  21:Core/Inc/ros/ros/node_handle.h ****  * THIS SOFTWARE IS PROVIDED BY THE COPYRIGHT HOLDERS AND CONTRIBUTORS
  22:Core/Inc/ros/ros/node_handle.h ****  * "AS IS" AND ANY EXPRESS OR IMPLIED WARRANTIES, INCLUDING, BUT NOT
  23:Core/Inc/ros/ros/node_handle.h ****  * LIMITED TO, THE IMPLIED WARRANTIES OF MERCHANTABILITY AND FITNESS
  24:Core/Inc/ros/ros/node_handle.h ****  * FOR A PARTICULAR PURPOSE ARE DISCLAIMED. IN NO EVENT SHALL THE
  25:Core/Inc/ros/ros/node_handle.h ****  * COPYRIGHT OWNER OR CONTRIBUTORS BE LIABLE FOR ANY DIRECT, INDIRECT,
  26:Core/Inc/ros/ros/node_handle.h ****  * INCIDENTAL, SPECIAL, EXEMPLARY, OR CONSEQUENTIAL DAMAGES (INCLUDING,
  27:Core/Inc/ros/ros/node_handle.h ****  * BUT NOT LIMITED TO, PROCUREMENT OF SUBSTITUTE GOODS OR SERVICES;
  28:Core/Inc/ros/ros/node_handle.h ****  * LOSS OF USE, DATA, OR PROFITS; OR BUSINESS INTERRUPTION) HOWEVER
  29:Core/Inc/ros/ros/node_handle.h ****  * CAUSED AND ON ANY THEORY OF LIABILITY, WHETHER IN CONTRACT, STRICT
  30:Core/Inc/ros/ros/node_handle.h ****  * LIABILITY, OR TORT (INCLUDING NEGLIGENCE OR OTHERWISE) ARISING IN
  31:Core/Inc/ros/ros/node_handle.h ****  * ANY WAY OUT OF THE USE OF THIS SOFTWARE, EVEN IF ADVISED OF THE
  32:Core/Inc/ros/ros/node_handle.h ****  * POSSIBILITY OF SUCH DAMAGE.
  33:Core/Inc/ros/ros/node_handle.h ****  */
  34:Core/Inc/ros/ros/node_handle.h **** 
  35:Core/Inc/ros/ros/node_handle.h **** #ifndef ROS_NODE_HANDLE_H_
  36:Core/Inc/ros/ros/node_handle.h **** #define ROS_NODE_HANDLE_H_
  37:Core/Inc/ros/ros/node_handle.h **** 
  38:Core/Inc/ros/ros/node_handle.h **** #include <stdint.h>
  39:Core/Inc/ros/ros/node_handle.h **** 
  40:Core/Inc/ros/ros/node_handle.h **** #include "std_msgs/Time.h"
  41:Core/Inc/ros/ros/node_handle.h **** #include "rosserial_msgs/TopicInfo.h"
  42:Core/Inc/ros/ros/node_handle.h **** #include "rosserial_msgs/Log.h"
  43:Core/Inc/ros/ros/node_handle.h **** #include "rosserial_msgs/RequestParam.h"
  44:Core/Inc/ros/ros/node_handle.h **** 
  45:Core/Inc/ros/ros/node_handle.h **** #include "ros/msg.h"
  46:Core/Inc/ros/ros/node_handle.h **** 
  47:Core/Inc/ros/ros/node_handle.h **** namespace ros
  48:Core/Inc/ros/ros/node_handle.h **** {
  49:Core/Inc/ros/ros/node_handle.h **** 
ARM GAS  /tmp/ccaSmKi1.s 			page 35


  50:Core/Inc/ros/ros/node_handle.h **** class NodeHandleBase_
  51:Core/Inc/ros/ros/node_handle.h **** {
  52:Core/Inc/ros/ros/node_handle.h **** public:
  53:Core/Inc/ros/ros/node_handle.h ****   virtual int publish(int id, const Msg* msg) = 0;
  54:Core/Inc/ros/ros/node_handle.h ****   virtual int spinOnce() = 0;
  55:Core/Inc/ros/ros/node_handle.h ****   virtual bool connected() = 0;
  56:Core/Inc/ros/ros/node_handle.h **** };
  57:Core/Inc/ros/ros/node_handle.h **** }
  58:Core/Inc/ros/ros/node_handle.h **** 
  59:Core/Inc/ros/ros/node_handle.h **** #include "ros/publisher.h"
  60:Core/Inc/ros/ros/node_handle.h **** #include "ros/subscriber.h"
  61:Core/Inc/ros/ros/node_handle.h **** #include "ros/service_server.h"
  62:Core/Inc/ros/ros/node_handle.h **** #include "ros/service_client.h"
  63:Core/Inc/ros/ros/node_handle.h **** 
  64:Core/Inc/ros/ros/node_handle.h **** namespace ros
  65:Core/Inc/ros/ros/node_handle.h **** {
  66:Core/Inc/ros/ros/node_handle.h **** 
  67:Core/Inc/ros/ros/node_handle.h **** const int SPIN_OK = 0;
  68:Core/Inc/ros/ros/node_handle.h **** const int SPIN_ERR = -1;
  69:Core/Inc/ros/ros/node_handle.h **** const int SPIN_TIMEOUT = -2;
  70:Core/Inc/ros/ros/node_handle.h **** 
  71:Core/Inc/ros/ros/node_handle.h **** const uint8_t SYNC_SECONDS  = 5;
  72:Core/Inc/ros/ros/node_handle.h **** const uint8_t MODE_FIRST_FF = 0;
  73:Core/Inc/ros/ros/node_handle.h **** /*
  74:Core/Inc/ros/ros/node_handle.h ****  * The second sync byte is a protocol version. It's value is 0xff for the first
  75:Core/Inc/ros/ros/node_handle.h ****  * version of the rosserial protocol (used up to hydro), 0xfe for the second version
  76:Core/Inc/ros/ros/node_handle.h ****  * (introduced in hydro), 0xfd for the next, and so on. Its purpose is to enable
  77:Core/Inc/ros/ros/node_handle.h ****  * detection of mismatched protocol versions (e.g. hydro rosserial_python with groovy
  78:Core/Inc/ros/ros/node_handle.h ****  * rosserial_arduino. It must be changed in both this file and in
  79:Core/Inc/ros/ros/node_handle.h ****  * rosserial_python/src/rosserial_python/SerialClient.py
  80:Core/Inc/ros/ros/node_handle.h ****  */
  81:Core/Inc/ros/ros/node_handle.h **** const uint8_t MODE_PROTOCOL_VER   = 1;
  82:Core/Inc/ros/ros/node_handle.h **** const uint8_t PROTOCOL_VER1       = 0xff; // through groovy
  83:Core/Inc/ros/ros/node_handle.h **** const uint8_t PROTOCOL_VER2       = 0xfe; // in hydro
  84:Core/Inc/ros/ros/node_handle.h **** const uint8_t PROTOCOL_VER        = PROTOCOL_VER2;
  85:Core/Inc/ros/ros/node_handle.h **** const uint8_t MODE_SIZE_L         = 2;
  86:Core/Inc/ros/ros/node_handle.h **** const uint8_t MODE_SIZE_H         = 3;
  87:Core/Inc/ros/ros/node_handle.h **** const uint8_t MODE_SIZE_CHECKSUM  = 4;    // checksum for msg size received from size L and H
  88:Core/Inc/ros/ros/node_handle.h **** const uint8_t MODE_TOPIC_L        = 5;    // waiting for topic id
  89:Core/Inc/ros/ros/node_handle.h **** const uint8_t MODE_TOPIC_H        = 6;
  90:Core/Inc/ros/ros/node_handle.h **** const uint8_t MODE_MESSAGE        = 7;
  91:Core/Inc/ros/ros/node_handle.h **** const uint8_t MODE_MSG_CHECKSUM   = 8;    // checksum for msg and topic id
  92:Core/Inc/ros/ros/node_handle.h **** 
  93:Core/Inc/ros/ros/node_handle.h **** 
  94:Core/Inc/ros/ros/node_handle.h **** const uint8_t SERIAL_MSG_TIMEOUT  = 20;   // 20 milliseconds to recieve all of message data
  95:Core/Inc/ros/ros/node_handle.h **** 
  96:Core/Inc/ros/ros/node_handle.h **** using rosserial_msgs::TopicInfo;
  97:Core/Inc/ros/ros/node_handle.h **** 
  98:Core/Inc/ros/ros/node_handle.h **** /* Node Handle */
  99:Core/Inc/ros/ros/node_handle.h **** template<class Hardware,
 100:Core/Inc/ros/ros/node_handle.h ****          int MAX_SUBSCRIBERS = 25,
 101:Core/Inc/ros/ros/node_handle.h ****          int MAX_PUBLISHERS = 25,
 102:Core/Inc/ros/ros/node_handle.h ****          int INPUT_SIZE = 512,
 103:Core/Inc/ros/ros/node_handle.h ****          int OUTPUT_SIZE = 512>
 104:Core/Inc/ros/ros/node_handle.h **** class NodeHandle_ : public NodeHandleBase_
 1176              		.loc 9 104 7 is_stmt 1 view .LVU300
 1177              	.LBB234:
ARM GAS  /tmp/ccaSmKi1.s 			page 36


 1178              	.LBB235:
 1179              	.LBI235:
  50:Core/Inc/ros/ros/node_handle.h **** {
 1180              		.loc 9 50 7 view .LVU301
 1181              	.LBB236:
 1182 0014 4C4D     		ldr	r5, .L88
 1183 0016 4D4B     		ldr	r3, .L88+4
 1184 0018 2B60     		str	r3, [r5]
 1185              	.LVL77:
  50:Core/Inc/ros/ros/node_handle.h **** {
 1186              		.loc 9 50 7 is_stmt 0 view .LVU302
 1187              	.LBE236:
 1188              	.LBE235:
 1189              		.loc 9 104 7 view .LVU303
 1190 001a 4D4B     		ldr	r3, .L88+8
 1191 001c 2B60     		str	r3, [r5]
 1192              	.LVL78:
 1193              	.LBB237:
 1194              	.LBI237:
 1195              		.file 10 "Core/Inc/ros/STM32Hardware.h"
   1:Core/Inc/ros/STM32Hardware.h **** /* 
   2:Core/Inc/ros/STM32Hardware.h ****  * Software License Agreement (BSD License)
   3:Core/Inc/ros/STM32Hardware.h ****  *
   4:Core/Inc/ros/STM32Hardware.h ****  * Copyright (c) 2018, Kenta Yonekura (a.k.a. yoneken)
   5:Core/Inc/ros/STM32Hardware.h ****  * All rights reserved.
   6:Core/Inc/ros/STM32Hardware.h ****  *
   7:Core/Inc/ros/STM32Hardware.h ****  * Redistribution and use in source and binary forms, with or without
   8:Core/Inc/ros/STM32Hardware.h ****  * modification, are permitted provided that the following conditions
   9:Core/Inc/ros/STM32Hardware.h ****  * are met:
  10:Core/Inc/ros/STM32Hardware.h ****  *
  11:Core/Inc/ros/STM32Hardware.h ****  *  * Redistributions of source code must retain the above copyright
  12:Core/Inc/ros/STM32Hardware.h ****  *    notice, this list of conditions and the following disclaimer.
  13:Core/Inc/ros/STM32Hardware.h ****  *  * Redistributions in binary form must reproduce the above
  14:Core/Inc/ros/STM32Hardware.h ****  *    copyright notice, this list of conditions and the following
  15:Core/Inc/ros/STM32Hardware.h ****  *    disclaimer in the documentation and/or other materials provided
  16:Core/Inc/ros/STM32Hardware.h ****  *    with the distribution.
  17:Core/Inc/ros/STM32Hardware.h ****  *  * Neither the name of Willow Garage, Inc. nor the names of its
  18:Core/Inc/ros/STM32Hardware.h ****  *    contributors may be used to endorse or promote prducts derived
  19:Core/Inc/ros/STM32Hardware.h ****  *    from this software without specific prior written permission.
  20:Core/Inc/ros/STM32Hardware.h ****  *
  21:Core/Inc/ros/STM32Hardware.h ****  * THIS SOFTWARE IS PROVIDED BY THE COPYRIGHT HOLDERS AND CONTRIBUTORS
  22:Core/Inc/ros/STM32Hardware.h ****  * "AS IS" AND ANY EXPRESS OR IMPLIED WARRANTIES, INCLUDING, BUT NOT
  23:Core/Inc/ros/STM32Hardware.h ****  * LIMITED TO, THE IMPLIED WARRANTIES OF MERCHANTABILITY AND FITNESS
  24:Core/Inc/ros/STM32Hardware.h ****  * FOR A PARTICULAR PURPOSE ARE DISCLAIMED. IN NO EVENT SHALL THE
  25:Core/Inc/ros/STM32Hardware.h ****  * COPYRIGHT OWNER OR CONTRIBUTORS BE LIABLE FOR ANY DIRECT, INDIRECT,
  26:Core/Inc/ros/STM32Hardware.h ****  * INCIDENTAL, SPECIAL, EXEMPLARY, OR CONSEQUENTIAL DAMAGES (INCLUDING,
  27:Core/Inc/ros/STM32Hardware.h ****  * BUT NOT LIMITED TO, PROCUREMENT OF SUBSTITUTE GOODS OR SERVICES;
  28:Core/Inc/ros/STM32Hardware.h ****  * LOSS OF USE, DATA, OR PROFITS; OR BUSINESS INTERRUPTION) HOWEVER
  29:Core/Inc/ros/STM32Hardware.h ****  * CAUSED AND ON ANY THEORY OF LIABILITY, WHETHER IN CONTRACT, STRICT
  30:Core/Inc/ros/STM32Hardware.h ****  * LIABILITY, OR TORT (INCLUDING NEGLIGENCE OR OTHERWISE) ARISING IN
  31:Core/Inc/ros/STM32Hardware.h ****  * ANY WAY OUT OF THE USE OF THIS SOFTWARE, EVEN IF ADVISED OF THE
  32:Core/Inc/ros/STM32Hardware.h ****  * POSSIBILITY OF SUCH DAMAGE.
  33:Core/Inc/ros/STM32Hardware.h ****  */
  34:Core/Inc/ros/STM32Hardware.h **** 
  35:Core/Inc/ros/STM32Hardware.h **** #ifndef ROS_STM32_HARDWARE_H_
  36:Core/Inc/ros/STM32Hardware.h **** #define ROS_STM32_HARDWARE_H_
  37:Core/Inc/ros/STM32Hardware.h **** 
ARM GAS  /tmp/ccaSmKi1.s 			page 37


  38:Core/Inc/ros/STM32Hardware.h **** #define STM32F4xx  // Change for your device
  39:Core/Inc/ros/STM32Hardware.h **** #ifdef STM32F3xx
  40:Core/Inc/ros/STM32Hardware.h **** #include "stm32f3xx_hal.h"
  41:Core/Inc/ros/STM32Hardware.h **** #include "stm32f3xx_hal_uart.h"
  42:Core/Inc/ros/STM32Hardware.h **** #endif /* STM32F3xx */
  43:Core/Inc/ros/STM32Hardware.h **** #ifdef STM32F4xx
  44:Core/Inc/ros/STM32Hardware.h **** #include "stm32f4xx_hal.h"
  45:Core/Inc/ros/STM32Hardware.h **** #include "stm32f4xx_hal_uart.h"
  46:Core/Inc/ros/STM32Hardware.h **** #endif /* STM32F4xx */
  47:Core/Inc/ros/STM32Hardware.h **** #ifdef STM32F7xx
  48:Core/Inc/ros/STM32Hardware.h **** #include "stm32f7xx_hal.h"
  49:Core/Inc/ros/STM32Hardware.h **** #include "stm32f7xx_hal_uart.h"
  50:Core/Inc/ros/STM32Hardware.h **** #endif /* STM32F7xx */
  51:Core/Inc/ros/STM32Hardware.h **** 
  52:Core/Inc/ros/STM32Hardware.h **** extern UART_HandleTypeDef huart2;
  53:Core/Inc/ros/STM32Hardware.h **** 
  54:Core/Inc/ros/STM32Hardware.h **** class STM32Hardware {
  55:Core/Inc/ros/STM32Hardware.h ****   protected:
  56:Core/Inc/ros/STM32Hardware.h ****     UART_HandleTypeDef *huart;
  57:Core/Inc/ros/STM32Hardware.h **** 
  58:Core/Inc/ros/STM32Hardware.h ****     const static uint16_t rbuflen = 512;
  59:Core/Inc/ros/STM32Hardware.h ****     uint8_t rbuf[rbuflen];
  60:Core/Inc/ros/STM32Hardware.h ****     uint32_t rind;
  61:Core/Inc/ros/STM32Hardware.h ****     inline uint32_t getRdmaInd(void){ return (rbuflen - __HAL_DMA_GET_COUNTER(huart->hdmarx)) & (rb
  62:Core/Inc/ros/STM32Hardware.h **** 
  63:Core/Inc/ros/STM32Hardware.h ****     const static uint16_t tbuflen = 512;
  64:Core/Inc/ros/STM32Hardware.h ****     uint8_t tbuf[tbuflen];
  65:Core/Inc/ros/STM32Hardware.h ****     uint32_t twind, tfind;
  66:Core/Inc/ros/STM32Hardware.h **** 
  67:Core/Inc/ros/STM32Hardware.h ****   public:
  68:Core/Inc/ros/STM32Hardware.h ****     STM32Hardware():
 1196              		.loc 10 68 5 is_stmt 1 view .LVU304
 1197              	.LBB238:
 1198              	.LBB239:
  69:Core/Inc/ros/STM32Hardware.h ****       huart(&huart2), rind(0), twind(0), tfind(0){
 1199              		.loc 10 69 49 is_stmt 0 view .LVU305
 1200 001e 4D4B     		ldr	r3, .L88+12
 1201 0020 6B60     		str	r3, [r5, #4]
 1202 0022 0026     		movs	r6, #0
 1203 0024 C5F80862 		str	r6, [r5, #520]
 1204 0028 C5F80C64 		str	r6, [r5, #1036]
 1205 002c C5F81064 		str	r6, [r5, #1040]
 1206              	.LVL79:
 1207              		.loc 10 69 49 view .LVU306
 1208              	.LBE239:
 1209              	.LBE238:
 1210              	.LBE237:
 1211              		.loc 9 104 7 view .LVU307
 1212 0030 C5F81464 		str	r6, [r5, #1044]
 1213 0034 C5F81864 		str	r6, [r5, #1048]
 1214 0038 C5F81C64 		str	r6, [r5, #1052]
 1215 003c C5F82064 		str	r6, [r5, #1056]
 1216 0040 4FF40077 		mov	r7, #512
 1217 0044 3A46     		mov	r2, r7
 1218 0046 3146     		mov	r1, r6
 1219              	.LVL80:
 1220              		.loc 9 104 7 view .LVU308
ARM GAS  /tmp/ccaSmKi1.s 			page 38


 1221 0048 05F22440 		addw	r0, r5, #1060
 1222              	.LVL81:
 1223              		.loc 9 104 7 view .LVU309
 1224 004c FFF7FEFF 		bl	memset
 1225              	.LVL82:
 1226 0050 3A46     		mov	r2, r7
 1227 0052 3146     		mov	r1, r6
 1228 0054 05F22460 		addw	r0, r5, #1572
 1229 0058 FFF7FEFF 		bl	memset
 1230              	.LVL83:
 1231 005c 6427     		movs	r7, #100
 1232 005e 3A46     		mov	r2, r7
 1233 0060 3146     		mov	r1, r6
 1234 0062 05F62400 		addw	r0, r5, #2084
 1235 0066 FFF7FEFF 		bl	memset
 1236              	.LVL84:
 1237 006a 3A46     		mov	r2, r7
 1238 006c 3146     		mov	r1, r6
 1239 006e 05F68800 		addw	r0, r5, #2184
 1240 0072 FFF7FEFF 		bl	memset
 1241              	.LVL85:
 1242 0076 C5F8EC68 		str	r6, [r5, #2284]
 1243 007a C5F8F068 		str	r6, [r5, #2288]
 1244 007e C5F8F468 		str	r6, [r5, #2292]
 1245 0082 C5F8F868 		str	r6, [r5, #2296]
 1246 0086 C5F8FC68 		str	r6, [r5, #2300]
 1247 008a 85F80069 		strb	r6, [r5, #2304]
 1248 008e C5F80469 		str	r6, [r5, #2308]
 1249 0092 C5F80869 		str	r6, [r5, #2312]
 1250 0096 C5F80C69 		str	r6, [r5, #2316]
 1251 009a 85F81069 		strb	r6, [r5, #2320]
 1252              	.LVL86:
 1253              	.LBB240:
 1254              	.LBI240:
  71:Core/Inc/ros/rosserial_msgs/RequestParam.h ****       ints_length(0), st_ints(), ints(nullptr),
 1255              		.loc 5 71 5 is_stmt 1 view .LVU310
 1256              	.LBB241:
 1257              	.LBB242:
 1258              	.LBB243:
 1259              	.LBI243:
 1260              		.file 11 "Core/Inc/ros/ros/msg.h"
   1:Core/Inc/ros/ros/msg.h **** /*
   2:Core/Inc/ros/ros/msg.h ****  * Software License Agreement (BSD License)
   3:Core/Inc/ros/ros/msg.h ****  *
   4:Core/Inc/ros/ros/msg.h ****  * Copyright (c) 2011, Willow Garage, Inc.
   5:Core/Inc/ros/ros/msg.h ****  * All rights reserved.
   6:Core/Inc/ros/ros/msg.h ****  *
   7:Core/Inc/ros/ros/msg.h ****  * Redistribution and use in source and binary forms, with or without
   8:Core/Inc/ros/ros/msg.h ****  * modification, are permitted provided that the following conditions
   9:Core/Inc/ros/ros/msg.h ****  * are met:
  10:Core/Inc/ros/ros/msg.h ****  *
  11:Core/Inc/ros/ros/msg.h ****  *  * Redistributions of source code must retain the above copyright
  12:Core/Inc/ros/ros/msg.h ****  *    notice, this list of conditions and the following disclaimer.
  13:Core/Inc/ros/ros/msg.h ****  *  * Redistributions in binary form must reproduce the above
  14:Core/Inc/ros/ros/msg.h ****  *    copyright notice, this list of conditions and the following
  15:Core/Inc/ros/ros/msg.h ****  *    disclaimer in the documentation and/or other materials provided
  16:Core/Inc/ros/ros/msg.h ****  *    with the distribution.
ARM GAS  /tmp/ccaSmKi1.s 			page 39


  17:Core/Inc/ros/ros/msg.h ****  *  * Neither the name of Willow Garage, Inc. nor the names of its
  18:Core/Inc/ros/ros/msg.h ****  *    contributors may be used to endorse or promote prducts derived
  19:Core/Inc/ros/ros/msg.h ****  *    from this software without specific prior written permission.
  20:Core/Inc/ros/ros/msg.h ****  *
  21:Core/Inc/ros/ros/msg.h ****  * THIS SOFTWARE IS PROVIDED BY THE COPYRIGHT HOLDERS AND CONTRIBUTORS
  22:Core/Inc/ros/ros/msg.h ****  * "AS IS" AND ANY EXPRESS OR IMPLIED WARRANTIES, INCLUDING, BUT NOT
  23:Core/Inc/ros/ros/msg.h ****  * LIMITED TO, THE IMPLIED WARRANTIES OF MERCHANTABILITY AND FITNESS
  24:Core/Inc/ros/ros/msg.h ****  * FOR A PARTICULAR PURPOSE ARE DISCLAIMED. IN NO EVENT SHALL THE
  25:Core/Inc/ros/ros/msg.h ****  * COPYRIGHT OWNER OR CONTRIBUTORS BE LIABLE FOR ANY DIRECT, INDIRECT,
  26:Core/Inc/ros/ros/msg.h ****  * INCIDENTAL, SPECIAL, EXEMPLARY, OR CONSEQUENTIAL DAMAGES (INCLUDING,
  27:Core/Inc/ros/ros/msg.h ****  * BUT NOT LIMITED TO, PROCUREMENT OF SUBSTITUTE GOODS OR SERVICES;
  28:Core/Inc/ros/ros/msg.h ****  * LOSS OF USE, DATA, OR PROFITS; OR BUSINESS INTERRUPTION) HOWEVER
  29:Core/Inc/ros/ros/msg.h ****  * CAUSED AND ON ANY THEORY OF LIABILITY, WHETHER IN CONTRACT, STRICT
  30:Core/Inc/ros/ros/msg.h ****  * LIABILITY, OR TORT (INCLUDING NEGLIGENCE OR OTHERWISE) ARISING IN
  31:Core/Inc/ros/ros/msg.h ****  * ANY WAY OUT OF THE USE OF THIS SOFTWARE, EVEN IF ADVISED OF THE
  32:Core/Inc/ros/ros/msg.h ****  * POSSIBILITY OF SUCH DAMAGE.
  33:Core/Inc/ros/ros/msg.h ****  */
  34:Core/Inc/ros/ros/msg.h **** 
  35:Core/Inc/ros/ros/msg.h **** #ifndef _ROS_MSG_H_
  36:Core/Inc/ros/ros/msg.h **** #define _ROS_MSG_H_
  37:Core/Inc/ros/ros/msg.h **** 
  38:Core/Inc/ros/ros/msg.h **** #include <stdint.h>
  39:Core/Inc/ros/ros/msg.h **** #include <stddef.h>
  40:Core/Inc/ros/ros/msg.h **** #include <cstring>
  41:Core/Inc/ros/ros/msg.h **** 
  42:Core/Inc/ros/ros/msg.h **** namespace ros
  43:Core/Inc/ros/ros/msg.h **** {
  44:Core/Inc/ros/ros/msg.h **** 
  45:Core/Inc/ros/ros/msg.h **** /* Base Message Type */
  46:Core/Inc/ros/ros/msg.h **** class Msg
 1261              		.loc 11 46 7 view .LVU311
 1262              	.LBB244:
 1263 009e 2E4B     		ldr	r3, .L88+16
 1264 00a0 C5F81439 		str	r3, [r5, #2324]
 1265              	.LVL87:
 1266              		.loc 11 46 7 is_stmt 0 view .LVU312
 1267              	.LBE244:
 1268              	.LBE243:
  74:Core/Inc/ros/rosserial_msgs/RequestParam.h ****     {
 1269              		.loc 5 74 55 view .LVU313
 1270 00a4 2D4A     		ldr	r2, .L88+20
 1271 00a6 C5F81429 		str	r2, [r5, #2324]
 1272 00aa C5F81869 		str	r6, [r5, #2328]
 1273 00ae C5F81C69 		str	r6, [r5, #2332]
 1274 00b2 C5F82069 		str	r6, [r5, #2336]
 1275 00b6 C5F82469 		str	r6, [r5, #2340]
 1276 00ba 05F62812 		addw	r2, r5, #2344
 1277 00be 0021     		movs	r1, #0
 1278 00c0 1160     		str	r1, [r2]	@ float
 1279 00c2 C5F82C69 		str	r6, [r5, #2348]
 1280 00c6 C5F83069 		str	r6, [r5, #2352]
 1281 00ca C5F83469 		str	r6, [r5, #2356]
 1282 00ce C5F83869 		str	r6, [r5, #2360]
 1283              	.LVL88:
  74:Core/Inc/ros/rosserial_msgs/RequestParam.h ****     {
 1284              		.loc 5 74 55 view .LVU314
 1285              	.LBE242:
ARM GAS  /tmp/ccaSmKi1.s 			page 40


 1286              	.LBE241:
 1287              	.LBE240:
 1288              	.LBE234:
 1289              	.LBE233:
 1290              	.LBB245:
 1291              	.LBI245:
  17:Core/Inc/ros/actuators/Vector4.h ****       quad()
 1292              		.loc 6 17 5 is_stmt 1 view .LVU315
 1293              	.LBB246:
 1294              	.LBB247:
 1295              	.LBB248:
 1296              	.LBI248:
 1297              		.loc 11 46 7 view .LVU316
 1298              	.LBB249:
 1299 00d2 234A     		ldr	r2, .L88+24
 1300 00d4 1360     		str	r3, [r2]
 1301              	.LVL89:
 1302              		.loc 11 46 7 is_stmt 0 view .LVU317
 1303              	.LBE249:
 1304              	.LBE248:
  18:Core/Inc/ros/actuators/Vector4.h ****     {
 1305              		.loc 6 18 12 view .LVU318
 1306 00d6 234B     		ldr	r3, .L88+28
 1307 00d8 42F8043B 		str	r3, [r2], #4
 1308 00dc 0323     		movs	r3, #3
 1309              	.L78:
  18:Core/Inc/ros/actuators/Vector4.h ****     {
 1310              		.loc 6 18 12 is_stmt 1 view .LVU319
 1311 00de 002B     		cmp	r3, #0
 1312 00e0 04DB     		blt	.L77
 1313 00e2 0021     		movs	r1, #0
 1314 00e4 42F8041B 		str	r1, [r2], #4	@ float
  18:Core/Inc/ros/actuators/Vector4.h ****     {
 1315              		.loc 6 18 12 view .LVU320
 1316 00e8 013B     		subs	r3, r3, #1
 1317 00ea F8E7     		b	.L78
 1318              	.L77:
 1319              	.LVL90:
  18:Core/Inc/ros/actuators/Vector4.h ****     {
 1320              		.loc 6 18 12 is_stmt 0 view .LVU321
 1321              	.LBE247:
 1322              	.LBE246:
 1323              	.LBE245:
 1324              	.LBB250:
 1325              	.LBI250:
  17:Core/Inc/ros/actuators/Vector2.h ****       dual()
 1326              		.loc 7 17 5 is_stmt 1 view .LVU322
 1327              	.LBB251:
 1328              	.LBB252:
 1329              	.LBB253:
 1330              	.LBI253:
 1331              		.loc 11 46 7 view .LVU323
 1332              	.LBB254:
 1333 00ec 1E4B     		ldr	r3, .L88+32
 1334 00ee 1A4A     		ldr	r2, .L88+16
 1335 00f0 1A60     		str	r2, [r3]
 1336              	.LVL91:
ARM GAS  /tmp/ccaSmKi1.s 			page 41


 1337              		.loc 11 46 7 is_stmt 0 view .LVU324
 1338              	.LBE254:
 1339              	.LBE253:
  18:Core/Inc/ros/actuators/Vector2.h ****     {
 1340              		.loc 7 18 12 view .LVU325
 1341 00f2 1E4A     		ldr	r2, .L88+36
 1342 00f4 43F8042B 		str	r2, [r3], #4
 1343 00f8 03E0     		b	.L80
 1344              	.LVL92:
 1345              	.L87:
  18:Core/Inc/ros/actuators/Vector2.h ****     {
 1346              		.loc 7 18 12 view .LVU326
 1347 00fa 0022     		movs	r2, #0
 1348 00fc 43F8042B 		str	r2, [r3], #4	@ float
  18:Core/Inc/ros/actuators/Vector2.h ****     {
 1349              		.loc 7 18 12 is_stmt 1 view .LVU327
 1350 0100 013C     		subs	r4, r4, #1
 1351              	.L80:
  18:Core/Inc/ros/actuators/Vector2.h ****     {
 1352              		.loc 7 18 12 view .LVU328
 1353 0102 002C     		cmp	r4, #0
 1354 0104 F9DA     		bge	.L87
 1355              	.LVL93:
  18:Core/Inc/ros/actuators/Vector2.h ****     {
 1356              		.loc 7 18 12 is_stmt 0 view .LVU329
 1357              	.LBE252:
 1358              	.LBE251:
 1359              	.LBE250:
 1360              	.LBB255:
 1361              	.LBI255:
 1362              		.file 12 "Core/Inc/ros/ros/publisher.h"
   1:Core/Inc/ros/ros/publisher.h **** /*
   2:Core/Inc/ros/ros/publisher.h ****  * Software License Agreement (BSD License)
   3:Core/Inc/ros/ros/publisher.h ****  *
   4:Core/Inc/ros/ros/publisher.h ****  * Copyright (c) 2011, Willow Garage, Inc.
   5:Core/Inc/ros/ros/publisher.h ****  * All rights reserved.
   6:Core/Inc/ros/ros/publisher.h ****  *
   7:Core/Inc/ros/ros/publisher.h ****  * Redistribution and use in source and binary forms, with or without
   8:Core/Inc/ros/ros/publisher.h ****  * modification, are permitted provided that the following conditions
   9:Core/Inc/ros/ros/publisher.h ****  * are met:
  10:Core/Inc/ros/ros/publisher.h ****  *
  11:Core/Inc/ros/ros/publisher.h ****  *  * Redistributions of source code must retain the above copyright
  12:Core/Inc/ros/ros/publisher.h ****  *    notice, this list of conditions and the following disclaimer.
  13:Core/Inc/ros/ros/publisher.h ****  *  * Redistributions in binary form must reproduce the above
  14:Core/Inc/ros/ros/publisher.h ****  *    copyright notice, this list of conditions and the following
  15:Core/Inc/ros/ros/publisher.h ****  *    disclaimer in the documentation and/or other materials provided
  16:Core/Inc/ros/ros/publisher.h ****  *    with the distribution.
  17:Core/Inc/ros/ros/publisher.h ****  *  * Neither the name of Willow Garage, Inc. nor the names of its
  18:Core/Inc/ros/ros/publisher.h ****  *    contributors may be used to endorse or promote prducts derived
  19:Core/Inc/ros/ros/publisher.h ****  *    from this software without specific prior written permission.
  20:Core/Inc/ros/ros/publisher.h ****  *
  21:Core/Inc/ros/ros/publisher.h ****  * THIS SOFTWARE IS PROVIDED BY THE COPYRIGHT HOLDERS AND CONTRIBUTORS
  22:Core/Inc/ros/ros/publisher.h ****  * "AS IS" AND ANY EXPRESS OR IMPLIED WARRANTIES, INCLUDING, BUT NOT
  23:Core/Inc/ros/ros/publisher.h ****  * LIMITED TO, THE IMPLIED WARRANTIES OF MERCHANTABILITY AND FITNESS
  24:Core/Inc/ros/ros/publisher.h ****  * FOR A PARTICULAR PURPOSE ARE DISCLAIMED. IN NO EVENT SHALL THE
  25:Core/Inc/ros/ros/publisher.h ****  * COPYRIGHT OWNER OR CONTRIBUTORS BE LIABLE FOR ANY DIRECT, INDIRECT,
  26:Core/Inc/ros/ros/publisher.h ****  * INCIDENTAL, SPECIAL, EXEMPLARY, OR CONSEQUENTIAL DAMAGES (INCLUDING,
ARM GAS  /tmp/ccaSmKi1.s 			page 42


  27:Core/Inc/ros/ros/publisher.h ****  * BUT NOT LIMITED TO, PROCUREMENT OF SUBSTITUTE GOODS OR SERVICES;
  28:Core/Inc/ros/ros/publisher.h ****  * LOSS OF USE, DATA, OR PROFITS; OR BUSINESS INTERRUPTION) HOWEVER
  29:Core/Inc/ros/ros/publisher.h ****  * CAUSED AND ON ANY THEORY OF LIABILITY, WHETHER IN CONTRACT, STRICT
  30:Core/Inc/ros/ros/publisher.h ****  * LIABILITY, OR TORT (INCLUDING NEGLIGENCE OR OTHERWISE) ARISING IN
  31:Core/Inc/ros/ros/publisher.h ****  * ANY WAY OUT OF THE USE OF THIS SOFTWARE, EVEN IF ADVISED OF THE
  32:Core/Inc/ros/ros/publisher.h ****  * POSSIBILITY OF SUCH DAMAGE.
  33:Core/Inc/ros/ros/publisher.h ****  */
  34:Core/Inc/ros/ros/publisher.h **** 
  35:Core/Inc/ros/ros/publisher.h **** #ifndef _ROS_PUBLISHER_H_
  36:Core/Inc/ros/ros/publisher.h **** #define _ROS_PUBLISHER_H_
  37:Core/Inc/ros/ros/publisher.h **** 
  38:Core/Inc/ros/ros/publisher.h **** #include "rosserial_msgs/TopicInfo.h"
  39:Core/Inc/ros/ros/publisher.h **** #include "ros/node_handle.h"
  40:Core/Inc/ros/ros/publisher.h **** 
  41:Core/Inc/ros/ros/publisher.h **** namespace ros
  42:Core/Inc/ros/ros/publisher.h **** {
  43:Core/Inc/ros/ros/publisher.h **** 
  44:Core/Inc/ros/ros/publisher.h **** /* Generic Publisher */
  45:Core/Inc/ros/ros/publisher.h **** class Publisher
  46:Core/Inc/ros/ros/publisher.h **** {
  47:Core/Inc/ros/ros/publisher.h **** public:
  48:Core/Inc/ros/ros/publisher.h ****   Publisher(const char * topic_name, Msg * msg, int endpoint = rosserial_msgs::TopicInfo::ID_PUBLIS
 1363              		.loc 12 48 3 is_stmt 1 view .LVU330
 1364              	.LBB256:
 1365              	.LBB257:
  49:Core/Inc/ros/ros/publisher.h ****     topic_(topic_name),
  50:Core/Inc/ros/ros/publisher.h ****     msg_(msg),
  51:Core/Inc/ros/ros/publisher.h ****     endpoint_(endpoint) {};
 1366              		.loc 12 51 23 is_stmt 0 view .LVU331
 1367 0106 1A4B     		ldr	r3, .L88+40
 1368 0108 1A4A     		ldr	r2, .L88+44
 1369 010a 1A60     		str	r2, [r3]
 1370 010c 144A     		ldr	r2, .L88+24
 1371 010e 5A60     		str	r2, [r3, #4]
 1372 0110 0022     		movs	r2, #0
 1373 0112 1A61     		str	r2, [r3, #16]
 1374              	.LVL94:
 1375              		.loc 12 51 23 view .LVU332
 1376              	.LBE257:
 1377              	.LBE256:
 1378              	.LBE255:
 1379              	.LBB258:
 1380              	.LBI258:
  48:Core/Inc/ros/ros/publisher.h ****     topic_(topic_name),
 1381              		.loc 12 48 3 is_stmt 1 view .LVU333
 1382              	.LBB259:
 1383              	.LBB260:
 1384              		.loc 12 51 23 is_stmt 0 view .LVU334
 1385 0114 184B     		ldr	r3, .L88+48
 1386 0116 1949     		ldr	r1, .L88+52
 1387 0118 1960     		str	r1, [r3]
 1388 011a 1349     		ldr	r1, .L88+32
 1389 011c 5960     		str	r1, [r3, #4]
 1390 011e 1A61     		str	r2, [r3, #16]
 1391              	.LVL95:
 1392              		.loc 12 51 23 view .LVU335
 1393              	.LBE260:
ARM GAS  /tmp/ccaSmKi1.s 			page 43


 1394              	.LBE259:
 1395              	.LBE258:
 1396              	.LBB261:
 1397              	.LBI261:
 1398              		.file 13 "Core/Inc/ros/ros/subscriber.h"
   1:Core/Inc/ros/ros/subscriber.h **** /*
   2:Core/Inc/ros/ros/subscriber.h ****  * Software License Agreement (BSD License)
   3:Core/Inc/ros/ros/subscriber.h ****  *
   4:Core/Inc/ros/ros/subscriber.h ****  * Copyright (c) 2011, Willow Garage, Inc.
   5:Core/Inc/ros/ros/subscriber.h ****  * All rights reserved.
   6:Core/Inc/ros/ros/subscriber.h ****  *
   7:Core/Inc/ros/ros/subscriber.h ****  * Redistribution and use in source and binary forms, with or without
   8:Core/Inc/ros/ros/subscriber.h ****  * modification, are permitted provided that the following conditions
   9:Core/Inc/ros/ros/subscriber.h ****  * are met:
  10:Core/Inc/ros/ros/subscriber.h ****  *
  11:Core/Inc/ros/ros/subscriber.h ****  *  * Redistributions of source code must retain the above copyright
  12:Core/Inc/ros/ros/subscriber.h ****  *    notice, this list of conditions and the following disclaimer.
  13:Core/Inc/ros/ros/subscriber.h ****  *  * Redistributions in binary form must reproduce the above
  14:Core/Inc/ros/ros/subscriber.h ****  *    copyright notice, this list of conditions and the following
  15:Core/Inc/ros/ros/subscriber.h ****  *    disclaimer in the documentation and/or other materials provided
  16:Core/Inc/ros/ros/subscriber.h ****  *    with the distribution.
  17:Core/Inc/ros/ros/subscriber.h ****  *  * Neither the name of Willow Garage, Inc. nor the names of its
  18:Core/Inc/ros/ros/subscriber.h ****  *    contributors may be used to endorse or promote prducts derived
  19:Core/Inc/ros/ros/subscriber.h ****  *    from this software without specific prior written permission.
  20:Core/Inc/ros/ros/subscriber.h ****  *
  21:Core/Inc/ros/ros/subscriber.h ****  * THIS SOFTWARE IS PROVIDED BY THE COPYRIGHT HOLDERS AND CONTRIBUTORS
  22:Core/Inc/ros/ros/subscriber.h ****  * "AS IS" AND ANY EXPRESS OR IMPLIED WARRANTIES, INCLUDING, BUT NOT
  23:Core/Inc/ros/ros/subscriber.h ****  * LIMITED TO, THE IMPLIED WARRANTIES OF MERCHANTABILITY AND FITNESS
  24:Core/Inc/ros/ros/subscriber.h ****  * FOR A PARTICULAR PURPOSE ARE DISCLAIMED. IN NO EVENT SHALL THE
  25:Core/Inc/ros/ros/subscriber.h ****  * COPYRIGHT OWNER OR CONTRIBUTORS BE LIABLE FOR ANY DIRECT, INDIRECT,
  26:Core/Inc/ros/ros/subscriber.h ****  * INCIDENTAL, SPECIAL, EXEMPLARY, OR CONSEQUENTIAL DAMAGES (INCLUDING,
  27:Core/Inc/ros/ros/subscriber.h ****  * BUT NOT LIMITED TO, PROCUREMENT OF SUBSTITUTE GOODS OR SERVICES;
  28:Core/Inc/ros/ros/subscriber.h ****  * LOSS OF USE, DATA, OR PROFITS; OR BUSINESS INTERRUPTION) HOWEVER
  29:Core/Inc/ros/ros/subscriber.h ****  * CAUSED AND ON ANY THEORY OF LIABILITY, WHETHER IN CONTRACT, STRICT
  30:Core/Inc/ros/ros/subscriber.h ****  * LIABILITY, OR TORT (INCLUDING NEGLIGENCE OR OTHERWISE) ARISING IN
  31:Core/Inc/ros/ros/subscriber.h ****  * ANY WAY OUT OF THE USE OF THIS SOFTWARE, EVEN IF ADVISED OF THE
  32:Core/Inc/ros/ros/subscriber.h ****  * POSSIBILITY OF SUCH DAMAGE.
  33:Core/Inc/ros/ros/subscriber.h ****  */
  34:Core/Inc/ros/ros/subscriber.h **** 
  35:Core/Inc/ros/ros/subscriber.h **** #ifndef ROS_SUBSCRIBER_H_
  36:Core/Inc/ros/ros/subscriber.h **** #define ROS_SUBSCRIBER_H_
  37:Core/Inc/ros/ros/subscriber.h **** 
  38:Core/Inc/ros/ros/subscriber.h **** #include "rosserial_msgs/TopicInfo.h"
  39:Core/Inc/ros/ros/subscriber.h **** 
  40:Core/Inc/ros/ros/subscriber.h **** namespace ros
  41:Core/Inc/ros/ros/subscriber.h **** {
  42:Core/Inc/ros/ros/subscriber.h **** 
  43:Core/Inc/ros/ros/subscriber.h **** /* Base class for objects subscribers. */
  44:Core/Inc/ros/ros/subscriber.h **** class Subscriber_
  45:Core/Inc/ros/ros/subscriber.h **** {
  46:Core/Inc/ros/ros/subscriber.h **** public:
  47:Core/Inc/ros/ros/subscriber.h ****   virtual void callback(unsigned char *data) = 0;
  48:Core/Inc/ros/ros/subscriber.h ****   virtual int getEndpointType() = 0;
  49:Core/Inc/ros/ros/subscriber.h **** 
  50:Core/Inc/ros/ros/subscriber.h ****   // id_ is set by NodeHandle when we advertise
  51:Core/Inc/ros/ros/subscriber.h ****   int id_;
  52:Core/Inc/ros/ros/subscriber.h **** 
ARM GAS  /tmp/ccaSmKi1.s 			page 44


  53:Core/Inc/ros/ros/subscriber.h ****   virtual const char * getMsgType() = 0;
  54:Core/Inc/ros/ros/subscriber.h ****   virtual const char * getMsgMD5() = 0;
  55:Core/Inc/ros/ros/subscriber.h ****   const char * topic_;
  56:Core/Inc/ros/ros/subscriber.h **** };
  57:Core/Inc/ros/ros/subscriber.h **** 
  58:Core/Inc/ros/ros/subscriber.h **** /* Bound function subscriber. */
  59:Core/Inc/ros/ros/subscriber.h **** template<typename MsgT, typename ObjT = void>
  60:Core/Inc/ros/ros/subscriber.h **** class Subscriber: public Subscriber_
  61:Core/Inc/ros/ros/subscriber.h **** {
  62:Core/Inc/ros/ros/subscriber.h **** public:
  63:Core/Inc/ros/ros/subscriber.h ****   typedef void(ObjT::*CallbackT)(const MsgT&);
  64:Core/Inc/ros/ros/subscriber.h ****   MsgT msg;
  65:Core/Inc/ros/ros/subscriber.h **** 
  66:Core/Inc/ros/ros/subscriber.h ****   Subscriber(const char * topic_name, CallbackT cb, ObjT* obj, int endpoint = rosserial_msgs::Topic
  67:Core/Inc/ros/ros/subscriber.h ****     cb_(cb),
  68:Core/Inc/ros/ros/subscriber.h ****     obj_(obj),
  69:Core/Inc/ros/ros/subscriber.h ****     endpoint_(endpoint)
  70:Core/Inc/ros/ros/subscriber.h ****   {
  71:Core/Inc/ros/ros/subscriber.h ****     topic_ = topic_name;
  72:Core/Inc/ros/ros/subscriber.h ****   };
  73:Core/Inc/ros/ros/subscriber.h **** 
  74:Core/Inc/ros/ros/subscriber.h ****   virtual void callback(unsigned char* data) override
  75:Core/Inc/ros/ros/subscriber.h ****   {
  76:Core/Inc/ros/ros/subscriber.h ****     msg.deserialize(data);
  77:Core/Inc/ros/ros/subscriber.h ****     (obj_->*cb_)(msg);
  78:Core/Inc/ros/ros/subscriber.h ****   }
  79:Core/Inc/ros/ros/subscriber.h **** 
  80:Core/Inc/ros/ros/subscriber.h ****   virtual const char * getMsgType() override
  81:Core/Inc/ros/ros/subscriber.h ****   {
  82:Core/Inc/ros/ros/subscriber.h ****     return this->msg.getType();
  83:Core/Inc/ros/ros/subscriber.h ****   }
  84:Core/Inc/ros/ros/subscriber.h ****   virtual const char * getMsgMD5() override
  85:Core/Inc/ros/ros/subscriber.h ****   {
  86:Core/Inc/ros/ros/subscriber.h ****     return this->msg.getMD5();
  87:Core/Inc/ros/ros/subscriber.h ****   }
  88:Core/Inc/ros/ros/subscriber.h ****   virtual int getEndpointType() override
  89:Core/Inc/ros/ros/subscriber.h ****   {
  90:Core/Inc/ros/ros/subscriber.h ****     return endpoint_;
  91:Core/Inc/ros/ros/subscriber.h ****   }
  92:Core/Inc/ros/ros/subscriber.h **** 
  93:Core/Inc/ros/ros/subscriber.h **** private:
  94:Core/Inc/ros/ros/subscriber.h ****   CallbackT cb_;
  95:Core/Inc/ros/ros/subscriber.h ****   ObjT* obj_;
  96:Core/Inc/ros/ros/subscriber.h ****   int endpoint_;
  97:Core/Inc/ros/ros/subscriber.h **** };
  98:Core/Inc/ros/ros/subscriber.h **** 
  99:Core/Inc/ros/ros/subscriber.h **** /* Standalone function subscriber. */
 100:Core/Inc/ros/ros/subscriber.h **** template<typename MsgT>
 101:Core/Inc/ros/ros/subscriber.h **** class Subscriber<MsgT, void>: public Subscriber_
 102:Core/Inc/ros/ros/subscriber.h **** {
 103:Core/Inc/ros/ros/subscriber.h **** public:
 104:Core/Inc/ros/ros/subscriber.h ****   typedef void(*CallbackT)(const MsgT&);
 105:Core/Inc/ros/ros/subscriber.h ****   MsgT msg;
 106:Core/Inc/ros/ros/subscriber.h **** 
 107:Core/Inc/ros/ros/subscriber.h ****   Subscriber(const char * topic_name, CallbackT cb, int endpoint = rosserial_msgs::TopicInfo::ID_SU
 1399              		.loc 13 107 3 is_stmt 1 view .LVU336
 1400              	.LBB262:
ARM GAS  /tmp/ccaSmKi1.s 			page 45


 1401              	.LBB263:
 1402              	.LBB264:
 1403              	.LBI264:
  44:Core/Inc/ros/ros/subscriber.h **** {
 1404              		.loc 13 44 7 view .LVU337
 1405              	.LBB265:
 1406 0120 174B     		ldr	r3, .L88+56
 1407 0122 1849     		ldr	r1, .L88+60
 1408 0124 1960     		str	r1, [r3]
 1409              	.LVL96:
  44:Core/Inc/ros/ros/subscriber.h **** {
 1410              		.loc 13 44 7 is_stmt 0 view .LVU338
 1411              	.LBE265:
 1412              	.LBE264:
 108:Core/Inc/ros/ros/subscriber.h ****     cb_(cb),
 109:Core/Inc/ros/ros/subscriber.h ****     endpoint_(endpoint)
 1413              		.loc 13 109 23 view .LVU339
 1414 0126 1849     		ldr	r1, .L88+64
 1415 0128 1960     		str	r1, [r3]
 1416              	.LVL97:
 1417              	.LBB266:
 1418              	.LBI266:
  24:Core/Inc/ros/actuators/motor_driver_param.h ****       id(0),
 1419              		.loc 1 24 5 is_stmt 1 view .LVU340
 1420              	.LBB267:
 1421              	.LBB268:
 1422              	.LBB269:
 1423              	.LBI269:
 1424              		.loc 11 46 7 view .LVU341
 1425              	.LBB270:
 1426 012a 0B49     		ldr	r1, .L88+16
 1427 012c D960     		str	r1, [r3, #12]
 1428              	.LVL98:
 1429              		.loc 11 46 7 is_stmt 0 view .LVU342
 1430              	.LBE270:
 1431              	.LBE269:
  28:Core/Inc/ros/actuators/motor_driver_param.h ****     {
 1432              		.loc 1 28 12 view .LVU343
 1433 012e 1749     		ldr	r1, .L88+68
 1434 0130 D960     		str	r1, [r3, #12]
 1435 0132 1A74     		strb	r2, [r3, #16]
 1436 0134 5A74     		strb	r2, [r3, #17]
 1437 0136 9A74     		strb	r2, [r3, #18]
 1438 0138 9A82     		strh	r2, [r3, #20]	@ movhi
 1439              	.LVL99:
  28:Core/Inc/ros/actuators/motor_driver_param.h ****     {
 1440              		.loc 1 28 12 view .LVU344
 1441              	.LBE268:
 1442              	.LBE267:
 1443              	.LBE266:
 1444              		.loc 13 109 23 view .LVU345
 1445 013a 154A     		ldr	r2, .L88+72
 1446 013c 9A61     		str	r2, [r3, #24]
 1447 013e 0122     		movs	r2, #1
 1448 0140 DA61     		str	r2, [r3, #28]
 110:Core/Inc/ros/ros/subscriber.h ****   {
 111:Core/Inc/ros/ros/subscriber.h ****     topic_ = topic_name;
ARM GAS  /tmp/ccaSmKi1.s 			page 46


 1449              		.loc 13 111 12 view .LVU346
 1450 0142 144A     		ldr	r2, .L88+76
 1451 0144 9A60     		str	r2, [r3, #8]
 1452              	.LVL100:
 1453              		.loc 13 111 12 view .LVU347
 1454              	.LBE263:
 1455              	.LBE262:
 1456              	.LBE261:
 1457              		.loc 8 54 1 view .LVU348
 1458 0146 64E7     		b	.L75
 1459              	.L89:
 1460              		.align	2
 1461              	.L88:
 1462 0148 00000000 		.word	.LANCHOR3
 1463 014c 08000000 		.word	_ZTVN3ros15NodeHandleBase_E+8
 1464 0150 08000000 		.word	_ZTVN3ros11NodeHandle_I13STM32HardwareLi25ELi25ELi512ELi512EEE+8
 1465 0154 00000000 		.word	huart2
 1466 0158 08000000 		.word	_ZTVN3ros3MsgE+8
 1467 015c 08000000 		.word	_ZTVN14rosserial_msgs20RequestParamResponseE+8
 1468 0160 00000000 		.word	.LANCHOR1
 1469 0164 08000000 		.word	_ZTVN9actuators7Vector4E+8
 1470 0168 00000000 		.word	.LANCHOR2
 1471 016c 08000000 		.word	_ZTVN9actuators7Vector2E+8
 1472 0170 00000000 		.word	.LANCHOR4
 1473 0174 00000000 		.word	.LC13
 1474 0178 00000000 		.word	.LANCHOR5
 1475 017c 14000000 		.word	.LC14
 1476 0180 00000000 		.word	.LANCHOR6
 1477 0184 08000000 		.word	_ZTVN3ros11Subscriber_E+8
 1478 0188 08000000 		.word	_ZTVN3ros10SubscriberIN9actuators18motor_driver_paramEvEE+8
 1479 018c 08000000 		.word	_ZTVN9actuators18motor_driver_paramE+8
 1480 0190 00000000 		.word	_Z19motor_base_callbackRKN9actuators18motor_driver_paramE
 1481 0194 28000000 		.word	.LC15
 1482              		.cfi_endproc
 1483              	.LFE578:
 1485              		.section	.text._ZN3ros10SubscriberIN9actuators18motor_driver_paramEvE8callbackEPh,"axG",%progbits,
 1486              		.align	1
 1487              		.weak	_ZN3ros10SubscriberIN9actuators18motor_driver_paramEvE8callbackEPh
 1488              		.syntax unified
 1489              		.thumb
 1490              		.thumb_func
 1491              		.fpu fpv4-sp-d16
 1493              	_ZN3ros10SubscriberIN9actuators18motor_driver_paramEvE8callbackEPh:
 1494              	.LVL101:
 1495              	.LFB579:
 112:Core/Inc/ros/ros/subscriber.h ****   };
 113:Core/Inc/ros/ros/subscriber.h **** 
 114:Core/Inc/ros/ros/subscriber.h ****   virtual void callback(unsigned char* data) override
 1496              		.loc 13 114 16 is_stmt 1 view -0
 1497              		.cfi_startproc
 1498              		@ args = 0, pretend = 0, frame = 0
 1499              		@ frame_needed = 0, uses_anonymous_args = 0
 1500              		.loc 13 114 16 is_stmt 0 view .LVU350
 1501 0000 08B5     		push	{r3, lr}
 1502              	.LCFI7:
 1503              		.cfi_def_cfa_offset 8
 1504              		.cfi_offset 3, -8
ARM GAS  /tmp/ccaSmKi1.s 			page 47


 1505              		.cfi_offset 14, -4
 1506              	.LVL102:
 1507              	.LBB271:
 1508              	.LBI271:
  47:Core/Inc/ros/actuators/motor_driver_param.h ****     {
 1509              		.loc 1 47 17 is_stmt 1 view .LVU351
 1510              	.LBB272:
  49:Core/Inc/ros/actuators/motor_driver_param.h ****       this->id =  ((uint8_t) (*(inbuffer + offset)));
 1511              		.loc 1 49 7 view .LVU352
  50:Core/Inc/ros/actuators/motor_driver_param.h ****       offset += sizeof(this->id);
 1512              		.loc 1 50 7 view .LVU353
  50:Core/Inc/ros/actuators/motor_driver_param.h ****       offset += sizeof(this->id);
 1513              		.loc 1 50 31 is_stmt 0 view .LVU354
 1514 0002 0B78     		ldrb	r3, [r1]	@ zero_extendqisi2
  50:Core/Inc/ros/actuators/motor_driver_param.h ****       offset += sizeof(this->id);
 1515              		.loc 1 50 16 view .LVU355
 1516 0004 0374     		strb	r3, [r0, #16]
  51:Core/Inc/ros/actuators/motor_driver_param.h ****       this->dir1 =  ((uint8_t) (*(inbuffer + offset)));
 1517              		.loc 1 51 7 is_stmt 1 view .LVU356
 1518              	.LVL103:
  52:Core/Inc/ros/actuators/motor_driver_param.h ****       offset += sizeof(this->dir1);
 1519              		.loc 1 52 7 view .LVU357
  52:Core/Inc/ros/actuators/motor_driver_param.h ****       offset += sizeof(this->dir1);
 1520              		.loc 1 52 33 is_stmt 0 view .LVU358
 1521 0006 4B78     		ldrb	r3, [r1, #1]	@ zero_extendqisi2
  52:Core/Inc/ros/actuators/motor_driver_param.h ****       offset += sizeof(this->dir1);
 1522              		.loc 1 52 18 view .LVU359
 1523 0008 4374     		strb	r3, [r0, #17]
  53:Core/Inc/ros/actuators/motor_driver_param.h ****       this->dir2 =  ((uint8_t) (*(inbuffer + offset)));
 1524              		.loc 1 53 7 is_stmt 1 view .LVU360
 1525              	.LVL104:
  54:Core/Inc/ros/actuators/motor_driver_param.h ****       offset += sizeof(this->dir2);
 1526              		.loc 1 54 7 view .LVU361
  54:Core/Inc/ros/actuators/motor_driver_param.h ****       offset += sizeof(this->dir2);
 1527              		.loc 1 54 33 is_stmt 0 view .LVU362
 1528 000a 8B78     		ldrb	r3, [r1, #2]	@ zero_extendqisi2
  54:Core/Inc/ros/actuators/motor_driver_param.h ****       offset += sizeof(this->dir2);
 1529              		.loc 1 54 18 view .LVU363
 1530 000c 8374     		strb	r3, [r0, #18]
  55:Core/Inc/ros/actuators/motor_driver_param.h ****       this->pwm =  ((uint16_t) (*(inbuffer + offset)));
 1531              		.loc 1 55 7 is_stmt 1 view .LVU364
 1532              	.LVL105:
  56:Core/Inc/ros/actuators/motor_driver_param.h ****       this->pwm |= ((uint16_t) (*(inbuffer + offset + 1))) << (8 * 1);
 1533              		.loc 1 56 7 view .LVU365
  56:Core/Inc/ros/actuators/motor_driver_param.h ****       this->pwm |= ((uint16_t) (*(inbuffer + offset + 1))) << (8 * 1);
 1534              		.loc 1 56 33 is_stmt 0 view .LVU366
 1535 000e CB78     		ldrb	r3, [r1, #3]	@ zero_extendqisi2
  56:Core/Inc/ros/actuators/motor_driver_param.h ****       this->pwm |= ((uint16_t) (*(inbuffer + offset + 1))) << (8 * 1);
 1536              		.loc 1 56 17 view .LVU367
 1537 0010 8382     		strh	r3, [r0, #20]	@ movhi
  57:Core/Inc/ros/actuators/motor_driver_param.h ****       offset += sizeof(this->pwm);
 1538              		.loc 1 57 7 is_stmt 1 view .LVU368
  57:Core/Inc/ros/actuators/motor_driver_param.h ****       offset += sizeof(this->pwm);
 1539              		.loc 1 57 33 is_stmt 0 view .LVU369
 1540 0012 0A79     		ldrb	r2, [r1, #4]	@ zero_extendqisi2
  57:Core/Inc/ros/actuators/motor_driver_param.h ****       offset += sizeof(this->pwm);
 1541              		.loc 1 57 17 view .LVU370
ARM GAS  /tmp/ccaSmKi1.s 			page 48


 1542 0014 43EA0223 		orr	r3, r3, r2, lsl #8
 1543 0018 8382     		strh	r3, [r0, #20]	@ movhi
  58:Core/Inc/ros/actuators/motor_driver_param.h ****      return offset;
 1544              		.loc 1 58 7 is_stmt 1 view .LVU371
 1545              	.LVL106:
  59:Core/Inc/ros/actuators/motor_driver_param.h ****     }
 1546              		.loc 1 59 6 view .LVU372
  59:Core/Inc/ros/actuators/motor_driver_param.h ****     }
 1547              		.loc 1 59 6 is_stmt 0 view .LVU373
 1548              	.LBE272:
 1549              	.LBE271:
 115:Core/Inc/ros/ros/subscriber.h ****   {
 116:Core/Inc/ros/ros/subscriber.h ****     msg.deserialize(data);
 117:Core/Inc/ros/ros/subscriber.h ****     this->cb_(msg);
 1550              		.loc 13 117 11 view .LVU374
 1551 001a 8369     		ldr	r3, [r0, #24]
 1552 001c 0C30     		adds	r0, r0, #12
 1553              	.LVL107:
 1554              		.loc 13 117 11 view .LVU375
 1555 001e 9847     		blx	r3
 1556              	.LVL108:
 118:Core/Inc/ros/ros/subscriber.h ****   }
 1557              		.loc 13 118 3 view .LVU376
 1558 0020 08BD     		pop	{r3, pc}
 1559              		.cfi_endproc
 1560              	.LFE579:
 1562              		.section	.text._ZN3ros10SubscriberIN9actuators18motor_driver_paramEvE15getEndpointTypeEv,"axG",%pr
 1563              		.align	1
 1564              		.weak	_ZN3ros10SubscriberIN9actuators18motor_driver_paramEvE15getEndpointTypeEv
 1565              		.syntax unified
 1566              		.thumb
 1567              		.thumb_func
 1568              		.fpu fpv4-sp-d16
 1570              	_ZN3ros10SubscriberIN9actuators18motor_driver_paramEvE15getEndpointTypeEv:
 1571              	.LVL109:
 1572              	.LFB580:
 119:Core/Inc/ros/ros/subscriber.h **** 
 120:Core/Inc/ros/ros/subscriber.h ****   virtual const char * getMsgType() override
 121:Core/Inc/ros/ros/subscriber.h ****   {
 122:Core/Inc/ros/ros/subscriber.h ****     return this->msg.getType();
 123:Core/Inc/ros/ros/subscriber.h ****   }
 124:Core/Inc/ros/ros/subscriber.h ****   virtual const char * getMsgMD5() override
 125:Core/Inc/ros/ros/subscriber.h ****   {
 126:Core/Inc/ros/ros/subscriber.h ****     return this->msg.getMD5();
 127:Core/Inc/ros/ros/subscriber.h ****   }
 128:Core/Inc/ros/ros/subscriber.h ****   virtual int getEndpointType() override
 1573              		.loc 13 128 15 is_stmt 1 view -0
 1574              		.cfi_startproc
 1575              		@ args = 0, pretend = 0, frame = 0
 1576              		@ frame_needed = 0, uses_anonymous_args = 0
 1577              		@ link register save eliminated.
 129:Core/Inc/ros/ros/subscriber.h ****   {
 130:Core/Inc/ros/ros/subscriber.h ****     return endpoint_;
 131:Core/Inc/ros/ros/subscriber.h ****   }
 1578              		.loc 13 131 3 is_stmt 0 view .LVU378
 1579 0000 C069     		ldr	r0, [r0, #28]
 1580              	.LVL110:
ARM GAS  /tmp/ccaSmKi1.s 			page 49


 1581              		.loc 13 131 3 view .LVU379
 1582 0002 7047     		bx	lr
 1583              		.cfi_endproc
 1584              	.LFE580:
 1586              		.section	.text._ZN3ros10SubscriberIN9actuators18motor_driver_paramEvE10getMsgTypeEv,"axG",%progbit
 1587              		.align	1
 1588              		.weak	_ZN3ros10SubscriberIN9actuators18motor_driver_paramEvE10getMsgTypeEv
 1589              		.syntax unified
 1590              		.thumb
 1591              		.thumb_func
 1592              		.fpu fpv4-sp-d16
 1594              	_ZN3ros10SubscriberIN9actuators18motor_driver_paramEvE10getMsgTypeEv:
 1595              	.LVL111:
 1596              	.LFB581:
 120:Core/Inc/ros/ros/subscriber.h ****   {
 1597              		.loc 13 120 24 is_stmt 1 view -0
 1598              		.cfi_startproc
 1599              		@ args = 0, pretend = 0, frame = 0
 1600              		@ frame_needed = 0, uses_anonymous_args = 0
 1601              		@ link register save eliminated.
 1602              	.LBB273:
 1603              	.LBI273:
  62:Core/Inc/ros/actuators/motor_driver_param.h ****     virtual const char * getMD5() override { return "4dd7daa3fbb798d83aefe25263d7d1e1"; };
 1604              		.loc 1 62 26 view .LVU381
 1605              	.LBE273:
  62:Core/Inc/ros/actuators/motor_driver_param.h ****     virtual const char * getMD5() override { return "4dd7daa3fbb798d83aefe25263d7d1e1"; };
 1606              		.loc 1 62 47 view .LVU382
 123:Core/Inc/ros/ros/subscriber.h ****   virtual const char * getMsgMD5() override
 1607              		.loc 13 123 3 is_stmt 0 view .LVU383
 1608 0000 0048     		ldr	r0, .L94
 1609              	.LVL112:
 123:Core/Inc/ros/ros/subscriber.h ****   virtual const char * getMsgMD5() override
 1610              		.loc 13 123 3 view .LVU384
 1611 0002 7047     		bx	lr
 1612              	.L95:
 1613              		.align	2
 1614              	.L94:
 1615 0004 00000000 		.word	.LC0
 1616              		.cfi_endproc
 1617              	.LFE581:
 1619              		.section	.text._ZN3ros10SubscriberIN9actuators18motor_driver_paramEvE9getMsgMD5Ev,"axG",%progbits,
 1620              		.align	1
 1621              		.weak	_ZN3ros10SubscriberIN9actuators18motor_driver_paramEvE9getMsgMD5Ev
 1622              		.syntax unified
 1623              		.thumb
 1624              		.thumb_func
 1625              		.fpu fpv4-sp-d16
 1627              	_ZN3ros10SubscriberIN9actuators18motor_driver_paramEvE9getMsgMD5Ev:
 1628              	.LVL113:
 1629              	.LFB582:
 124:Core/Inc/ros/ros/subscriber.h ****   {
 1630              		.loc 13 124 24 is_stmt 1 view -0
 1631              		.cfi_startproc
 1632              		@ args = 0, pretend = 0, frame = 0
 1633              		@ frame_needed = 0, uses_anonymous_args = 0
 1634              		@ link register save eliminated.
 1635              	.LBB274:
ARM GAS  /tmp/ccaSmKi1.s 			page 50


 1636              	.LBI274:
 1637              		.loc 1 63 26 view .LVU386
 1638              	.LBE274:
 1639              		.loc 1 63 46 view .LVU387
 127:Core/Inc/ros/ros/subscriber.h ****   virtual int getEndpointType() override
 1640              		.loc 13 127 3 is_stmt 0 view .LVU388
 1641 0000 0048     		ldr	r0, .L97
 1642              	.LVL114:
 127:Core/Inc/ros/ros/subscriber.h ****   virtual int getEndpointType() override
 1643              		.loc 13 127 3 view .LVU389
 1644 0002 7047     		bx	lr
 1645              	.L98:
 1646              		.align	2
 1647              	.L97:
 1648 0004 00000000 		.word	.LC1
 1649              		.cfi_endproc
 1650              	.LFE582:
 1652              		.section	.text._ZN3ros11NodeHandle_I13STM32HardwareLi25ELi25ELi512ELi512EE9connectedEv,"axG",%prog
 1653              		.align	1
 1654              		.weak	_ZN3ros11NodeHandle_I13STM32HardwareLi25ELi25ELi512ELi512EE9connectedEv
 1655              		.syntax unified
 1656              		.thumb
 1657              		.thumb_func
 1658              		.fpu fpv4-sp-d16
 1660              	_ZN3ros11NodeHandle_I13STM32HardwareLi25ELi25ELi512ELi512EE9connectedEv:
 1661              	.LVL115:
 1662              	.LFB583:
 105:Core/Inc/ros/ros/node_handle.h **** {
 106:Core/Inc/ros/ros/node_handle.h **** protected:
 107:Core/Inc/ros/ros/node_handle.h ****   Hardware hardware_{};
 108:Core/Inc/ros/ros/node_handle.h **** 
 109:Core/Inc/ros/ros/node_handle.h ****   /* time used for syncing */
 110:Core/Inc/ros/ros/node_handle.h ****   uint32_t rt_time{0};
 111:Core/Inc/ros/ros/node_handle.h **** 
 112:Core/Inc/ros/ros/node_handle.h ****   /* used for computing current time */
 113:Core/Inc/ros/ros/node_handle.h ****   uint32_t sec_offset{0}, nsec_offset{0};
 114:Core/Inc/ros/ros/node_handle.h **** 
 115:Core/Inc/ros/ros/node_handle.h ****   /* Spinonce maximum work timeout */
 116:Core/Inc/ros/ros/node_handle.h ****   uint32_t spin_timeout_{0};
 117:Core/Inc/ros/ros/node_handle.h **** 
 118:Core/Inc/ros/ros/node_handle.h ****   uint8_t message_in[INPUT_SIZE] = {0};
 119:Core/Inc/ros/ros/node_handle.h ****   uint8_t message_out[OUTPUT_SIZE] = {0};
 120:Core/Inc/ros/ros/node_handle.h **** 
 121:Core/Inc/ros/ros/node_handle.h ****   Publisher * publishers[MAX_PUBLISHERS] = {nullptr};
 122:Core/Inc/ros/ros/node_handle.h ****   Subscriber_ * subscribers[MAX_SUBSCRIBERS] {nullptr};
 123:Core/Inc/ros/ros/node_handle.h **** 
 124:Core/Inc/ros/ros/node_handle.h ****   /*
 125:Core/Inc/ros/ros/node_handle.h ****    * Setup Functions
 126:Core/Inc/ros/ros/node_handle.h ****    */
 127:Core/Inc/ros/ros/node_handle.h **** public:
 128:Core/Inc/ros/ros/node_handle.h ****   Hardware* getHardware()
 129:Core/Inc/ros/ros/node_handle.h ****   {
 130:Core/Inc/ros/ros/node_handle.h ****     return &hardware_;
 131:Core/Inc/ros/ros/node_handle.h ****   }
 132:Core/Inc/ros/ros/node_handle.h **** 
 133:Core/Inc/ros/ros/node_handle.h ****   /* Start serial, initialize buffers */
 134:Core/Inc/ros/ros/node_handle.h ****   void initNode()
ARM GAS  /tmp/ccaSmKi1.s 			page 51


 135:Core/Inc/ros/ros/node_handle.h ****   {
 136:Core/Inc/ros/ros/node_handle.h ****     hardware_.init();
 137:Core/Inc/ros/ros/node_handle.h ****     mode_ = 0;
 138:Core/Inc/ros/ros/node_handle.h ****     bytes_ = 0;
 139:Core/Inc/ros/ros/node_handle.h ****     index_ = 0;
 140:Core/Inc/ros/ros/node_handle.h ****     topic_ = 0;
 141:Core/Inc/ros/ros/node_handle.h ****   };
 142:Core/Inc/ros/ros/node_handle.h **** 
 143:Core/Inc/ros/ros/node_handle.h ****   /* Start a named port, which may be network server IP, initialize buffers */
 144:Core/Inc/ros/ros/node_handle.h ****   void initNode(char *portName)
 145:Core/Inc/ros/ros/node_handle.h ****   {
 146:Core/Inc/ros/ros/node_handle.h ****     hardware_.init(portName);
 147:Core/Inc/ros/ros/node_handle.h ****     mode_ = 0;
 148:Core/Inc/ros/ros/node_handle.h ****     bytes_ = 0;
 149:Core/Inc/ros/ros/node_handle.h ****     index_ = 0;
 150:Core/Inc/ros/ros/node_handle.h ****     topic_ = 0;
 151:Core/Inc/ros/ros/node_handle.h ****   };
 152:Core/Inc/ros/ros/node_handle.h **** 
 153:Core/Inc/ros/ros/node_handle.h ****   /**
 154:Core/Inc/ros/ros/node_handle.h ****    * @brief Sets the maximum time in millisconds that spinOnce() can work.
 155:Core/Inc/ros/ros/node_handle.h ****    * This will not effect the processing of the buffer, as spinOnce processes
 156:Core/Inc/ros/ros/node_handle.h ****    * one byte at a time. It simply sets the maximum time that one call can
 157:Core/Inc/ros/ros/node_handle.h ****    * process for. You can choose to clear the buffer if that is beneficial if
 158:Core/Inc/ros/ros/node_handle.h ****    * SPIN_TIMEOUT is returned from spinOnce().
 159:Core/Inc/ros/ros/node_handle.h ****    * @param timeout The timeout in milliseconds that spinOnce will function.
 160:Core/Inc/ros/ros/node_handle.h ****    */
 161:Core/Inc/ros/ros/node_handle.h ****   void setSpinTimeout(const uint32_t& timeout)
 162:Core/Inc/ros/ros/node_handle.h ****   {
 163:Core/Inc/ros/ros/node_handle.h ****      spin_timeout_ = timeout;
 164:Core/Inc/ros/ros/node_handle.h ****   }
 165:Core/Inc/ros/ros/node_handle.h **** 
 166:Core/Inc/ros/ros/node_handle.h **** protected:
 167:Core/Inc/ros/ros/node_handle.h ****   // State machine variables for spinOnce
 168:Core/Inc/ros/ros/node_handle.h ****   int mode_{0};
 169:Core/Inc/ros/ros/node_handle.h ****   int bytes_{0};
 170:Core/Inc/ros/ros/node_handle.h ****   int topic_{0};
 171:Core/Inc/ros/ros/node_handle.h ****   int index_{0};
 172:Core/Inc/ros/ros/node_handle.h ****   int checksum_{0};
 173:Core/Inc/ros/ros/node_handle.h **** 
 174:Core/Inc/ros/ros/node_handle.h ****   bool configured_{false};
 175:Core/Inc/ros/ros/node_handle.h **** 
 176:Core/Inc/ros/ros/node_handle.h ****   /* used for syncing the time */
 177:Core/Inc/ros/ros/node_handle.h ****   uint32_t last_sync_time{0};
 178:Core/Inc/ros/ros/node_handle.h ****   uint32_t last_sync_receive_time{0};
 179:Core/Inc/ros/ros/node_handle.h ****   uint32_t last_msg_timeout_time{0};
 180:Core/Inc/ros/ros/node_handle.h **** 
 181:Core/Inc/ros/ros/node_handle.h **** public:
 182:Core/Inc/ros/ros/node_handle.h ****   /* This function goes in your loop() function, it handles
 183:Core/Inc/ros/ros/node_handle.h ****    *  serial input and callbacks for subscribers.
 184:Core/Inc/ros/ros/node_handle.h ****    */
 185:Core/Inc/ros/ros/node_handle.h **** 
 186:Core/Inc/ros/ros/node_handle.h **** 
 187:Core/Inc/ros/ros/node_handle.h ****   virtual int spinOnce() override
 188:Core/Inc/ros/ros/node_handle.h ****   {
 189:Core/Inc/ros/ros/node_handle.h ****     /* restart if timed out */
 190:Core/Inc/ros/ros/node_handle.h ****     uint32_t c_time = hardware_.time();
 191:Core/Inc/ros/ros/node_handle.h ****     if ((c_time - last_sync_receive_time) > (SYNC_SECONDS * 2200))
ARM GAS  /tmp/ccaSmKi1.s 			page 52


 192:Core/Inc/ros/ros/node_handle.h ****     {
 193:Core/Inc/ros/ros/node_handle.h ****       configured_ = false;
 194:Core/Inc/ros/ros/node_handle.h ****     }
 195:Core/Inc/ros/ros/node_handle.h **** 
 196:Core/Inc/ros/ros/node_handle.h ****     /* reset if message has timed out */
 197:Core/Inc/ros/ros/node_handle.h ****     if (mode_ != MODE_FIRST_FF)
 198:Core/Inc/ros/ros/node_handle.h ****     {
 199:Core/Inc/ros/ros/node_handle.h ****       if (c_time > last_msg_timeout_time)
 200:Core/Inc/ros/ros/node_handle.h ****       {
 201:Core/Inc/ros/ros/node_handle.h ****         mode_ = MODE_FIRST_FF;
 202:Core/Inc/ros/ros/node_handle.h ****       }
 203:Core/Inc/ros/ros/node_handle.h ****     }
 204:Core/Inc/ros/ros/node_handle.h **** 
 205:Core/Inc/ros/ros/node_handle.h ****     /* while available buffer, read data */
 206:Core/Inc/ros/ros/node_handle.h ****     while (true)
 207:Core/Inc/ros/ros/node_handle.h ****     {
 208:Core/Inc/ros/ros/node_handle.h ****       // If a timeout has been specified, check how long spinOnce has been running.
 209:Core/Inc/ros/ros/node_handle.h ****       if (spin_timeout_ > 0)
 210:Core/Inc/ros/ros/node_handle.h ****       {
 211:Core/Inc/ros/ros/node_handle.h ****         // If the maximum processing timeout has been exceeded, exit with error.
 212:Core/Inc/ros/ros/node_handle.h ****         // The next spinOnce can continue where it left off, or optionally
 213:Core/Inc/ros/ros/node_handle.h ****         // based on the application in use, the hardware buffer could be flushed
 214:Core/Inc/ros/ros/node_handle.h ****         // and start fresh.
 215:Core/Inc/ros/ros/node_handle.h ****         if ((hardware_.time() - c_time) > spin_timeout_)
 216:Core/Inc/ros/ros/node_handle.h ****         {
 217:Core/Inc/ros/ros/node_handle.h ****           // Exit the spin, processing timeout exceeded.
 218:Core/Inc/ros/ros/node_handle.h ****           return SPIN_TIMEOUT;
 219:Core/Inc/ros/ros/node_handle.h ****         }
 220:Core/Inc/ros/ros/node_handle.h ****       }
 221:Core/Inc/ros/ros/node_handle.h ****       int data = hardware_.read();
 222:Core/Inc/ros/ros/node_handle.h ****       if (data < 0)
 223:Core/Inc/ros/ros/node_handle.h ****         break;
 224:Core/Inc/ros/ros/node_handle.h ****       checksum_ += data;
 225:Core/Inc/ros/ros/node_handle.h ****       if (mode_ == MODE_MESSAGE)          /* message data being recieved */
 226:Core/Inc/ros/ros/node_handle.h ****       {
 227:Core/Inc/ros/ros/node_handle.h ****         message_in[index_++] = data;
 228:Core/Inc/ros/ros/node_handle.h ****         bytes_--;
 229:Core/Inc/ros/ros/node_handle.h ****         if (bytes_ == 0)                 /* is message complete? if so, checksum */
 230:Core/Inc/ros/ros/node_handle.h ****           mode_ = MODE_MSG_CHECKSUM;
 231:Core/Inc/ros/ros/node_handle.h ****       }
 232:Core/Inc/ros/ros/node_handle.h ****       else if (mode_ == MODE_FIRST_FF)
 233:Core/Inc/ros/ros/node_handle.h ****       {
 234:Core/Inc/ros/ros/node_handle.h ****         if (data == 0xff)
 235:Core/Inc/ros/ros/node_handle.h ****         {
 236:Core/Inc/ros/ros/node_handle.h ****           mode_++;
 237:Core/Inc/ros/ros/node_handle.h ****           last_msg_timeout_time = c_time + SERIAL_MSG_TIMEOUT;
 238:Core/Inc/ros/ros/node_handle.h ****         }
 239:Core/Inc/ros/ros/node_handle.h ****         else if (hardware_.time() - c_time > (SYNC_SECONDS * 1000))
 240:Core/Inc/ros/ros/node_handle.h ****         {
 241:Core/Inc/ros/ros/node_handle.h ****           /* We have been stuck in spinOnce too long, return error */
 242:Core/Inc/ros/ros/node_handle.h ****           configured_ = false;
 243:Core/Inc/ros/ros/node_handle.h ****           return SPIN_TIMEOUT;
 244:Core/Inc/ros/ros/node_handle.h ****         }
 245:Core/Inc/ros/ros/node_handle.h ****       }
 246:Core/Inc/ros/ros/node_handle.h ****       else if (mode_ == MODE_PROTOCOL_VER)
 247:Core/Inc/ros/ros/node_handle.h ****       {
 248:Core/Inc/ros/ros/node_handle.h ****         if (data == PROTOCOL_VER)
ARM GAS  /tmp/ccaSmKi1.s 			page 53


 249:Core/Inc/ros/ros/node_handle.h ****         {
 250:Core/Inc/ros/ros/node_handle.h ****           mode_++;
 251:Core/Inc/ros/ros/node_handle.h ****         }
 252:Core/Inc/ros/ros/node_handle.h ****         else
 253:Core/Inc/ros/ros/node_handle.h ****         {
 254:Core/Inc/ros/ros/node_handle.h ****           mode_ = MODE_FIRST_FF;
 255:Core/Inc/ros/ros/node_handle.h ****           if (configured_ == false)
 256:Core/Inc/ros/ros/node_handle.h ****             requestSyncTime();  /* send a msg back showing our protocol version */
 257:Core/Inc/ros/ros/node_handle.h ****         }
 258:Core/Inc/ros/ros/node_handle.h ****       }
 259:Core/Inc/ros/ros/node_handle.h ****       else if (mode_ == MODE_SIZE_L)      /* bottom half of message size */
 260:Core/Inc/ros/ros/node_handle.h ****       {
 261:Core/Inc/ros/ros/node_handle.h ****         bytes_ = data;
 262:Core/Inc/ros/ros/node_handle.h ****         index_ = 0;
 263:Core/Inc/ros/ros/node_handle.h ****         mode_++;
 264:Core/Inc/ros/ros/node_handle.h ****         checksum_ = data;               /* first byte for calculating size checksum */
 265:Core/Inc/ros/ros/node_handle.h ****       }
 266:Core/Inc/ros/ros/node_handle.h ****       else if (mode_ == MODE_SIZE_H)      /* top half of message size */
 267:Core/Inc/ros/ros/node_handle.h ****       {
 268:Core/Inc/ros/ros/node_handle.h ****         bytes_ += data << 8;
 269:Core/Inc/ros/ros/node_handle.h ****         mode_++;
 270:Core/Inc/ros/ros/node_handle.h ****       }
 271:Core/Inc/ros/ros/node_handle.h ****       else if (mode_ == MODE_SIZE_CHECKSUM)
 272:Core/Inc/ros/ros/node_handle.h ****       {
 273:Core/Inc/ros/ros/node_handle.h ****         if ((checksum_ % 256) == 255)
 274:Core/Inc/ros/ros/node_handle.h ****           mode_++;
 275:Core/Inc/ros/ros/node_handle.h ****         else
 276:Core/Inc/ros/ros/node_handle.h ****           mode_ = MODE_FIRST_FF;          /* Abandon the frame if the msg len is wrong */
 277:Core/Inc/ros/ros/node_handle.h ****       }
 278:Core/Inc/ros/ros/node_handle.h ****       else if (mode_ == MODE_TOPIC_L)     /* bottom half of topic id */
 279:Core/Inc/ros/ros/node_handle.h ****       {
 280:Core/Inc/ros/ros/node_handle.h ****         topic_ = data;
 281:Core/Inc/ros/ros/node_handle.h ****         mode_++;
 282:Core/Inc/ros/ros/node_handle.h ****         checksum_ = data;               /* first byte included in checksum */
 283:Core/Inc/ros/ros/node_handle.h ****       }
 284:Core/Inc/ros/ros/node_handle.h ****       else if (mode_ == MODE_TOPIC_H)     /* top half of topic id */
 285:Core/Inc/ros/ros/node_handle.h ****       {
 286:Core/Inc/ros/ros/node_handle.h ****         topic_ += data << 8;
 287:Core/Inc/ros/ros/node_handle.h ****         mode_ = MODE_MESSAGE;
 288:Core/Inc/ros/ros/node_handle.h ****         if (bytes_ == 0)
 289:Core/Inc/ros/ros/node_handle.h ****           mode_ = MODE_MSG_CHECKSUM;
 290:Core/Inc/ros/ros/node_handle.h ****       }
 291:Core/Inc/ros/ros/node_handle.h ****       else if (mode_ == MODE_MSG_CHECKSUM)    /* do checksum */
 292:Core/Inc/ros/ros/node_handle.h ****       {
 293:Core/Inc/ros/ros/node_handle.h ****         mode_ = MODE_FIRST_FF;
 294:Core/Inc/ros/ros/node_handle.h ****         if ((checksum_ % 256) == 255)
 295:Core/Inc/ros/ros/node_handle.h ****         {
 296:Core/Inc/ros/ros/node_handle.h ****           if (topic_ == TopicInfo::ID_PUBLISHER)
 297:Core/Inc/ros/ros/node_handle.h ****           {
 298:Core/Inc/ros/ros/node_handle.h ****             requestSyncTime();
 299:Core/Inc/ros/ros/node_handle.h ****             negotiateTopics();
 300:Core/Inc/ros/ros/node_handle.h ****             last_sync_time = c_time;
 301:Core/Inc/ros/ros/node_handle.h ****             last_sync_receive_time = c_time;
 302:Core/Inc/ros/ros/node_handle.h ****             return SPIN_ERR;
 303:Core/Inc/ros/ros/node_handle.h ****           }
 304:Core/Inc/ros/ros/node_handle.h ****           else if (topic_ == TopicInfo::ID_TIME)
 305:Core/Inc/ros/ros/node_handle.h ****           {
ARM GAS  /tmp/ccaSmKi1.s 			page 54


 306:Core/Inc/ros/ros/node_handle.h ****             syncTime(message_in);
 307:Core/Inc/ros/ros/node_handle.h ****           }
 308:Core/Inc/ros/ros/node_handle.h ****           else if (topic_ == TopicInfo::ID_PARAMETER_REQUEST)
 309:Core/Inc/ros/ros/node_handle.h ****           {
 310:Core/Inc/ros/ros/node_handle.h ****             req_param_resp.deserialize(message_in);
 311:Core/Inc/ros/ros/node_handle.h ****             param_received = true;
 312:Core/Inc/ros/ros/node_handle.h ****           }
 313:Core/Inc/ros/ros/node_handle.h ****           else if (topic_ == TopicInfo::ID_TX_STOP)
 314:Core/Inc/ros/ros/node_handle.h ****           {
 315:Core/Inc/ros/ros/node_handle.h ****             configured_ = false;
 316:Core/Inc/ros/ros/node_handle.h ****           }
 317:Core/Inc/ros/ros/node_handle.h ****           else
 318:Core/Inc/ros/ros/node_handle.h ****           {
 319:Core/Inc/ros/ros/node_handle.h ****             if (subscribers[topic_ - 100])
 320:Core/Inc/ros/ros/node_handle.h ****               subscribers[topic_ - 100]->callback(message_in);
 321:Core/Inc/ros/ros/node_handle.h ****           }
 322:Core/Inc/ros/ros/node_handle.h ****         }
 323:Core/Inc/ros/ros/node_handle.h ****       }
 324:Core/Inc/ros/ros/node_handle.h ****     }
 325:Core/Inc/ros/ros/node_handle.h **** 
 326:Core/Inc/ros/ros/node_handle.h ****     /* occasionally sync time */
 327:Core/Inc/ros/ros/node_handle.h ****     if (configured_ && ((c_time - last_sync_time) > (SYNC_SECONDS * 500)))
 328:Core/Inc/ros/ros/node_handle.h ****     {
 329:Core/Inc/ros/ros/node_handle.h ****       requestSyncTime();
 330:Core/Inc/ros/ros/node_handle.h ****       last_sync_time = c_time;
 331:Core/Inc/ros/ros/node_handle.h ****     }
 332:Core/Inc/ros/ros/node_handle.h **** 
 333:Core/Inc/ros/ros/node_handle.h ****     return SPIN_OK;
 334:Core/Inc/ros/ros/node_handle.h ****   }
 335:Core/Inc/ros/ros/node_handle.h **** 
 336:Core/Inc/ros/ros/node_handle.h **** 
 337:Core/Inc/ros/ros/node_handle.h ****   /* Are we connected to the PC? */
 338:Core/Inc/ros/ros/node_handle.h ****   virtual bool connected() override
 1663              		.loc 9 338 16 is_stmt 1 view -0
 1664              		.cfi_startproc
 1665              		@ args = 0, pretend = 0, frame = 0
 1666              		@ frame_needed = 0, uses_anonymous_args = 0
 1667              		@ link register save eliminated.
 339:Core/Inc/ros/ros/node_handle.h ****   {
 340:Core/Inc/ros/ros/node_handle.h ****     return configured_;
 341:Core/Inc/ros/ros/node_handle.h ****   };
 1668              		.loc 9 341 3 is_stmt 0 view .LVU391
 1669 0000 90F80009 		ldrb	r0, [r0, #2304]	@ zero_extendqisi2
 1670              	.LVL116:
 1671              		.loc 9 341 3 view .LVU392
 1672 0004 7047     		bx	lr
 1673              		.cfi_endproc
 1674              	.LFE583:
 1676              		.section	.text._Z19motor_base_callbackRKN9actuators18motor_driver_paramE,"ax",%progbits
 1677              		.align	1
 1678              		.global	_Z19motor_base_callbackRKN9actuators18motor_driver_paramE
 1679              		.syntax unified
 1680              		.thumb
 1681              		.thumb_func
 1682              		.fpu fpv4-sp-d16
 1684              	_Z19motor_base_callbackRKN9actuators18motor_driver_paramE:
 1685              	.LVL117:
ARM GAS  /tmp/ccaSmKi1.s 			page 55


 1686              	.LFB549:
  24:Core/Src/operation.cpp **** {
 1687              		.loc 8 24 1 is_stmt 1 view -0
 1688              		.cfi_startproc
 1689              		@ args = 0, pretend = 0, frame = 16
 1690              		@ frame_needed = 0, uses_anonymous_args = 0
  24:Core/Src/operation.cpp **** {
 1691              		.loc 8 24 1 is_stmt 0 view .LVU394
 1692 0000 00B5     		push	{lr}
 1693              	.LCFI8:
 1694              		.cfi_def_cfa_offset 4
 1695              		.cfi_offset 14, -4
 1696 0002 85B0     		sub	sp, sp, #20
 1697              	.LCFI9:
 1698              		.cfi_def_cfa_offset 24
  25:Core/Src/operation.cpp ****   motor_[msg.id].set_motorParam(msg);
 1699              		.loc 8 25 3 is_stmt 1 view .LVU395
  25:Core/Src/operation.cpp ****   motor_[msg.id].set_motorParam(msg);
 1700              		.loc 8 25 14 is_stmt 0 view .LVU396
 1701 0004 0379     		ldrb	r3, [r0, #4]	@ zero_extendqisi2
 1702              	.LVL118:
 1703              	.LBB275:
 1704              	.LBI275:
  12:Core/Inc/ros/actuators/motor_driver_param.h ****   {
 1705              		.loc 1 12 9 is_stmt 1 view .LVU397
 1706              	.LBB276:
 1707              	.LBB277:
 1708              	.LBB278:
 1709              	.LBI278:
 1710              		.loc 11 46 7 view .LVU398
 1711              	.LBB279:
 1712              	.LBB280:
 1713 0006 0C4A     		ldr	r2, .L102
 1714 0008 0192     		str	r2, [sp, #4]
 1715              	.LVL119:
 1716              		.loc 11 46 7 is_stmt 0 view .LVU399
 1717              	.LBE280:
 1718              	.LBE279:
 1719              	.LBE278:
  12:Core/Inc/ros/actuators/motor_driver_param.h ****   {
 1720              		.loc 1 12 9 view .LVU400
 1721 000a 0C4A     		ldr	r2, .L102+4
 1722 000c 0192     		str	r2, [sp, #4]
 1723 000e 8DF80830 		strb	r3, [sp, #8]
 1724 0012 4279     		ldrb	r2, [r0, #5]	@ zero_extendqisi2
 1725 0014 8DF80920 		strb	r2, [sp, #9]
 1726 0018 8279     		ldrb	r2, [r0, #6]	@ zero_extendqisi2
 1727 001a 8DF80A20 		strb	r2, [sp, #10]
 1728 001e 0289     		ldrh	r2, [r0, #8]
 1729 0020 ADF80C20 		strh	r2, [sp, #12]	@ movhi
 1730              	.LVL120:
  12:Core/Inc/ros/actuators/motor_driver_param.h ****   {
 1731              		.loc 1 12 9 view .LVU401
 1732              	.LBE277:
 1733              	.LBE276:
 1734              	.LBE275:
  25:Core/Src/operation.cpp ****   motor_[msg.id].set_motorParam(msg);
ARM GAS  /tmp/ccaSmKi1.s 			page 56


 1735              		.loc 8 25 32 view .LVU402
 1736 0024 01A9     		add	r1, sp, #4
 1737 0026 0648     		ldr	r0, .L102+8
 1738              	.LVL121:
  25:Core/Src/operation.cpp ****   motor_[msg.id].set_motorParam(msg);
 1739              		.loc 8 25 32 view .LVU403
 1740 0028 00EB0310 		add	r0, r0, r3, lsl #4
 1741 002c FFF7FEFF 		bl	_ZN5motor14set_motorParamEN9actuators18motor_driver_paramE
 1742              	.LVL122:
  31:Core/Src/operation.cpp **** }
 1743              		.loc 8 31 1 view .LVU404
 1744 0030 05B0     		add	sp, sp, #20
 1745              	.LCFI10:
 1746              		.cfi_def_cfa_offset 4
 1747              		@ sp needed
 1748 0032 5DF804FB 		ldr	pc, [sp], #4
 1749              	.L103:
 1750 0036 00BF     		.align	2
 1751              	.L102:
 1752 0038 08000000 		.word	_ZTVN3ros3MsgE+8
 1753 003c 08000000 		.word	_ZTVN9actuators18motor_driver_paramE+8
 1754 0040 00000000 		.word	motor_
 1755              		.cfi_endproc
 1756              	.LFE549:
 1758              		.section	.rodata._ZN3ros11NodeHandle_I13STM32HardwareLi25ELi25ELi512ELi512EE7publishEiPKNS_3MsgE.s
 1759              		.align	2
 1760              	.LC16:
 1761 0000 00       		.ascii	"\000"
 1762 0001 000000   		.align	2
 1763              	.LC17:
 1764 0004 4D657373 		.ascii	"Message from device dropped: message larger than bu"
 1764      61676520 
 1764      66726F6D 
 1764      20646576 
 1764      69636520 
 1765 0037 66666572 		.ascii	"ffer.\000"
 1765      2E00
 1766              		.section	.text._ZN3ros11NodeHandle_I13STM32HardwareLi25ELi25ELi512ELi512EE7publishEiPKNS_3MsgE,"ax
 1767              		.align	1
 1768              		.weak	_ZN3ros11NodeHandle_I13STM32HardwareLi25ELi25ELi512ELi512EE7publishEiPKNS_3MsgE
 1769              		.syntax unified
 1770              		.thumb
 1771              		.thumb_func
 1772              		.fpu fpv4-sp-d16
 1774              	_ZN3ros11NodeHandle_I13STM32HardwareLi25ELi25ELi512ELi512EE7publishEiPKNS_3MsgE:
 1775              	.LVL123:
 1776              	.LFB574:
 342:Core/Inc/ros/ros/node_handle.h **** 
 343:Core/Inc/ros/ros/node_handle.h ****   /********************************************************************
 344:Core/Inc/ros/ros/node_handle.h ****    * Time functions
 345:Core/Inc/ros/ros/node_handle.h ****    */
 346:Core/Inc/ros/ros/node_handle.h **** 
 347:Core/Inc/ros/ros/node_handle.h ****   void requestSyncTime()
 348:Core/Inc/ros/ros/node_handle.h ****   {
 349:Core/Inc/ros/ros/node_handle.h ****     std_msgs::Time t;
 350:Core/Inc/ros/ros/node_handle.h ****     publish(TopicInfo::ID_TIME, &t);
 351:Core/Inc/ros/ros/node_handle.h ****     rt_time = hardware_.time();
ARM GAS  /tmp/ccaSmKi1.s 			page 57


 352:Core/Inc/ros/ros/node_handle.h ****   }
 353:Core/Inc/ros/ros/node_handle.h **** 
 354:Core/Inc/ros/ros/node_handle.h ****   void syncTime(uint8_t * data)
 355:Core/Inc/ros/ros/node_handle.h ****   {
 356:Core/Inc/ros/ros/node_handle.h ****     std_msgs::Time t;
 357:Core/Inc/ros/ros/node_handle.h ****     uint32_t offset = hardware_.time() - rt_time;
 358:Core/Inc/ros/ros/node_handle.h **** 
 359:Core/Inc/ros/ros/node_handle.h ****     t.deserialize(data);
 360:Core/Inc/ros/ros/node_handle.h ****     t.data.sec += offset / 1000;
 361:Core/Inc/ros/ros/node_handle.h ****     t.data.nsec += (offset % 1000) * 1000000UL;
 362:Core/Inc/ros/ros/node_handle.h **** 
 363:Core/Inc/ros/ros/node_handle.h ****     this->setNow(t.data);
 364:Core/Inc/ros/ros/node_handle.h ****     last_sync_receive_time = hardware_.time();
 365:Core/Inc/ros/ros/node_handle.h ****   }
 366:Core/Inc/ros/ros/node_handle.h **** 
 367:Core/Inc/ros/ros/node_handle.h ****   Time now()
 368:Core/Inc/ros/ros/node_handle.h ****   {
 369:Core/Inc/ros/ros/node_handle.h ****     uint32_t ms = hardware_.time();
 370:Core/Inc/ros/ros/node_handle.h ****     Time current_time;
 371:Core/Inc/ros/ros/node_handle.h ****     current_time.sec = ms / 1000 + sec_offset;
 372:Core/Inc/ros/ros/node_handle.h ****     current_time.nsec = (ms % 1000) * 1000000UL + nsec_offset;
 373:Core/Inc/ros/ros/node_handle.h ****     normalizeSecNSec(current_time.sec, current_time.nsec);
 374:Core/Inc/ros/ros/node_handle.h ****     return current_time;
 375:Core/Inc/ros/ros/node_handle.h ****   }
 376:Core/Inc/ros/ros/node_handle.h **** 
 377:Core/Inc/ros/ros/node_handle.h ****   void setNow(const Time & new_now)
 378:Core/Inc/ros/ros/node_handle.h ****   {
 379:Core/Inc/ros/ros/node_handle.h ****     uint32_t ms = hardware_.time();
 380:Core/Inc/ros/ros/node_handle.h ****     sec_offset = new_now.sec - ms / 1000 - 1;
 381:Core/Inc/ros/ros/node_handle.h ****     nsec_offset = new_now.nsec - (ms % 1000) * 1000000UL + 1000000000UL;
 382:Core/Inc/ros/ros/node_handle.h ****     normalizeSecNSec(sec_offset, nsec_offset);
 383:Core/Inc/ros/ros/node_handle.h ****   }
 384:Core/Inc/ros/ros/node_handle.h **** 
 385:Core/Inc/ros/ros/node_handle.h ****   /********************************************************************
 386:Core/Inc/ros/ros/node_handle.h ****    * Topic Management
 387:Core/Inc/ros/ros/node_handle.h ****    */
 388:Core/Inc/ros/ros/node_handle.h **** 
 389:Core/Inc/ros/ros/node_handle.h ****   /* Register a new publisher */
 390:Core/Inc/ros/ros/node_handle.h ****   bool advertise(Publisher & p)
 391:Core/Inc/ros/ros/node_handle.h ****   {
 392:Core/Inc/ros/ros/node_handle.h ****     for (int i = 0; i < MAX_PUBLISHERS; i++)
 393:Core/Inc/ros/ros/node_handle.h ****     {
 394:Core/Inc/ros/ros/node_handle.h ****       if (publishers[i] == 0) // empty slot
 395:Core/Inc/ros/ros/node_handle.h ****       {
 396:Core/Inc/ros/ros/node_handle.h ****         publishers[i] = &p;
 397:Core/Inc/ros/ros/node_handle.h ****         p.id_ = i + 100 + MAX_SUBSCRIBERS;
 398:Core/Inc/ros/ros/node_handle.h ****         p.nh_ = this;
 399:Core/Inc/ros/ros/node_handle.h ****         return true;
 400:Core/Inc/ros/ros/node_handle.h ****       }
 401:Core/Inc/ros/ros/node_handle.h ****     }
 402:Core/Inc/ros/ros/node_handle.h ****     return false;
 403:Core/Inc/ros/ros/node_handle.h ****   }
 404:Core/Inc/ros/ros/node_handle.h **** 
 405:Core/Inc/ros/ros/node_handle.h ****   /* Register a new subscriber */
 406:Core/Inc/ros/ros/node_handle.h ****   bool subscribe(Subscriber_& s)
 407:Core/Inc/ros/ros/node_handle.h ****   {
 408:Core/Inc/ros/ros/node_handle.h ****     for (int i = 0; i < MAX_SUBSCRIBERS; i++)
ARM GAS  /tmp/ccaSmKi1.s 			page 58


 409:Core/Inc/ros/ros/node_handle.h ****     {
 410:Core/Inc/ros/ros/node_handle.h ****       if (subscribers[i] == 0) // empty slot
 411:Core/Inc/ros/ros/node_handle.h ****       {
 412:Core/Inc/ros/ros/node_handle.h ****         subscribers[i] = &s;
 413:Core/Inc/ros/ros/node_handle.h ****         s.id_ = i + 100;
 414:Core/Inc/ros/ros/node_handle.h ****         return true;
 415:Core/Inc/ros/ros/node_handle.h ****       }
 416:Core/Inc/ros/ros/node_handle.h ****     }
 417:Core/Inc/ros/ros/node_handle.h ****     return false;
 418:Core/Inc/ros/ros/node_handle.h ****   }
 419:Core/Inc/ros/ros/node_handle.h **** 
 420:Core/Inc/ros/ros/node_handle.h ****   /* Register a new Service Server */
 421:Core/Inc/ros/ros/node_handle.h ****   template<typename MReq, typename MRes, typename ObjT>
 422:Core/Inc/ros/ros/node_handle.h ****   bool advertiseService(ServiceServer<MReq, MRes, ObjT>& srv)
 423:Core/Inc/ros/ros/node_handle.h ****   {
 424:Core/Inc/ros/ros/node_handle.h ****     bool v = advertise(srv.pub);
 425:Core/Inc/ros/ros/node_handle.h ****     bool w = subscribe(srv);
 426:Core/Inc/ros/ros/node_handle.h ****     return v && w;
 427:Core/Inc/ros/ros/node_handle.h ****   }
 428:Core/Inc/ros/ros/node_handle.h **** 
 429:Core/Inc/ros/ros/node_handle.h ****   /* Register a new Service Client */
 430:Core/Inc/ros/ros/node_handle.h ****   template<typename MReq, typename MRes>
 431:Core/Inc/ros/ros/node_handle.h ****   bool serviceClient(ServiceClient<MReq, MRes>& srv)
 432:Core/Inc/ros/ros/node_handle.h ****   {
 433:Core/Inc/ros/ros/node_handle.h ****     bool v = advertise(srv.pub);
 434:Core/Inc/ros/ros/node_handle.h ****     bool w = subscribe(srv);
 435:Core/Inc/ros/ros/node_handle.h ****     return v && w;
 436:Core/Inc/ros/ros/node_handle.h ****   }
 437:Core/Inc/ros/ros/node_handle.h **** 
 438:Core/Inc/ros/ros/node_handle.h ****   void negotiateTopics()
 439:Core/Inc/ros/ros/node_handle.h ****   {
 440:Core/Inc/ros/ros/node_handle.h ****     rosserial_msgs::TopicInfo ti;
 441:Core/Inc/ros/ros/node_handle.h ****     int i;
 442:Core/Inc/ros/ros/node_handle.h ****     for (i = 0; i < MAX_PUBLISHERS; i++)
 443:Core/Inc/ros/ros/node_handle.h ****     {
 444:Core/Inc/ros/ros/node_handle.h ****       if (publishers[i] != 0) // non-empty slot
 445:Core/Inc/ros/ros/node_handle.h ****       {
 446:Core/Inc/ros/ros/node_handle.h ****         ti.topic_id = publishers[i]->id_;
 447:Core/Inc/ros/ros/node_handle.h ****         ti.topic_name = (char *) publishers[i]->topic_;
 448:Core/Inc/ros/ros/node_handle.h ****         ti.message_type = (char *) publishers[i]->msg_->getType();
 449:Core/Inc/ros/ros/node_handle.h ****         ti.md5sum = (char *) publishers[i]->msg_->getMD5();
 450:Core/Inc/ros/ros/node_handle.h ****         ti.buffer_size = OUTPUT_SIZE;
 451:Core/Inc/ros/ros/node_handle.h ****         publish(publishers[i]->getEndpointType(), &ti);
 452:Core/Inc/ros/ros/node_handle.h ****       }
 453:Core/Inc/ros/ros/node_handle.h ****     }
 454:Core/Inc/ros/ros/node_handle.h ****     for (i = 0; i < MAX_SUBSCRIBERS; i++)
 455:Core/Inc/ros/ros/node_handle.h ****     {
 456:Core/Inc/ros/ros/node_handle.h ****       if (subscribers[i] != 0) // non-empty slot
 457:Core/Inc/ros/ros/node_handle.h ****       {
 458:Core/Inc/ros/ros/node_handle.h ****         ti.topic_id = subscribers[i]->id_;
 459:Core/Inc/ros/ros/node_handle.h ****         ti.topic_name = (char *) subscribers[i]->topic_;
 460:Core/Inc/ros/ros/node_handle.h ****         ti.message_type = (char *) subscribers[i]->getMsgType();
 461:Core/Inc/ros/ros/node_handle.h ****         ti.md5sum = (char *) subscribers[i]->getMsgMD5();
 462:Core/Inc/ros/ros/node_handle.h ****         ti.buffer_size = INPUT_SIZE;
 463:Core/Inc/ros/ros/node_handle.h ****         publish(subscribers[i]->getEndpointType(), &ti);
 464:Core/Inc/ros/ros/node_handle.h ****       }
 465:Core/Inc/ros/ros/node_handle.h ****     }
ARM GAS  /tmp/ccaSmKi1.s 			page 59


 466:Core/Inc/ros/ros/node_handle.h ****     configured_ = true;
 467:Core/Inc/ros/ros/node_handle.h ****   }
 468:Core/Inc/ros/ros/node_handle.h **** 
 469:Core/Inc/ros/ros/node_handle.h ****   virtual int publish(int id, const Msg * msg) override
 1777              		.loc 9 469 15 is_stmt 1 view -0
 1778              		.cfi_startproc
 1779              		@ args = 0, pretend = 0, frame = 16
 1780              		@ frame_needed = 0, uses_anonymous_args = 0
 1781              		.loc 9 469 15 is_stmt 0 view .LVU406
 1782 0000 2DE9F043 		push	{r4, r5, r6, r7, r8, r9, lr}
 1783              	.LCFI11:
 1784              		.cfi_def_cfa_offset 28
 1785              		.cfi_offset 4, -28
 1786              		.cfi_offset 5, -24
 1787              		.cfi_offset 6, -20
 1788              		.cfi_offset 7, -16
 1789              		.cfi_offset 8, -12
 1790              		.cfi_offset 9, -8
 1791              		.cfi_offset 14, -4
 1792 0004 85B0     		sub	sp, sp, #20
 1793              	.LCFI12:
 1794              		.cfi_def_cfa_offset 48
 1795 0006 0446     		mov	r4, r0
 1796 0008 0D46     		mov	r5, r1
 1797 000a 1046     		mov	r0, r2
 1798              	.LVL124:
 470:Core/Inc/ros/ros/node_handle.h ****   {
 471:Core/Inc/ros/ros/node_handle.h ****     if (id >= 100 && !configured_)
 1799              		.loc 9 471 5 view .LVU407
 1800 000c 6329     		cmp	r1, #99
 1801 000e 04DD     		ble	.L105
 1802              		.loc 9 471 23 discriminator 1 view .LVU408
 1803 0010 94F80039 		ldrb	r3, [r4, #2304]	@ zero_extendqisi2
 1804              		.loc 9 471 19 discriminator 1 view .LVU409
 1805 0014 002B     		cmp	r3, #0
 1806 0016 00F0AA80 		beq	.L115
 1807              	.L105:
 472:Core/Inc/ros/ros/node_handle.h ****       return 0;
 473:Core/Inc/ros/ros/node_handle.h **** 
 474:Core/Inc/ros/ros/node_handle.h ****     /* serialize message */
 475:Core/Inc/ros/ros/node_handle.h ****     int l = msg->serialize(message_out + 7);
 1808              		.loc 9 475 27 view .LVU410
 1809 001a 0368     		ldr	r3, [r0]
 1810 001c 1B68     		ldr	r3, [r3]
 1811 001e 04F22B61 		addw	r1, r4, #1579
 1812              	.LVL125:
 1813              		.loc 9 475 27 view .LVU411
 1814 0022 9847     		blx	r3
 1815              	.LVL126:
 476:Core/Inc/ros/ros/node_handle.h **** 
 477:Core/Inc/ros/ros/node_handle.h ****     /* setup the header */
 478:Core/Inc/ros/ros/node_handle.h ****     message_out[0] = 0xff;
 1816              		.loc 9 478 20 view .LVU412
 1817 0024 FF23     		movs	r3, #255
 1818 0026 84F82436 		strb	r3, [r4, #1572]
 479:Core/Inc/ros/ros/node_handle.h ****     message_out[1] = PROTOCOL_VER;
 1819              		.loc 9 479 20 view .LVU413
ARM GAS  /tmp/ccaSmKi1.s 			page 60


 1820 002a FE23     		movs	r3, #254
 1821 002c 84F82536 		strb	r3, [r4, #1573]
 480:Core/Inc/ros/ros/node_handle.h ****     message_out[2] = (uint8_t)((uint16_t)l & 255);
 1822              		.loc 9 480 20 view .LVU414
 1823 0030 C3B2     		uxtb	r3, r0
 1824 0032 84F82636 		strb	r3, [r4, #1574]
 481:Core/Inc/ros/ros/node_handle.h ****     message_out[3] = (uint8_t)((uint16_t)l >> 8);
 1825              		.loc 9 481 20 view .LVU415
 1826 0036 C0F30722 		ubfx	r2, r0, #8, #8
 1827 003a 84F82726 		strb	r2, [r4, #1575]
 482:Core/Inc/ros/ros/node_handle.h ****     message_out[4] = 255 - ((message_out[2] + message_out[3]) % 256);
 1828              		.loc 9 482 63 view .LVU416
 1829 003e 1344     		add	r3, r3, r2
 1830 0040 DBB2     		uxtb	r3, r3
 1831              		.loc 9 482 26 view .LVU417
 1832 0042 DB43     		mvns	r3, r3
 1833              		.loc 9 482 20 view .LVU418
 1834 0044 84F82836 		strb	r3, [r4, #1576]
 483:Core/Inc/ros/ros/node_handle.h ****     message_out[5] = (uint8_t)((int16_t)id & 255);
 1835              		.loc 9 483 20 view .LVU419
 1836 0048 84F82956 		strb	r5, [r4, #1577]
 484:Core/Inc/ros/ros/node_handle.h ****     message_out[6] = (uint8_t)((int16_t)id >> 8);
 1837              		.loc 9 484 44 view .LVU420
 1838 004c 45F30725 		sbfx	r5, r5, #8, #8
 1839              	.LVL127:
 1840              		.loc 9 484 20 view .LVU421
 1841 0050 84F82A56 		strb	r5, [r4, #1578]
 1842              	.LVL128:
 1843              	.LBB299:
 485:Core/Inc/ros/ros/node_handle.h **** 
 486:Core/Inc/ros/ros/node_handle.h ****     /* calculate checksum */
 487:Core/Inc/ros/ros/node_handle.h ****     int chk = 0;
 488:Core/Inc/ros/ros/node_handle.h ****     for (int i = 5; i < l + 7; i++)
 1844              		.loc 9 488 14 view .LVU422
 1845 0054 0523     		movs	r3, #5
 1846              	.LBE299:
 487:Core/Inc/ros/ros/node_handle.h ****     for (int i = 5; i < l + 7; i++)
 1847              		.loc 9 487 9 view .LVU423
 1848 0056 0022     		movs	r2, #0
 1849              	.LVL129:
 1850              	.L108:
 1851              	.LBB300:
 1852              		.loc 9 488 23 is_stmt 1 discriminator 3 view .LVU424
 1853 0058 811D     		adds	r1, r0, #6
 1854 005a 9942     		cmp	r1, r3
 1855 005c 05DB     		blt	.L107
 489:Core/Inc/ros/ros/node_handle.h ****       chk += message_out[i];
 1856              		.loc 9 489 25 is_stmt 0 discriminator 2 view .LVU425
 1857 005e E118     		adds	r1, r4, r3
 1858 0060 91F82416 		ldrb	r1, [r1, #1572]	@ zero_extendqisi2
 1859              		.loc 9 489 11 discriminator 2 view .LVU426
 1860 0064 0A44     		add	r2, r2, r1
 1861              	.LVL130:
 488:Core/Inc/ros/ros/node_handle.h ****       chk += message_out[i];
 1862              		.loc 9 488 5 is_stmt 1 discriminator 2 view .LVU427
 1863 0066 0133     		adds	r3, r3, #1
 1864              	.LVL131:
ARM GAS  /tmp/ccaSmKi1.s 			page 61


 488:Core/Inc/ros/ros/node_handle.h ****       chk += message_out[i];
 1865              		.loc 9 488 5 is_stmt 0 discriminator 2 view .LVU428
 1866 0068 F6E7     		b	.L108
 1867              	.L107:
 488:Core/Inc/ros/ros/node_handle.h ****       chk += message_out[i];
 1868              		.loc 9 488 5 discriminator 2 view .LVU429
 1869              	.LBE300:
 490:Core/Inc/ros/ros/node_handle.h ****     l += 7;
 1870              		.loc 9 490 7 view .LVU430
 1871 006a C31D     		adds	r3, r0, #7
 1872              	.LVL132:
 491:Core/Inc/ros/ros/node_handle.h ****     message_out[l++] = 255 - (chk % 256);
 1873              		.loc 9 491 35 view .LVU431
 1874 006c 5142     		rsbs	r1, r2, #0
 1875 006e D2B2     		uxtb	r2, r2
 1876              	.LVL133:
 1877              		.loc 9 491 35 view .LVU432
 1878 0070 C9B2     		uxtb	r1, r1
 1879 0072 58BF     		it	pl
 1880 0074 4A42     		rsbpl	r2, r1, #0
 1881              		.loc 9 491 16 view .LVU433
 1882 0076 00F10805 		add	r5, r0, #8
 1883              	.LVL134:
 1884              		.loc 9 491 28 view .LVU434
 1885 007a D243     		mvns	r2, r2
 1886              		.loc 9 491 22 view .LVU435
 1887 007c 2344     		add	r3, r3, r4
 1888 007e 83F82426 		strb	r2, [r3, #1572]
 492:Core/Inc/ros/ros/node_handle.h **** 
 493:Core/Inc/ros/ros/node_handle.h ****     if (l <= OUTPUT_SIZE)
 1889              		.loc 9 493 5 view .LVU436
 1890 0082 B5F5007F 		cmp	r5, #512
 1891 0086 5BDC     		bgt	.L109
 494:Core/Inc/ros/ros/node_handle.h ****     {
 495:Core/Inc/ros/ros/node_handle.h ****       hardware_.write(message_out, l);
 1892              		.loc 9 495 22 view .LVU437
 1893 0088 261D     		adds	r6, r4, #4
 1894              		.loc 9 495 23 view .LVU438
 1895 008a 04F22469 		addw	r9, r4, #1572
 1896              	.LVL135:
 1897              	.LBB301:
 1898              	.LBI301:
  70:Core/Inc/ros/STM32Hardware.h ****     }
  71:Core/Inc/ros/STM32Hardware.h **** 
  72:Core/Inc/ros/STM32Hardware.h ****     STM32Hardware(UART_HandleTypeDef *huart_):
  73:Core/Inc/ros/STM32Hardware.h ****       huart(huart_), rind(0), twind(0), tfind(0){
  74:Core/Inc/ros/STM32Hardware.h ****     }
  75:Core/Inc/ros/STM32Hardware.h ****   
  76:Core/Inc/ros/STM32Hardware.h ****     void init(){
  77:Core/Inc/ros/STM32Hardware.h ****       reset_rbuf();
  78:Core/Inc/ros/STM32Hardware.h ****     }
  79:Core/Inc/ros/STM32Hardware.h **** 
  80:Core/Inc/ros/STM32Hardware.h ****     void reset_rbuf(void){
  81:Core/Inc/ros/STM32Hardware.h ****       HAL_UART_Receive_DMA(huart, rbuf, rbuflen);
  82:Core/Inc/ros/STM32Hardware.h ****     }
  83:Core/Inc/ros/STM32Hardware.h **** 
  84:Core/Inc/ros/STM32Hardware.h ****     int read(){
ARM GAS  /tmp/ccaSmKi1.s 			page 62


  85:Core/Inc/ros/STM32Hardware.h ****       int c = -1;
  86:Core/Inc/ros/STM32Hardware.h ****       if(rind != getRdmaInd()){
  87:Core/Inc/ros/STM32Hardware.h ****         c = rbuf[rind++];
  88:Core/Inc/ros/STM32Hardware.h ****         rind &= rbuflen - 1;
  89:Core/Inc/ros/STM32Hardware.h ****       }
  90:Core/Inc/ros/STM32Hardware.h ****       return c;
  91:Core/Inc/ros/STM32Hardware.h ****     }
  92:Core/Inc/ros/STM32Hardware.h **** 
  93:Core/Inc/ros/STM32Hardware.h ****     void flush(void){
  94:Core/Inc/ros/STM32Hardware.h ****       static bool mutex = false;
  95:Core/Inc/ros/STM32Hardware.h **** 
  96:Core/Inc/ros/STM32Hardware.h ****       if((huart->gState == HAL_UART_STATE_READY) && !mutex){
  97:Core/Inc/ros/STM32Hardware.h ****         mutex = true;
  98:Core/Inc/ros/STM32Hardware.h **** 
  99:Core/Inc/ros/STM32Hardware.h ****         if(twind != tfind){
 100:Core/Inc/ros/STM32Hardware.h ****           uint16_t len = tfind < twind ? twind - tfind : tbuflen - tfind;
 101:Core/Inc/ros/STM32Hardware.h ****           HAL_UART_Transmit_DMA(huart, &(tbuf[tfind]), len);
 102:Core/Inc/ros/STM32Hardware.h ****           tfind = (tfind + len) & (tbuflen - 1);
 103:Core/Inc/ros/STM32Hardware.h ****         }
 104:Core/Inc/ros/STM32Hardware.h ****         mutex = false;
 105:Core/Inc/ros/STM32Hardware.h ****       }
 106:Core/Inc/ros/STM32Hardware.h ****     }
 107:Core/Inc/ros/STM32Hardware.h **** 
 108:Core/Inc/ros/STM32Hardware.h ****     void write(uint8_t* data, int length){
 1899              		.loc 10 108 10 is_stmt 1 view .LVU439
 1900              	.LBB302:
 109:Core/Inc/ros/STM32Hardware.h ****       int n = length;
 1901              		.loc 10 109 7 view .LVU440
 110:Core/Inc/ros/STM32Hardware.h ****       n = n <= tbuflen ? n : tbuflen;
 1902              		.loc 10 110 7 view .LVU441
 1903              		.loc 10 110 9 is_stmt 0 view .LVU442
 1904 008e A846     		mov	r8, r5
 1905 0090 B5F5007F 		cmp	r5, #512
 1906 0094 A8BF     		it	ge
 1907 0096 4FF40078 		movge	r8, #512
 1908              	.LVL136:
 111:Core/Inc/ros/STM32Hardware.h **** 
 112:Core/Inc/ros/STM32Hardware.h ****       int n_tail = n <= tbuflen - twind ? n : tbuflen - twind;
 1909              		.loc 10 112 7 is_stmt 1 view .LVU443
 1910              		.loc 10 112 35 is_stmt 0 view .LVU444
 1911 009a D6F80804 		ldr	r0, [r6, #1032]
 1912              		.loc 10 112 33 view .LVU445
 1913 009e C0F50077 		rsb	r7, r0, #512
 1914              		.loc 10 112 41 view .LVU446
 1915 00a2 4745     		cmp	r7, r8
 1916 00a4 28BF     		it	cs
 1917 00a6 4746     		movcs	r7, r8
 1918              	.LVL137:
 113:Core/Inc/ros/STM32Hardware.h ****       memcpy(&(tbuf[twind]), data, n_tail);
 1919              		.loc 10 113 7 is_stmt 1 view .LVU447
 1920              		.loc 10 113 14 is_stmt 0 view .LVU448
 1921 00a8 00F50270 		add	r0, r0, #520
 1922              		.loc 10 113 13 view .LVU449
 1923 00ac 3A46     		mov	r2, r7
 1924 00ae 4946     		mov	r1, r9
 1925 00b0 3044     		add	r0, r0, r6
 1926 00b2 FFF7FEFF 		bl	memcpy
ARM GAS  /tmp/ccaSmKi1.s 			page 63


 1927              	.LVL138:
 114:Core/Inc/ros/STM32Hardware.h ****       twind = (twind + n) & (tbuflen - 1);
 1928              		.loc 10 114 7 is_stmt 1 view .LVU450
 1929              		.loc 10 114 16 is_stmt 0 view .LVU451
 1930 00b6 D6F80834 		ldr	r3, [r6, #1032]
 1931              		.loc 10 114 22 view .LVU452
 1932 00ba 4344     		add	r3, r3, r8
 1933              		.loc 10 114 27 view .LVU453
 1934 00bc C3F30803 		ubfx	r3, r3, #0, #9
 1935              		.loc 10 114 13 view .LVU454
 1936 00c0 C6F80834 		str	r3, [r6, #1032]
 115:Core/Inc/ros/STM32Hardware.h **** 
 116:Core/Inc/ros/STM32Hardware.h ****       if(n != n_tail){
 1937              		.loc 10 116 7 is_stmt 1 view .LVU455
 1938 00c4 B845     		cmp	r8, r7
 1939 00c6 09D1     		bne	.L117
 1940              	.L110:
 117:Core/Inc/ros/STM32Hardware.h ****         memcpy(tbuf, &(data[n_tail]), n - n_tail);
 118:Core/Inc/ros/STM32Hardware.h ****       }
 119:Core/Inc/ros/STM32Hardware.h **** 
 120:Core/Inc/ros/STM32Hardware.h ****       flush();
 1941              		.loc 10 120 7 view .LVU456
 1942              	.LVL139:
 1943              	.LBB303:
 1944              	.LBI303:
  93:Core/Inc/ros/STM32Hardware.h ****       static bool mutex = false;
 1945              		.loc 10 93 10 view .LVU457
 1946              	.LBB304:
  94:Core/Inc/ros/STM32Hardware.h **** 
 1947              		.loc 10 94 7 view .LVU458
  96:Core/Inc/ros/STM32Hardware.h ****         mutex = true;
 1948              		.loc 10 96 7 view .LVU459
 1949              	.LBB305:
  96:Core/Inc/ros/STM32Hardware.h ****         mutex = true;
 1950              		.loc 10 96 11 is_stmt 0 view .LVU460
 1951 00c8 6368     		ldr	r3, [r4, #4]
  96:Core/Inc/ros/STM32Hardware.h ****         mutex = true;
 1952              		.loc 10 96 18 view .LVU461
 1953 00ca 93F83930 		ldrb	r3, [r3, #57]	@ zero_extendqisi2
 1954 00ce DBB2     		uxtb	r3, r3
  96:Core/Inc/ros/STM32Hardware.h ****         mutex = true;
 1955              		.loc 10 96 50 view .LVU462
 1956 00d0 202B     		cmp	r3, #32
 1957 00d2 0CD0     		beq	.L118
 1958              	.LVL140:
 1959              	.L104:
  96:Core/Inc/ros/STM32Hardware.h ****         mutex = true;
 1960              		.loc 10 96 50 view .LVU463
 1961              	.LBE305:
 1962              	.LBE304:
 1963              	.LBE303:
 1964              	.LBE302:
 1965              	.LBE301:
 496:Core/Inc/ros/ros/node_handle.h ****       return l;
 497:Core/Inc/ros/ros/node_handle.h ****     }
 498:Core/Inc/ros/ros/node_handle.h ****     else
 499:Core/Inc/ros/ros/node_handle.h ****     {
ARM GAS  /tmp/ccaSmKi1.s 			page 64


 500:Core/Inc/ros/ros/node_handle.h ****       logerror("Message from device dropped: message larger than buffer.");
 501:Core/Inc/ros/ros/node_handle.h ****       return -1;
 502:Core/Inc/ros/ros/node_handle.h ****     }
 503:Core/Inc/ros/ros/node_handle.h ****   }
 1966              		.loc 9 503 3 view .LVU464
 1967 00d4 2846     		mov	r0, r5
 1968 00d6 05B0     		add	sp, sp, #20
 1969              	.LCFI13:
 1970              		.cfi_remember_state
 1971              		.cfi_def_cfa_offset 28
 1972              		@ sp needed
 1973 00d8 BDE8F083 		pop	{r4, r5, r6, r7, r8, r9, pc}
 1974              	.LVL141:
 1975              	.L117:
 1976              	.LCFI14:
 1977              		.cfi_restore_state
 1978              	.LBB317:
 1979              	.LBB316:
 117:Core/Inc/ros/STM32Hardware.h ****       }
 1980              		.loc 10 117 9 is_stmt 1 view .LVU465
 117:Core/Inc/ros/STM32Hardware.h ****       }
 1981              		.loc 10 117 15 is_stmt 0 view .LVU466
 1982 00dc A8EB0702 		sub	r2, r8, r7
 1983 00e0 09EB0701 		add	r1, r9, r7
 1984 00e4 06F50270 		add	r0, r6, #520
 1985 00e8 FFF7FEFF 		bl	memcpy
 1986              	.LVL142:
 1987 00ec ECE7     		b	.L110
 1988              	.LVL143:
 1989              	.L118:
 1990              	.LBB315:
 1991              	.LBB314:
 1992              	.LBB312:
  96:Core/Inc/ros/STM32Hardware.h ****         mutex = true;
 1993              		.loc 10 96 53 view .LVU467
 1994 00ee 214B     		ldr	r3, .L119
 1995 00f0 1B78     		ldrb	r3, [r3]	@ zero_extendqisi2
  96:Core/Inc/ros/STM32Hardware.h ****         mutex = true;
 1996              		.loc 10 96 50 view .LVU468
 1997 00f2 002B     		cmp	r3, #0
 1998 00f4 EED1     		bne	.L104
 1999              	.LBB306:
  97:Core/Inc/ros/STM32Hardware.h **** 
 2000              		.loc 10 97 9 is_stmt 1 view .LVU469
  97:Core/Inc/ros/STM32Hardware.h **** 
 2001              		.loc 10 97 15 is_stmt 0 view .LVU470
 2002 00f6 1F4B     		ldr	r3, .L119
 2003 00f8 0122     		movs	r2, #1
 2004 00fa 1A70     		strb	r2, [r3]
  99:Core/Inc/ros/STM32Hardware.h ****           uint16_t len = tfind < twind ? twind - tfind : tbuflen - tfind;
 2005              		.loc 10 99 9 is_stmt 1 view .LVU471
 2006              	.LBB307:
  99:Core/Inc/ros/STM32Hardware.h ****           uint16_t len = tfind < twind ? twind - tfind : tbuflen - tfind;
 2007              		.loc 10 99 12 is_stmt 0 view .LVU472
 2008 00fc D6F80874 		ldr	r7, [r6, #1032]
 2009              	.LVL144:
  99:Core/Inc/ros/STM32Hardware.h ****           uint16_t len = tfind < twind ? twind - tfind : tbuflen - tfind;
ARM GAS  /tmp/ccaSmKi1.s 			page 65


 2010              		.loc 10 99 21 view .LVU473
 2011 0100 D6F80C14 		ldr	r1, [r6, #1036]
  99:Core/Inc/ros/STM32Hardware.h ****           uint16_t len = tfind < twind ? twind - tfind : tbuflen - tfind;
 2012              		.loc 10 99 9 view .LVU474
 2013 0104 8F42     		cmp	r7, r1
 2014 0106 12D0     		beq	.L112
 2015              	.LBB308:
 100:Core/Inc/ros/STM32Hardware.h ****           HAL_UART_Transmit_DMA(huart, &(tbuf[tfind]), len);
 2016              		.loc 10 100 11 is_stmt 1 view .LVU475
 100:Core/Inc/ros/STM32Hardware.h ****           HAL_UART_Transmit_DMA(huart, &(tbuf[tfind]), len);
 2017              		.loc 10 100 20 is_stmt 0 view .LVU476
 2018 0108 15D9     		bls	.L113
 100:Core/Inc/ros/STM32Hardware.h ****           HAL_UART_Transmit_DMA(huart, &(tbuf[tfind]), len);
 2019              		.loc 10 100 48 view .LVU477
 2020 010a BFB2     		uxth	r7, r7
 2021 010c 8BB2     		uxth	r3, r1
 100:Core/Inc/ros/STM32Hardware.h ****           HAL_UART_Transmit_DMA(huart, &(tbuf[tfind]), len);
 2022              		.loc 10 100 20 view .LVU478
 2023 010e FF1A     		subs	r7, r7, r3
 2024 0110 BFB2     		uxth	r7, r7
 2025              	.L114:
 2026              	.LVL145:
 101:Core/Inc/ros/STM32Hardware.h ****           tfind = (tfind + len) & (tbuflen - 1);
 2027              		.loc 10 101 11 is_stmt 1 view .LVU479
 101:Core/Inc/ros/STM32Hardware.h ****           tfind = (tfind + len) & (tbuflen - 1);
 2028              		.loc 10 101 32 is_stmt 0 view .LVU480
 2029 0112 01F50271 		add	r1, r1, #520
 2030 0116 3A46     		mov	r2, r7
 2031 0118 3144     		add	r1, r1, r6
 2032 011a 6068     		ldr	r0, [r4, #4]
 2033 011c FFF7FEFF 		bl	HAL_UART_Transmit_DMA
 2034              	.LVL146:
 102:Core/Inc/ros/STM32Hardware.h ****         }
 2035              		.loc 10 102 11 is_stmt 1 view .LVU481
 102:Core/Inc/ros/STM32Hardware.h ****         }
 2036              		.loc 10 102 20 is_stmt 0 view .LVU482
 2037 0120 D6F80C34 		ldr	r3, [r6, #1036]
 102:Core/Inc/ros/STM32Hardware.h ****         }
 2038              		.loc 10 102 26 view .LVU483
 2039 0124 3B44     		add	r3, r3, r7
 102:Core/Inc/ros/STM32Hardware.h ****         }
 2040              		.loc 10 102 33 view .LVU484
 2041 0126 C3F30803 		ubfx	r3, r3, #0, #9
 102:Core/Inc/ros/STM32Hardware.h ****         }
 2042              		.loc 10 102 17 view .LVU485
 2043 012a C6F80C34 		str	r3, [r6, #1036]
 2044              	.LVL147:
 2045              	.L112:
 102:Core/Inc/ros/STM32Hardware.h ****         }
 2046              		.loc 10 102 17 view .LVU486
 2047              	.LBE308:
 2048              	.LBE307:
 104:Core/Inc/ros/STM32Hardware.h ****       }
 2049              		.loc 10 104 9 is_stmt 1 view .LVU487
 104:Core/Inc/ros/STM32Hardware.h ****       }
 2050              		.loc 10 104 15 is_stmt 0 view .LVU488
 2051 012e 114B     		ldr	r3, .L119
ARM GAS  /tmp/ccaSmKi1.s 			page 66


 2052 0130 0022     		movs	r2, #0
 2053 0132 1A70     		strb	r2, [r3]
 2054              	.LBE306:
 2055              	.LBE312:
 106:Core/Inc/ros/STM32Hardware.h **** 
 2056              		.loc 10 106 5 view .LVU489
 2057 0134 CEE7     		b	.L104
 2058              	.L113:
 2059              	.LBB313:
 2060              	.LBB311:
 2061              	.LBB310:
 2062              	.LBB309:
 100:Core/Inc/ros/STM32Hardware.h ****           HAL_UART_Transmit_DMA(huart, &(tbuf[tfind]), len);
 2063              		.loc 10 100 66 view .LVU490
 2064 0136 8FB2     		uxth	r7, r1
 100:Core/Inc/ros/STM32Hardware.h ****           HAL_UART_Transmit_DMA(huart, &(tbuf[tfind]), len);
 2065              		.loc 10 100 20 view .LVU491
 2066 0138 C7F50077 		rsb	r7, r7, #512
 2067 013c BFB2     		uxth	r7, r7
 2068 013e E8E7     		b	.L114
 2069              	.LVL148:
 2070              	.L109:
 100:Core/Inc/ros/STM32Hardware.h ****           HAL_UART_Transmit_DMA(huart, &(tbuf[tfind]), len);
 2071              		.loc 10 100 20 view .LVU492
 2072              	.LBE309:
 2073              	.LBE310:
 2074              	.LBE311:
 2075              	.LBE313:
 2076              	.LBE314:
 2077              	.LBE315:
 2078              	.LBE316:
 2079              	.LBE317:
 2080              	.LBB318:
 2081              	.LBI318:
 504:Core/Inc/ros/ros/node_handle.h **** 
 505:Core/Inc/ros/ros/node_handle.h ****   /********************************************************************
 506:Core/Inc/ros/ros/node_handle.h ****    * Logging
 507:Core/Inc/ros/ros/node_handle.h ****    */
 508:Core/Inc/ros/ros/node_handle.h **** 
 509:Core/Inc/ros/ros/node_handle.h **** protected:
 510:Core/Inc/ros/ros/node_handle.h ****   void log(char byte, const char * msg)
 511:Core/Inc/ros/ros/node_handle.h ****   {
 512:Core/Inc/ros/ros/node_handle.h ****     rosserial_msgs::Log l;
 513:Core/Inc/ros/ros/node_handle.h ****     l.level = byte;
 514:Core/Inc/ros/ros/node_handle.h ****     l.msg = (char*)msg;
 515:Core/Inc/ros/ros/node_handle.h ****     publish(rosserial_msgs::TopicInfo::ID_LOG, &l);
 516:Core/Inc/ros/ros/node_handle.h ****   }
 517:Core/Inc/ros/ros/node_handle.h **** 
 518:Core/Inc/ros/ros/node_handle.h **** public:
 519:Core/Inc/ros/ros/node_handle.h ****   void logdebug(const char* msg)
 520:Core/Inc/ros/ros/node_handle.h ****   {
 521:Core/Inc/ros/ros/node_handle.h ****     log(rosserial_msgs::Log::ROSDEBUG, msg);
 522:Core/Inc/ros/ros/node_handle.h ****   }
 523:Core/Inc/ros/ros/node_handle.h ****   void loginfo(const char * msg)
 524:Core/Inc/ros/ros/node_handle.h ****   {
 525:Core/Inc/ros/ros/node_handle.h ****     log(rosserial_msgs::Log::INFO, msg);
 526:Core/Inc/ros/ros/node_handle.h ****   }
ARM GAS  /tmp/ccaSmKi1.s 			page 67


 527:Core/Inc/ros/ros/node_handle.h ****   void logwarn(const char *msg)
 528:Core/Inc/ros/ros/node_handle.h ****   {
 529:Core/Inc/ros/ros/node_handle.h ****     log(rosserial_msgs::Log::WARN, msg);
 530:Core/Inc/ros/ros/node_handle.h ****   }
 531:Core/Inc/ros/ros/node_handle.h ****   void logerror(const char*msg)
 2082              		.loc 9 531 8 is_stmt 1 view .LVU493
 2083              	.LBB319:
 2084              	.LBI319:
 510:Core/Inc/ros/ros/node_handle.h ****   {
 2085              		.loc 9 510 8 view .LVU494
 2086              	.LBB320:
 2087              	.LBB321:
 2088              	.LBI321:
  25:Core/Inc/ros/rosserial_msgs/Log.h ****       level(0),
 2089              		.loc 4 25 5 view .LVU495
 2090              	.LBB322:
 2091              	.LBB323:
 2092              	.LBB324:
 2093              	.LBI324:
 2094              		.loc 11 46 7 view .LVU496
 2095              	.LBB325:
 2096 0140 0D4B     		ldr	r3, .L119+4
 2097 0142 0193     		str	r3, [sp, #4]
 2098              	.LVL149:
 2099              		.loc 11 46 7 is_stmt 0 view .LVU497
 2100              	.LBE325:
 2101              	.LBE324:
  27:Core/Inc/ros/rosserial_msgs/Log.h ****     {
 2102              		.loc 4 27 13 view .LVU498
 2103 0144 0D4B     		ldr	r3, .L119+8
 2104 0146 0193     		str	r3, [sp, #4]
 2105 0148 0023     		movs	r3, #0
 2106 014a 8DF80830 		strb	r3, [sp, #8]
 2107 014e 0C4B     		ldr	r3, .L119+12
 2108 0150 0393     		str	r3, [sp, #12]
 2109              	.LVL150:
  27:Core/Inc/ros/rosserial_msgs/Log.h ****     {
 2110              		.loc 4 27 13 view .LVU499
 2111              	.LBE323:
 2112              	.LBE322:
 2113              	.LBE321:
 513:Core/Inc/ros/ros/node_handle.h ****     l.msg = (char*)msg;
 2114              		.loc 9 513 13 view .LVU500
 2115 0152 0323     		movs	r3, #3
 2116 0154 8DF80830 		strb	r3, [sp, #8]
 514:Core/Inc/ros/ros/node_handle.h ****     publish(rosserial_msgs::TopicInfo::ID_LOG, &l);
 2117              		.loc 9 514 11 view .LVU501
 2118 0158 0A4B     		ldr	r3, .L119+16
 2119 015a 0393     		str	r3, [sp, #12]
 515:Core/Inc/ros/ros/node_handle.h ****   }
 2120              		.loc 9 515 12 view .LVU502
 2121 015c 2368     		ldr	r3, [r4]
 2122 015e 1B68     		ldr	r3, [r3]
 2123 0160 01AA     		add	r2, sp, #4
 2124 0162 0721     		movs	r1, #7
 2125 0164 2046     		mov	r0, r4
 2126 0166 9847     		blx	r3
ARM GAS  /tmp/ccaSmKi1.s 			page 68


 2127              	.LVL151:
 2128              	.LBE320:
 2129              	.LBE319:
 2130              	.LBE318:
 501:Core/Inc/ros/ros/node_handle.h ****     }
 2131              		.loc 9 501 15 view .LVU503
 2132 0168 4FF0FF35 		mov	r5, #-1
 2133              	.LVL152:
 2134              	.LBB328:
 2135              	.LBB327:
 2136              	.LBB326:
 516:Core/Inc/ros/ros/node_handle.h **** 
 2137              		.loc 9 516 3 view .LVU504
 2138 016c B2E7     		b	.L104
 2139              	.LVL153:
 2140              	.L115:
 516:Core/Inc/ros/ros/node_handle.h **** 
 2141              		.loc 9 516 3 view .LVU505
 2142              	.LBE326:
 2143              	.LBE327:
 2144              	.LBE328:
 472:Core/Inc/ros/ros/node_handle.h **** 
 2145              		.loc 9 472 14 view .LVU506
 2146 016e 0025     		movs	r5, #0
 2147 0170 B0E7     		b	.L104
 2148              	.L120:
 2149 0172 00BF     		.align	2
 2150              	.L119:
 2151 0174 00000000 		.word	_ZZN13STM32Hardware5flushEvE5mutex
 2152 0178 08000000 		.word	_ZTVN3ros3MsgE+8
 2153 017c 08000000 		.word	_ZTVN14rosserial_msgs3LogE+8
 2154 0180 00000000 		.word	.LC16
 2155 0184 04000000 		.word	.LC17
 2156              		.cfi_endproc
 2157              	.LFE574:
 2159              		.section	.text._ZNK14rosserial_msgs9TopicInfo9serializeEPh,"axG",%progbits,_ZNK14rosserial_msgs9To
 2160              		.align	1
 2161              		.weak	_ZNK14rosserial_msgs9TopicInfo9serializeEPh
 2162              		.syntax unified
 2163              		.thumb
 2164              		.thumb_func
 2165              		.fpu fpv4-sp-d16
 2167              	_ZNK14rosserial_msgs9TopicInfo9serializeEPh:
 2168              	.LVL154:
 2169              	.LFB431:
  43:Core/Inc/ros/rosserial_msgs/TopicInfo.h ****     {
 2170              		.loc 3 43 17 is_stmt 1 view -0
 2171              		.cfi_startproc
 2172              		@ args = 0, pretend = 0, frame = 0
 2173              		@ frame_needed = 0, uses_anonymous_args = 0
  43:Core/Inc/ros/rosserial_msgs/TopicInfo.h ****     {
 2174              		.loc 3 43 17 is_stmt 0 view .LVU508
 2175 0000 2DE9F041 		push	{r4, r5, r6, r7, r8, lr}
 2176              	.LCFI15:
 2177              		.cfi_def_cfa_offset 24
 2178              		.cfi_offset 4, -24
 2179              		.cfi_offset 5, -20
ARM GAS  /tmp/ccaSmKi1.s 			page 69


 2180              		.cfi_offset 6, -16
 2181              		.cfi_offset 7, -12
 2182              		.cfi_offset 8, -8
 2183              		.cfi_offset 14, -4
 2184 0004 0646     		mov	r6, r0
 2185 0006 0D46     		mov	r5, r1
  45:Core/Inc/ros/rosserial_msgs/TopicInfo.h ****       *(outbuffer + offset + 0) = (this->topic_id >> (8 * 0)) & 0xFF;
 2186              		.loc 3 45 7 is_stmt 1 view .LVU509
 2187              	.LVL155:
  46:Core/Inc/ros/rosserial_msgs/TopicInfo.h ****       *(outbuffer + offset + 1) = (this->topic_id >> (8 * 1)) & 0xFF;
 2188              		.loc 3 46 7 view .LVU510
  46:Core/Inc/ros/rosserial_msgs/TopicInfo.h ****       *(outbuffer + offset + 1) = (this->topic_id >> (8 * 1)) & 0xFF;
 2189              		.loc 3 46 42 is_stmt 0 view .LVU511
 2190 0008 8388     		ldrh	r3, [r0, #4]
  46:Core/Inc/ros/rosserial_msgs/TopicInfo.h ****       *(outbuffer + offset + 1) = (this->topic_id >> (8 * 1)) & 0xFF;
 2191              		.loc 3 46 33 view .LVU512
 2192 000a 0B70     		strb	r3, [r1]
  47:Core/Inc/ros/rosserial_msgs/TopicInfo.h ****       offset += sizeof(this->topic_id);
 2193              		.loc 3 47 7 is_stmt 1 view .LVU513
  47:Core/Inc/ros/rosserial_msgs/TopicInfo.h ****       offset += sizeof(this->topic_id);
 2194              		.loc 3 47 42 is_stmt 0 view .LVU514
 2195 000c 8388     		ldrh	r3, [r0, #4]
  47:Core/Inc/ros/rosserial_msgs/TopicInfo.h ****       offset += sizeof(this->topic_id);
 2196              		.loc 3 47 51 view .LVU515
 2197 000e 1B0A     		lsrs	r3, r3, #8
  47:Core/Inc/ros/rosserial_msgs/TopicInfo.h ****       offset += sizeof(this->topic_id);
 2198              		.loc 3 47 33 view .LVU516
 2199 0010 4B70     		strb	r3, [r1, #1]
  48:Core/Inc/ros/rosserial_msgs/TopicInfo.h ****       uint32_t length_topic_name = strlen(this->topic_name);
 2200              		.loc 3 48 7 is_stmt 1 view .LVU517
 2201              	.LVL156:
  49:Core/Inc/ros/rosserial_msgs/TopicInfo.h ****       varToArr(outbuffer + offset, length_topic_name);
 2202              		.loc 3 49 7 view .LVU518
  49:Core/Inc/ros/rosserial_msgs/TopicInfo.h ****       varToArr(outbuffer + offset, length_topic_name);
 2203              		.loc 3 49 42 is_stmt 0 view .LVU519
 2204 0012 8068     		ldr	r0, [r0, #8]
 2205              	.LVL157:
  49:Core/Inc/ros/rosserial_msgs/TopicInfo.h ****       varToArr(outbuffer + offset, length_topic_name);
 2206              		.loc 3 49 42 view .LVU520
 2207 0014 FFF7FEFF 		bl	strlen
 2208              	.LVL158:
  49:Core/Inc/ros/rosserial_msgs/TopicInfo.h ****       varToArr(outbuffer + offset, length_topic_name);
 2209              		.loc 3 49 42 view .LVU521
 2210 0018 0446     		mov	r4, r0
 2211              	.LVL159:
  50:Core/Inc/ros/rosserial_msgs/TopicInfo.h ****       offset += 4;
 2212              		.loc 3 50 7 is_stmt 1 view .LVU522
 2213              	.LBB329:
 2214              	.LBI329:
  47:Core/Inc/ros/ros/msg.h **** {
  48:Core/Inc/ros/ros/msg.h **** public:
  49:Core/Inc/ros/ros/msg.h ****   virtual int serialize(unsigned char *outbuffer) const = 0;
  50:Core/Inc/ros/ros/msg.h ****   virtual int deserialize(unsigned char *data) = 0;
  51:Core/Inc/ros/ros/msg.h ****   virtual const char * getType() = 0;
  52:Core/Inc/ros/ros/msg.h ****   virtual const char * getMD5() = 0;
  53:Core/Inc/ros/ros/msg.h **** 
  54:Core/Inc/ros/ros/msg.h ****   /**
ARM GAS  /tmp/ccaSmKi1.s 			page 70


  55:Core/Inc/ros/ros/msg.h ****    * @brief This tricky function handles promoting a 32bit float to a 64bit
  56:Core/Inc/ros/ros/msg.h ****    *        double, so that AVR can publish messages containing float64
  57:Core/Inc/ros/ros/msg.h ****    *        fields, despite AVR having no native support for double.
  58:Core/Inc/ros/ros/msg.h ****    *
  59:Core/Inc/ros/ros/msg.h ****    * @param[out] outbuffer pointer for buffer to serialize to.
  60:Core/Inc/ros/ros/msg.h ****    * @param[in] f value to serialize.
  61:Core/Inc/ros/ros/msg.h ****    *
  62:Core/Inc/ros/ros/msg.h ****    * @return number of bytes to advance the buffer pointer.
  63:Core/Inc/ros/ros/msg.h ****    *
  64:Core/Inc/ros/ros/msg.h ****    */
  65:Core/Inc/ros/ros/msg.h ****   static int serializeAvrFloat64(unsigned char* outbuffer, const float f)
  66:Core/Inc/ros/ros/msg.h ****   {
  67:Core/Inc/ros/ros/msg.h ****     int32_t val;
  68:Core/Inc/ros/ros/msg.h ****     std::memcpy(&val, &f, sizeof(val));
  69:Core/Inc/ros/ros/msg.h **** 
  70:Core/Inc/ros/ros/msg.h ****     int16_t exp = ((val >> 23) & 255);
  71:Core/Inc/ros/ros/msg.h ****     uint32_t mantissa = val & 0x7FFFFF;
  72:Core/Inc/ros/ros/msg.h **** 
  73:Core/Inc/ros/ros/msg.h ****     if (exp == 255)
  74:Core/Inc/ros/ros/msg.h ****     {
  75:Core/Inc/ros/ros/msg.h ****       exp = 2047; // Special value for NaN, infinity etc.
  76:Core/Inc/ros/ros/msg.h ****     }
  77:Core/Inc/ros/ros/msg.h ****     else if (exp != 0)
  78:Core/Inc/ros/ros/msg.h ****     {
  79:Core/Inc/ros/ros/msg.h ****       exp += 1023 - 127; // Normal case
  80:Core/Inc/ros/ros/msg.h ****     }
  81:Core/Inc/ros/ros/msg.h ****     else if (!mantissa)
  82:Core/Inc/ros/ros/msg.h ****     {
  83:Core/Inc/ros/ros/msg.h ****       exp = 0; // Zero
  84:Core/Inc/ros/ros/msg.h ****     }
  85:Core/Inc/ros/ros/msg.h ****     else
  86:Core/Inc/ros/ros/msg.h ****     {
  87:Core/Inc/ros/ros/msg.h ****       // Denormalized value in float, will fit as normalized value in double
  88:Core/Inc/ros/ros/msg.h ****       exp += 1023 - 127;
  89:Core/Inc/ros/ros/msg.h ****       mantissa <<= 1;
  90:Core/Inc/ros/ros/msg.h ****       while (!(mantissa & 0x800000))
  91:Core/Inc/ros/ros/msg.h ****       {
  92:Core/Inc/ros/ros/msg.h ****           mantissa <<= 1;
  93:Core/Inc/ros/ros/msg.h ****           exp--;
  94:Core/Inc/ros/ros/msg.h ****       }
  95:Core/Inc/ros/ros/msg.h ****       mantissa &= 0x7FFFFF;
  96:Core/Inc/ros/ros/msg.h ****     }
  97:Core/Inc/ros/ros/msg.h **** 
  98:Core/Inc/ros/ros/msg.h ****     *(outbuffer++) = 0;
  99:Core/Inc/ros/ros/msg.h ****     *(outbuffer++) = 0;
 100:Core/Inc/ros/ros/msg.h ****     *(outbuffer++) = 0;
 101:Core/Inc/ros/ros/msg.h ****     *(outbuffer++) = (mantissa << 5) & 0xff;
 102:Core/Inc/ros/ros/msg.h ****     *(outbuffer++) = (mantissa >> 3) & 0xff;
 103:Core/Inc/ros/ros/msg.h ****     *(outbuffer++) = (mantissa >> 11) & 0xff;
 104:Core/Inc/ros/ros/msg.h ****     *(outbuffer++) = ((exp << 4) & 0xF0) | ((mantissa >> 19) & 0x0F);
 105:Core/Inc/ros/ros/msg.h ****     *(outbuffer++) = (exp >> 4) & 0x7F;
 106:Core/Inc/ros/ros/msg.h **** 
 107:Core/Inc/ros/ros/msg.h ****     // Mark negative bit as necessary.
 108:Core/Inc/ros/ros/msg.h ****     if (f < 0)
 109:Core/Inc/ros/ros/msg.h ****     {
 110:Core/Inc/ros/ros/msg.h ****       *(outbuffer - 1) |= 0x80;
 111:Core/Inc/ros/ros/msg.h ****     }
ARM GAS  /tmp/ccaSmKi1.s 			page 71


 112:Core/Inc/ros/ros/msg.h **** 
 113:Core/Inc/ros/ros/msg.h ****     return 8;
 114:Core/Inc/ros/ros/msg.h ****   }
 115:Core/Inc/ros/ros/msg.h **** 
 116:Core/Inc/ros/ros/msg.h ****   /**
 117:Core/Inc/ros/ros/msg.h ****    * @brief This tricky function handles demoting a 64bit double to a
 118:Core/Inc/ros/ros/msg.h ****    *        32bit float, so that AVR can understand messages containing
 119:Core/Inc/ros/ros/msg.h ****    *        float64 fields, despite AVR having no native support for double.
 120:Core/Inc/ros/ros/msg.h ****    *
 121:Core/Inc/ros/ros/msg.h ****    * @param[in] inbuffer pointer for buffer to deserialize from.
 122:Core/Inc/ros/ros/msg.h ****    * @param[out] f pointer to place the deserialized value in.
 123:Core/Inc/ros/ros/msg.h ****    *
 124:Core/Inc/ros/ros/msg.h ****    * @return number of bytes to advance the buffer pointer.
 125:Core/Inc/ros/ros/msg.h ****    */
 126:Core/Inc/ros/ros/msg.h ****   static int deserializeAvrFloat64(const unsigned char* inbuffer, float* f)
 127:Core/Inc/ros/ros/msg.h ****   {
 128:Core/Inc/ros/ros/msg.h ****     int16_t exp;
 129:Core/Inc/ros/ros/msg.h ****     uint32_t mantissa;
 130:Core/Inc/ros/ros/msg.h **** 
 131:Core/Inc/ros/ros/msg.h ****     // Skip lowest 24 bits
 132:Core/Inc/ros/ros/msg.h ****     inbuffer += 3;
 133:Core/Inc/ros/ros/msg.h **** 
 134:Core/Inc/ros/ros/msg.h ****     // Copy truncated mantissa.
 135:Core/Inc/ros/ros/msg.h ****     mantissa = ((uint32_t)(*(inbuffer++)) >> 4 & 0x0F);
 136:Core/Inc/ros/ros/msg.h ****     mantissa |= ((uint32_t)(*(inbuffer++)) & 0xff) << 4;
 137:Core/Inc/ros/ros/msg.h ****     mantissa |= ((uint32_t)(*(inbuffer++)) & 0xff) << 12;
 138:Core/Inc/ros/ros/msg.h ****     mantissa |= ((uint32_t)(*inbuffer) & 0x0f) << 20;
 139:Core/Inc/ros/ros/msg.h **** 
 140:Core/Inc/ros/ros/msg.h ****     // Copy exponent.
 141:Core/Inc/ros/ros/msg.h ****     exp = ((uint32_t)(*(inbuffer++)) & 0xf0) >> 4;
 142:Core/Inc/ros/ros/msg.h ****     exp |= ((uint32_t)(*inbuffer) & 0x7f) << 4;
 143:Core/Inc/ros/ros/msg.h **** 
 144:Core/Inc/ros/ros/msg.h ****     if (exp == 2047)
 145:Core/Inc/ros/ros/msg.h ****     {
 146:Core/Inc/ros/ros/msg.h ****       exp = 255; // NaN, infinity etc.
 147:Core/Inc/ros/ros/msg.h ****     }
 148:Core/Inc/ros/ros/msg.h ****     else if (exp - 1023 > 127)
 149:Core/Inc/ros/ros/msg.h ****     {
 150:Core/Inc/ros/ros/msg.h ****       exp = 255;
 151:Core/Inc/ros/ros/msg.h ****       mantissa = 0; // Too large for float, convert to infinity
 152:Core/Inc/ros/ros/msg.h ****     }
 153:Core/Inc/ros/ros/msg.h ****     else if (exp - 1023 >= -126)
 154:Core/Inc/ros/ros/msg.h ****     {
 155:Core/Inc/ros/ros/msg.h ****       exp -= 1023 - 127; // Normal case
 156:Core/Inc/ros/ros/msg.h ****     }
 157:Core/Inc/ros/ros/msg.h ****     else if (exp - 1023 < -150)
 158:Core/Inc/ros/ros/msg.h ****     {
 159:Core/Inc/ros/ros/msg.h ****       exp = 0; // Too small or zero
 160:Core/Inc/ros/ros/msg.h ****     }
 161:Core/Inc/ros/ros/msg.h ****     else
 162:Core/Inc/ros/ros/msg.h ****     {
 163:Core/Inc/ros/ros/msg.h ****       // Have to convert to denormalized representation for float
 164:Core/Inc/ros/ros/msg.h ****       mantissa |= 0x1000000;
 165:Core/Inc/ros/ros/msg.h ****       mantissa >>= ((-126 + 1023) - exp);
 166:Core/Inc/ros/ros/msg.h ****       exp = 0;
 167:Core/Inc/ros/ros/msg.h ****     }
 168:Core/Inc/ros/ros/msg.h **** 
ARM GAS  /tmp/ccaSmKi1.s 			page 72


 169:Core/Inc/ros/ros/msg.h ****     // Round off mantissa
 170:Core/Inc/ros/ros/msg.h ****     if (mantissa != 0xFFFFFF)
 171:Core/Inc/ros/ros/msg.h ****       mantissa += 1;
 172:Core/Inc/ros/ros/msg.h **** 
 173:Core/Inc/ros/ros/msg.h ****     mantissa >>= 1;
 174:Core/Inc/ros/ros/msg.h **** 
 175:Core/Inc/ros/ros/msg.h ****     // Put mantissa and exponent into place
 176:Core/Inc/ros/ros/msg.h ****     uint32_t val = mantissa;
 177:Core/Inc/ros/ros/msg.h ****     val |= static_cast<uint32_t>(exp) << 23;
 178:Core/Inc/ros/ros/msg.h **** 
 179:Core/Inc/ros/ros/msg.h ****     // Copy negative sign.
 180:Core/Inc/ros/ros/msg.h ****     val |= (static_cast<uint32_t>(*(inbuffer++)) & 0x80) << 24;
 181:Core/Inc/ros/ros/msg.h **** 
 182:Core/Inc/ros/ros/msg.h ****     std::memcpy(f, &val, sizeof(val));
 183:Core/Inc/ros/ros/msg.h ****     return 8;
 184:Core/Inc/ros/ros/msg.h ****   }
 185:Core/Inc/ros/ros/msg.h **** 
 186:Core/Inc/ros/ros/msg.h ****   // Copy data from variable into a byte array
 187:Core/Inc/ros/ros/msg.h ****   template<typename A, typename V>
 188:Core/Inc/ros/ros/msg.h ****   static void varToArr(A arr, const V var)
 2215              		.loc 11 188 15 view .LVU523
 2216              	.LBB330:
 189:Core/Inc/ros/ros/msg.h ****   {
 190:Core/Inc/ros/ros/msg.h ****     for (size_t i = 0; i < sizeof(V); i++)
 2217              		.loc 11 190 17 is_stmt 0 view .LVU524
 2218 001a 0023     		movs	r3, #0
 2219 001c 05E0     		b	.L123
 2220              	.LVL160:
 2221              	.L129:
 191:Core/Inc/ros/ros/msg.h ****       arr[i] = (var >> (8 * i));
 2222              		.loc 11 191 27 view .LVU525
 2223 001e DA00     		lsls	r2, r3, #3
 2224              		.loc 11 191 21 view .LVU526
 2225 0020 24FA02F2 		lsr	r2, r4, r2
 2226              		.loc 11 191 10 view .LVU527
 2227 0024 991C     		adds	r1, r3, #2
 2228              		.loc 11 191 14 view .LVU528
 2229 0026 6A54     		strb	r2, [r5, r1]
 190:Core/Inc/ros/ros/msg.h ****       arr[i] = (var >> (8 * i));
 2230              		.loc 11 190 5 is_stmt 1 view .LVU529
 2231 0028 0133     		adds	r3, r3, #1
 2232              	.LVL161:
 2233              	.L123:
 190:Core/Inc/ros/ros/msg.h ****       arr[i] = (var >> (8 * i));
 2234              		.loc 11 190 26 view .LVU530
 2235 002a 032B     		cmp	r3, #3
 2236 002c F7D9     		bls	.L129
 2237              	.LVL162:
 190:Core/Inc/ros/ros/msg.h ****       arr[i] = (var >> (8 * i));
 2238              		.loc 11 190 26 is_stmt 0 view .LVU531
 2239              	.LBE330:
 2240              	.LBE329:
  51:Core/Inc/ros/rosserial_msgs/TopicInfo.h ****       memcpy(outbuffer + offset, this->topic_name, length_topic_name);
 2241              		.loc 3 51 7 is_stmt 1 view .LVU532
  52:Core/Inc/ros/rosserial_msgs/TopicInfo.h ****       offset += length_topic_name;
 2242              		.loc 3 52 7 view .LVU533
  52:Core/Inc/ros/rosserial_msgs/TopicInfo.h ****       offset += length_topic_name;
ARM GAS  /tmp/ccaSmKi1.s 			page 73


 2243              		.loc 3 52 13 is_stmt 0 view .LVU534
 2244 002e 2246     		mov	r2, r4
 2245 0030 B168     		ldr	r1, [r6, #8]
 2246 0032 A81D     		adds	r0, r5, #6
 2247              	.LVL163:
  52:Core/Inc/ros/rosserial_msgs/TopicInfo.h ****       offset += length_topic_name;
 2248              		.loc 3 52 13 view .LVU535
 2249 0034 FFF7FEFF 		bl	memcpy
 2250              	.LVL164:
  53:Core/Inc/ros/rosserial_msgs/TopicInfo.h ****       uint32_t length_message_type = strlen(this->message_type);
 2251              		.loc 3 53 7 is_stmt 1 view .LVU536
  53:Core/Inc/ros/rosserial_msgs/TopicInfo.h ****       uint32_t length_message_type = strlen(this->message_type);
 2252              		.loc 3 53 14 is_stmt 0 view .LVU537
 2253 0038 04F10608 		add	r8, r4, #6
 2254              	.LVL165:
  54:Core/Inc/ros/rosserial_msgs/TopicInfo.h ****       varToArr(outbuffer + offset, length_message_type);
 2255              		.loc 3 54 7 is_stmt 1 view .LVU538
  54:Core/Inc/ros/rosserial_msgs/TopicInfo.h ****       varToArr(outbuffer + offset, length_message_type);
 2256              		.loc 3 54 44 is_stmt 0 view .LVU539
 2257 003c F068     		ldr	r0, [r6, #12]
 2258 003e FFF7FEFF 		bl	strlen
 2259              	.LVL166:
 2260 0042 0746     		mov	r7, r0
 2261              	.LVL167:
  55:Core/Inc/ros/rosserial_msgs/TopicInfo.h ****       offset += 4;
 2262              		.loc 3 55 7 is_stmt 1 view .LVU540
 2263              	.LBB331:
 2264              	.LBI331:
 188:Core/Inc/ros/ros/msg.h ****   {
 2265              		.loc 11 188 15 view .LVU541
 2266              	.LBB332:
 190:Core/Inc/ros/ros/msg.h ****       arr[i] = (var >> (8 * i));
 2267              		.loc 11 190 17 is_stmt 0 view .LVU542
 2268 0044 0023     		movs	r3, #0
 2269 0046 06E0     		b	.L125
 2270              	.LVL168:
 2271              	.L130:
 2272              		.loc 11 191 27 view .LVU543
 2273 0048 D900     		lsls	r1, r3, #3
 2274              		.loc 11 191 21 view .LVU544
 2275 004a 27FA01F1 		lsr	r1, r7, r1
 2276              		.loc 11 191 10 view .LVU545
 2277 004e 08EB0302 		add	r2, r8, r3
 2278              		.loc 11 191 14 view .LVU546
 2279 0052 A954     		strb	r1, [r5, r2]
 190:Core/Inc/ros/ros/msg.h ****       arr[i] = (var >> (8 * i));
 2280              		.loc 11 190 5 is_stmt 1 view .LVU547
 2281 0054 0133     		adds	r3, r3, #1
 2282              	.LVL169:
 2283              	.L125:
 190:Core/Inc/ros/ros/msg.h ****       arr[i] = (var >> (8 * i));
 2284              		.loc 11 190 26 view .LVU548
 2285 0056 032B     		cmp	r3, #3
 2286 0058 F6D9     		bls	.L130
 2287              	.LVL170:
 190:Core/Inc/ros/ros/msg.h ****       arr[i] = (var >> (8 * i));
 2288              		.loc 11 190 26 is_stmt 0 view .LVU549
ARM GAS  /tmp/ccaSmKi1.s 			page 74


 2289              	.LBE332:
 2290              	.LBE331:
  56:Core/Inc/ros/rosserial_msgs/TopicInfo.h ****       memcpy(outbuffer + offset, this->message_type, length_message_type);
 2291              		.loc 3 56 7 is_stmt 1 view .LVU550
 2292 005a 0A34     		adds	r4, r4, #10
 2293              	.LVL171:
  57:Core/Inc/ros/rosserial_msgs/TopicInfo.h ****       offset += length_message_type;
 2294              		.loc 3 57 7 view .LVU551
  57:Core/Inc/ros/rosserial_msgs/TopicInfo.h ****       offset += length_message_type;
 2295              		.loc 3 57 13 is_stmt 0 view .LVU552
 2296 005c 3A46     		mov	r2, r7
 2297 005e F168     		ldr	r1, [r6, #12]
 2298 0060 2819     		adds	r0, r5, r4
 2299              	.LVL172:
  57:Core/Inc/ros/rosserial_msgs/TopicInfo.h ****       offset += length_message_type;
 2300              		.loc 3 57 13 view .LVU553
 2301 0062 FFF7FEFF 		bl	memcpy
 2302              	.LVL173:
  58:Core/Inc/ros/rosserial_msgs/TopicInfo.h ****       uint32_t length_md5sum = strlen(this->md5sum);
 2303              		.loc 3 58 7 is_stmt 1 view .LVU554
  58:Core/Inc/ros/rosserial_msgs/TopicInfo.h ****       uint32_t length_md5sum = strlen(this->md5sum);
 2304              		.loc 3 58 14 is_stmt 0 view .LVU555
 2305 0066 3C44     		add	r4, r4, r7
 2306              	.LVL174:
  59:Core/Inc/ros/rosserial_msgs/TopicInfo.h ****       varToArr(outbuffer + offset, length_md5sum);
 2307              		.loc 3 59 7 is_stmt 1 view .LVU556
  59:Core/Inc/ros/rosserial_msgs/TopicInfo.h ****       varToArr(outbuffer + offset, length_md5sum);
 2308              		.loc 3 59 38 is_stmt 0 view .LVU557
 2309 0068 3069     		ldr	r0, [r6, #16]
 2310 006a FFF7FEFF 		bl	strlen
 2311              	.LVL175:
 2312 006e 0746     		mov	r7, r0
 2313              	.LVL176:
  60:Core/Inc/ros/rosserial_msgs/TopicInfo.h ****       offset += 4;
 2314              		.loc 3 60 7 is_stmt 1 view .LVU558
 2315              	.LBB333:
 2316              	.LBI333:
 188:Core/Inc/ros/ros/msg.h ****   {
 2317              		.loc 11 188 15 view .LVU559
 2318              	.LBB334:
 190:Core/Inc/ros/ros/msg.h ****       arr[i] = (var >> (8 * i));
 2319              		.loc 11 190 17 is_stmt 0 view .LVU560
 2320 0070 0023     		movs	r3, #0
 2321 0072 05E0     		b	.L127
 2322              	.LVL177:
 2323              	.L131:
 2324              		.loc 11 191 27 view .LVU561
 2325 0074 D900     		lsls	r1, r3, #3
 2326              		.loc 11 191 21 view .LVU562
 2327 0076 27FA01F1 		lsr	r1, r7, r1
 2328              		.loc 11 191 10 view .LVU563
 2329 007a E218     		adds	r2, r4, r3
 2330              		.loc 11 191 14 view .LVU564
 2331 007c A954     		strb	r1, [r5, r2]
 190:Core/Inc/ros/ros/msg.h ****       arr[i] = (var >> (8 * i));
 2332              		.loc 11 190 5 is_stmt 1 view .LVU565
 2333 007e 0133     		adds	r3, r3, #1
ARM GAS  /tmp/ccaSmKi1.s 			page 75


 2334              	.LVL178:
 2335              	.L127:
 190:Core/Inc/ros/ros/msg.h ****       arr[i] = (var >> (8 * i));
 2336              		.loc 11 190 26 view .LVU566
 2337 0080 032B     		cmp	r3, #3
 2338 0082 F7D9     		bls	.L131
 2339              	.LVL179:
 190:Core/Inc/ros/ros/msg.h ****       arr[i] = (var >> (8 * i));
 2340              		.loc 11 190 26 is_stmt 0 view .LVU567
 2341              	.LBE334:
 2342              	.LBE333:
  61:Core/Inc/ros/rosserial_msgs/TopicInfo.h ****       memcpy(outbuffer + offset, this->md5sum, length_md5sum);
 2343              		.loc 3 61 7 is_stmt 1 view .LVU568
  61:Core/Inc/ros/rosserial_msgs/TopicInfo.h ****       memcpy(outbuffer + offset, this->md5sum, length_md5sum);
 2344              		.loc 3 61 14 is_stmt 0 view .LVU569
 2345 0084 0434     		adds	r4, r4, #4
 2346              	.LVL180:
  62:Core/Inc/ros/rosserial_msgs/TopicInfo.h ****       offset += length_md5sum;
 2347              		.loc 3 62 7 is_stmt 1 view .LVU570
  62:Core/Inc/ros/rosserial_msgs/TopicInfo.h ****       offset += length_md5sum;
 2348              		.loc 3 62 13 is_stmt 0 view .LVU571
 2349 0086 3A46     		mov	r2, r7
 2350 0088 3169     		ldr	r1, [r6, #16]
 2351 008a 2819     		adds	r0, r5, r4
 2352              	.LVL181:
  62:Core/Inc/ros/rosserial_msgs/TopicInfo.h ****       offset += length_md5sum;
 2353              		.loc 3 62 13 view .LVU572
 2354 008c FFF7FEFF 		bl	memcpy
 2355              	.LVL182:
  63:Core/Inc/ros/rosserial_msgs/TopicInfo.h ****       union {
 2356              		.loc 3 63 7 is_stmt 1 view .LVU573
  63:Core/Inc/ros/rosserial_msgs/TopicInfo.h ****       union {
 2357              		.loc 3 63 14 is_stmt 0 view .LVU574
 2358 0090 E019     		adds	r0, r4, r7
 2359              	.LVL183:
  64:Core/Inc/ros/rosserial_msgs/TopicInfo.h ****         int32_t real;
 2360              		.loc 3 64 7 is_stmt 1 view .LVU575
  68:Core/Inc/ros/rosserial_msgs/TopicInfo.h ****       *(outbuffer + offset + 0) = (u_buffer_size.base >> (8 * 0)) & 0xFF;
 2361              		.loc 3 68 7 view .LVU576
  68:Core/Inc/ros/rosserial_msgs/TopicInfo.h ****       *(outbuffer + offset + 0) = (u_buffer_size.base >> (8 * 0)) & 0xFF;
 2362              		.loc 3 68 34 is_stmt 0 view .LVU577
 2363 0092 7369     		ldr	r3, [r6, #20]
  69:Core/Inc/ros/rosserial_msgs/TopicInfo.h ****       *(outbuffer + offset + 1) = (u_buffer_size.base >> (8 * 1)) & 0xFF;
 2364              		.loc 3 69 7 is_stmt 1 view .LVU578
  69:Core/Inc/ros/rosserial_msgs/TopicInfo.h ****       *(outbuffer + offset + 1) = (u_buffer_size.base >> (8 * 1)) & 0xFF;
 2365              		.loc 3 69 33 is_stmt 0 view .LVU579
 2366 0094 2B54     		strb	r3, [r5, r0]
  70:Core/Inc/ros/rosserial_msgs/TopicInfo.h ****       *(outbuffer + offset + 2) = (u_buffer_size.base >> (8 * 2)) & 0xFF;
 2367              		.loc 3 70 7 is_stmt 1 view .LVU580
  70:Core/Inc/ros/rosserial_msgs/TopicInfo.h ****       *(outbuffer + offset + 2) = (u_buffer_size.base >> (8 * 2)) & 0xFF;
 2368              		.loc 3 70 55 is_stmt 0 view .LVU581
 2369 0096 190A     		lsrs	r1, r3, #8
  70:Core/Inc/ros/rosserial_msgs/TopicInfo.h ****       *(outbuffer + offset + 2) = (u_buffer_size.base >> (8 * 2)) & 0xFF;
 2370              		.loc 3 70 28 view .LVU582
 2371 0098 421C     		adds	r2, r0, #1
  70:Core/Inc/ros/rosserial_msgs/TopicInfo.h ****       *(outbuffer + offset + 2) = (u_buffer_size.base >> (8 * 2)) & 0xFF;
 2372              		.loc 3 70 33 view .LVU583
ARM GAS  /tmp/ccaSmKi1.s 			page 76


 2373 009a A954     		strb	r1, [r5, r2]
  71:Core/Inc/ros/rosserial_msgs/TopicInfo.h ****       *(outbuffer + offset + 3) = (u_buffer_size.base >> (8 * 3)) & 0xFF;
 2374              		.loc 3 71 7 is_stmt 1 view .LVU584
  71:Core/Inc/ros/rosserial_msgs/TopicInfo.h ****       *(outbuffer + offset + 3) = (u_buffer_size.base >> (8 * 3)) & 0xFF;
 2375              		.loc 3 71 55 is_stmt 0 view .LVU585
 2376 009c 190C     		lsrs	r1, r3, #16
  71:Core/Inc/ros/rosserial_msgs/TopicInfo.h ****       *(outbuffer + offset + 3) = (u_buffer_size.base >> (8 * 3)) & 0xFF;
 2377              		.loc 3 71 28 view .LVU586
 2378 009e 821C     		adds	r2, r0, #2
  71:Core/Inc/ros/rosserial_msgs/TopicInfo.h ****       *(outbuffer + offset + 3) = (u_buffer_size.base >> (8 * 3)) & 0xFF;
 2379              		.loc 3 71 33 view .LVU587
 2380 00a0 A954     		strb	r1, [r5, r2]
  72:Core/Inc/ros/rosserial_msgs/TopicInfo.h ****       offset += sizeof(this->buffer_size);
 2381              		.loc 3 72 7 is_stmt 1 view .LVU588
  72:Core/Inc/ros/rosserial_msgs/TopicInfo.h ****       offset += sizeof(this->buffer_size);
 2382              		.loc 3 72 55 is_stmt 0 view .LVU589
 2383 00a2 1B0E     		lsrs	r3, r3, #24
  72:Core/Inc/ros/rosserial_msgs/TopicInfo.h ****       offset += sizeof(this->buffer_size);
 2384              		.loc 3 72 28 view .LVU590
 2385 00a4 C21C     		adds	r2, r0, #3
  72:Core/Inc/ros/rosserial_msgs/TopicInfo.h ****       offset += sizeof(this->buffer_size);
 2386              		.loc 3 72 33 view .LVU591
 2387 00a6 AB54     		strb	r3, [r5, r2]
  73:Core/Inc/ros/rosserial_msgs/TopicInfo.h ****       return offset;
 2388              		.loc 3 73 7 is_stmt 1 view .LVU592
 2389              	.LVL184:
  74:Core/Inc/ros/rosserial_msgs/TopicInfo.h ****     }
 2390              		.loc 3 74 7 view .LVU593
  75:Core/Inc/ros/rosserial_msgs/TopicInfo.h **** 
 2391              		.loc 3 75 5 is_stmt 0 view .LVU594
 2392 00a8 0430     		adds	r0, r0, #4
 2393              	.LVL185:
  75:Core/Inc/ros/rosserial_msgs/TopicInfo.h **** 
 2394              		.loc 3 75 5 view .LVU595
 2395 00aa BDE8F081 		pop	{r4, r5, r6, r7, r8, pc}
  75:Core/Inc/ros/rosserial_msgs/TopicInfo.h **** 
 2396              		.loc 3 75 5 view .LVU596
 2397              		.cfi_endproc
 2398              	.LFE431:
 2400              		.section	.text._ZNK14rosserial_msgs3Log9serializeEPh,"axG",%progbits,_ZNK14rosserial_msgs3Log9seri
 2401              		.align	1
 2402              		.weak	_ZNK14rosserial_msgs3Log9serializeEPh
 2403              		.syntax unified
 2404              		.thumb
 2405              		.thumb_func
 2406              		.fpu fpv4-sp-d16
 2408              	_ZNK14rosserial_msgs3Log9serializeEPh:
 2409              	.LVL186:
 2410              	.LFB438:
  31:Core/Inc/ros/rosserial_msgs/Log.h ****     {
 2411              		.loc 4 31 17 is_stmt 1 view -0
 2412              		.cfi_startproc
 2413              		@ args = 0, pretend = 0, frame = 0
 2414              		@ frame_needed = 0, uses_anonymous_args = 0
  31:Core/Inc/ros/rosserial_msgs/Log.h ****     {
 2415              		.loc 4 31 17 is_stmt 0 view .LVU598
 2416 0000 70B5     		push	{r4, r5, r6, lr}
ARM GAS  /tmp/ccaSmKi1.s 			page 77


 2417              	.LCFI16:
 2418              		.cfi_def_cfa_offset 16
 2419              		.cfi_offset 4, -16
 2420              		.cfi_offset 5, -12
 2421              		.cfi_offset 6, -8
 2422              		.cfi_offset 14, -4
 2423 0002 0646     		mov	r6, r0
 2424 0004 0D46     		mov	r5, r1
  33:Core/Inc/ros/rosserial_msgs/Log.h ****       *(outbuffer + offset + 0) = (this->level >> (8 * 0)) & 0xFF;
 2425              		.loc 4 33 7 is_stmt 1 view .LVU599
 2426              	.LVL187:
  34:Core/Inc/ros/rosserial_msgs/Log.h ****       offset += sizeof(this->level);
 2427              		.loc 4 34 7 view .LVU600
  34:Core/Inc/ros/rosserial_msgs/Log.h ****       offset += sizeof(this->level);
 2428              		.loc 4 34 42 is_stmt 0 view .LVU601
 2429 0006 0379     		ldrb	r3, [r0, #4]	@ zero_extendqisi2
  34:Core/Inc/ros/rosserial_msgs/Log.h ****       offset += sizeof(this->level);
 2430              		.loc 4 34 33 view .LVU602
 2431 0008 0B70     		strb	r3, [r1]
  35:Core/Inc/ros/rosserial_msgs/Log.h ****       uint32_t length_msg = strlen(this->msg);
 2432              		.loc 4 35 7 is_stmt 1 view .LVU603
 2433              	.LVL188:
  36:Core/Inc/ros/rosserial_msgs/Log.h ****       varToArr(outbuffer + offset, length_msg);
 2434              		.loc 4 36 7 view .LVU604
  36:Core/Inc/ros/rosserial_msgs/Log.h ****       varToArr(outbuffer + offset, length_msg);
 2435              		.loc 4 36 35 is_stmt 0 view .LVU605
 2436 000a 8068     		ldr	r0, [r0, #8]
 2437              	.LVL189:
  36:Core/Inc/ros/rosserial_msgs/Log.h ****       varToArr(outbuffer + offset, length_msg);
 2438              		.loc 4 36 35 view .LVU606
 2439 000c FFF7FEFF 		bl	strlen
 2440              	.LVL190:
  36:Core/Inc/ros/rosserial_msgs/Log.h ****       varToArr(outbuffer + offset, length_msg);
 2441              		.loc 4 36 35 view .LVU607
 2442 0010 0446     		mov	r4, r0
 2443              	.LVL191:
  37:Core/Inc/ros/rosserial_msgs/Log.h ****       offset += 4;
 2444              		.loc 4 37 7 is_stmt 1 view .LVU608
 2445              	.LBB335:
 2446              	.LBI335:
 188:Core/Inc/ros/ros/msg.h ****   {
 2447              		.loc 11 188 15 view .LVU609
 2448              	.LBB336:
 190:Core/Inc/ros/ros/msg.h ****       arr[i] = (var >> (8 * i));
 2449              		.loc 11 190 17 is_stmt 0 view .LVU610
 2450 0012 0023     		movs	r3, #0
 2451 0014 06E0     		b	.L134
 2452              	.LVL192:
 2453              	.L136:
 2454              		.loc 11 191 27 view .LVU611
 2455 0016 4FEAC30C 		lsl	ip, r3, #3
 2456              		.loc 11 191 21 view .LVU612
 2457 001a 24FA0CFC 		lsr	ip, r4, ip
 2458 001e 0133     		adds	r3, r3, #1
 2459              	.LVL193:
 2460              		.loc 11 191 14 view .LVU613
 2461 0020 05F803C0 		strb	ip, [r5, r3]
ARM GAS  /tmp/ccaSmKi1.s 			page 78


 190:Core/Inc/ros/ros/msg.h ****       arr[i] = (var >> (8 * i));
 2462              		.loc 11 190 5 is_stmt 1 view .LVU614
 2463              	.LVL194:
 2464              	.L134:
 190:Core/Inc/ros/ros/msg.h ****       arr[i] = (var >> (8 * i));
 2465              		.loc 11 190 26 view .LVU615
 2466 0024 032B     		cmp	r3, #3
 2467 0026 F6D9     		bls	.L136
 2468              	.LVL195:
 190:Core/Inc/ros/ros/msg.h ****       arr[i] = (var >> (8 * i));
 2469              		.loc 11 190 26 is_stmt 0 view .LVU616
 2470              	.LBE336:
 2471              	.LBE335:
  38:Core/Inc/ros/rosserial_msgs/Log.h ****       memcpy(outbuffer + offset, this->msg, length_msg);
 2472              		.loc 4 38 7 is_stmt 1 view .LVU617
  39:Core/Inc/ros/rosserial_msgs/Log.h ****       offset += length_msg;
 2473              		.loc 4 39 7 view .LVU618
  39:Core/Inc/ros/rosserial_msgs/Log.h ****       offset += length_msg;
 2474              		.loc 4 39 13 is_stmt 0 view .LVU619
 2475 0028 2246     		mov	r2, r4
 2476 002a B168     		ldr	r1, [r6, #8]
 2477 002c 681D     		adds	r0, r5, #5
 2478              	.LVL196:
  39:Core/Inc/ros/rosserial_msgs/Log.h ****       offset += length_msg;
 2479              		.loc 4 39 13 view .LVU620
 2480 002e FFF7FEFF 		bl	memcpy
 2481              	.LVL197:
  40:Core/Inc/ros/rosserial_msgs/Log.h ****       return offset;
 2482              		.loc 4 40 7 is_stmt 1 view .LVU621
  41:Core/Inc/ros/rosserial_msgs/Log.h ****     }
 2483              		.loc 4 41 7 view .LVU622
  42:Core/Inc/ros/rosserial_msgs/Log.h **** 
 2484              		.loc 4 42 5 is_stmt 0 view .LVU623
 2485 0032 601D     		adds	r0, r4, #5
 2486              	.LVL198:
  42:Core/Inc/ros/rosserial_msgs/Log.h **** 
 2487              		.loc 4 42 5 view .LVU624
 2488 0034 70BD     		pop	{r4, r5, r6, pc}
  42:Core/Inc/ros/rosserial_msgs/Log.h **** 
 2489              		.loc 4 42 5 view .LVU625
 2490              		.cfi_endproc
 2491              	.LFE438:
 2493              		.section	.text._ZNK14rosserial_msgs20RequestParamResponse9serializeEPh,"axG",%progbits,_ZNK14rosse
 2494              		.align	1
