ARM GAS  /tmp/ccaSmKi1.s 			page 1


   1              		.cpu cortex-m4
   2              		.eabi_attribute 27, 1
   3              		.eabi_attribute 28, 1
   4              		.eabi_attribute 20, 1
   5              		.eabi_attribute 21, 1
   6              		.eabi_attribute 23, 3
   7              		.eabi_attribute 24, 1
   8              		.eabi_attribute 25, 1
   9              		.eabi_attribute 26, 1
  10              		.eabi_attribute 30, 1
  11              		.eabi_attribute 34, 1
  12              		.eabi_attribute 18, 4
  13              		.file	"operation.cpp"
  14              		.text
  15              	.Ltext0:
  16              		.cfi_sections	.debug_frame
  17              		.section	.text._ZNK9actuators18motor_driver_param9serializeEPh,"axG",%progbits,_ZNK9actuators18mot
  18              		.align	1
  19              		.weak	_ZNK9actuators18motor_driver_param9serializeEPh
  20              		.arch armv7e-m
  21              		.syntax unified
  22              		.thumb
  23              		.thumb_func
  24              		.fpu fpv4-sp-d16
  26              	_ZNK9actuators18motor_driver_param9serializeEPh:
  27              	.LVL0:
  28              	.LFB153:
  29              		.file 1 "Core/Inc/ros/actuators/motor_driver_param.h"
   1:Core/Inc/ros/actuators/motor_driver_param.h **** #ifndef _ROS_actuators_motor_driver_param_h
   2:Core/Inc/ros/actuators/motor_driver_param.h **** #define _ROS_actuators_motor_driver_param_h
   3:Core/Inc/ros/actuators/motor_driver_param.h **** 
   4:Core/Inc/ros/actuators/motor_driver_param.h **** #include <stdint.h>
   5:Core/Inc/ros/actuators/motor_driver_param.h **** #include <string.h>
   6:Core/Inc/ros/actuators/motor_driver_param.h **** #include <stdlib.h>
   7:Core/Inc/ros/actuators/motor_driver_param.h **** #include "ros/msg.h"
   8:Core/Inc/ros/actuators/motor_driver_param.h **** 
   9:Core/Inc/ros/actuators/motor_driver_param.h **** namespace actuators
  10:Core/Inc/ros/actuators/motor_driver_param.h **** {
  11:Core/Inc/ros/actuators/motor_driver_param.h **** 
  12:Core/Inc/ros/actuators/motor_driver_param.h ****   class motor_driver_param : public ros::Msg
  13:Core/Inc/ros/actuators/motor_driver_param.h ****   {
  14:Core/Inc/ros/actuators/motor_driver_param.h ****     public:
  15:Core/Inc/ros/actuators/motor_driver_param.h ****       typedef uint8_t _id_type;
  16:Core/Inc/ros/actuators/motor_driver_param.h ****       _id_type id;
  17:Core/Inc/ros/actuators/motor_driver_param.h ****       typedef uint8_t _dir1_type;
  18:Core/Inc/ros/actuators/motor_driver_param.h ****       _dir1_type dir1;
  19:Core/Inc/ros/actuators/motor_driver_param.h ****       typedef uint8_t _dir2_type;
  20:Core/Inc/ros/actuators/motor_driver_param.h ****       _dir2_type dir2;
  21:Core/Inc/ros/actuators/motor_driver_param.h ****       typedef uint16_t _pwm_type;
  22:Core/Inc/ros/actuators/motor_driver_param.h ****       _pwm_type pwm;
  23:Core/Inc/ros/actuators/motor_driver_param.h **** 
  24:Core/Inc/ros/actuators/motor_driver_param.h ****     motor_driver_param():
  25:Core/Inc/ros/actuators/motor_driver_param.h ****       id(0),
  26:Core/Inc/ros/actuators/motor_driver_param.h ****       dir1(0),
  27:Core/Inc/ros/actuators/motor_driver_param.h ****       dir2(0),
  28:Core/Inc/ros/actuators/motor_driver_param.h ****       pwm(0)
  29:Core/Inc/ros/actuators/motor_driver_param.h ****     {
ARM GAS  /tmp/ccaSmKi1.s 			page 2


  30:Core/Inc/ros/actuators/motor_driver_param.h ****     }
  31:Core/Inc/ros/actuators/motor_driver_param.h **** 
  32:Core/Inc/ros/actuators/motor_driver_param.h ****     virtual int serialize(unsigned char *outbuffer) const override
  30              		.loc 1 32 17 view -0
  31              		.cfi_startproc
  32              		@ args = 0, pretend = 0, frame = 0
  33              		@ frame_needed = 0, uses_anonymous_args = 0
  34              		@ link register save eliminated.
  33:Core/Inc/ros/actuators/motor_driver_param.h ****     {
  34:Core/Inc/ros/actuators/motor_driver_param.h ****       int offset = 0;
  35              		.loc 1 34 7 view .LVU1
  35:Core/Inc/ros/actuators/motor_driver_param.h ****       *(outbuffer + offset + 0) = (this->id >> (8 * 0)) & 0xFF;
  36              		.loc 1 35 7 view .LVU2
  37              		.loc 1 35 42 is_stmt 0 view .LVU3
  38 0000 0379     		ldrb	r3, [r0, #4]	@ zero_extendqisi2
  39              		.loc 1 35 33 view .LVU4
  40 0002 0B70     		strb	r3, [r1]
  36:Core/Inc/ros/actuators/motor_driver_param.h ****       offset += sizeof(this->id);
  41              		.loc 1 36 7 is_stmt 1 view .LVU5
  42              	.LVL1:
  37:Core/Inc/ros/actuators/motor_driver_param.h ****       *(outbuffer + offset + 0) = (this->dir1 >> (8 * 0)) & 0xFF;
  43              		.loc 1 37 7 view .LVU6
  44              		.loc 1 37 42 is_stmt 0 view .LVU7
  45 0004 4379     		ldrb	r3, [r0, #5]	@ zero_extendqisi2
  46              		.loc 1 37 33 view .LVU8
  47 0006 4B70     		strb	r3, [r1, #1]
  38:Core/Inc/ros/actuators/motor_driver_param.h ****       offset += sizeof(this->dir1);
  48              		.loc 1 38 7 is_stmt 1 view .LVU9
  49              	.LVL2:
  39:Core/Inc/ros/actuators/motor_driver_param.h ****       *(outbuffer + offset + 0) = (this->dir2 >> (8 * 0)) & 0xFF;
  50              		.loc 1 39 7 view .LVU10
  51              		.loc 1 39 42 is_stmt 0 view .LVU11
  52 0008 8379     		ldrb	r3, [r0, #6]	@ zero_extendqisi2
  53              		.loc 1 39 33 view .LVU12
  54 000a 8B70     		strb	r3, [r1, #2]
  40:Core/Inc/ros/actuators/motor_driver_param.h ****       offset += sizeof(this->dir2);
  55              		.loc 1 40 7 is_stmt 1 view .LVU13
  56              	.LVL3:
  41:Core/Inc/ros/actuators/motor_driver_param.h ****       *(outbuffer + offset + 0) = (this->pwm >> (8 * 0)) & 0xFF;
  57              		.loc 1 41 7 view .LVU14
  58              		.loc 1 41 42 is_stmt 0 view .LVU15
  59 000c 0389     		ldrh	r3, [r0, #8]
  60              		.loc 1 41 33 view .LVU16
  61 000e CB70     		strb	r3, [r1, #3]
  42:Core/Inc/ros/actuators/motor_driver_param.h ****       *(outbuffer + offset + 1) = (this->pwm >> (8 * 1)) & 0xFF;
  62              		.loc 1 42 7 is_stmt 1 view .LVU17
  63              		.loc 1 42 42 is_stmt 0 view .LVU18
  64 0010 0389     		ldrh	r3, [r0, #8]
  65              		.loc 1 42 46 view .LVU19
  66 0012 1B0A     		lsrs	r3, r3, #8
  67              		.loc 1 42 33 view .LVU20
  68 0014 0B71     		strb	r3, [r1, #4]
  43:Core/Inc/ros/actuators/motor_driver_param.h ****       offset += sizeof(this->pwm);
  69              		.loc 1 43 7 is_stmt 1 view .LVU21
  70              	.LVL4:
  44:Core/Inc/ros/actuators/motor_driver_param.h ****       return offset;
  71              		.loc 1 44 7 view .LVU22
ARM GAS  /tmp/ccaSmKi1.s 			page 3


  45:Core/Inc/ros/actuators/motor_driver_param.h ****     }
  72              		.loc 1 45 5 is_stmt 0 view .LVU23
  73 0016 0520     		movs	r0, #5
  74              	.LVL5:
  75              		.loc 1 45 5 view .LVU24
  76 0018 7047     		bx	lr
  77              		.cfi_endproc
  78              	.LFE153:
  80              		.section	.text._ZN9actuators18motor_driver_param11deserializeEPh,"axG",%progbits,_ZN9actuators18mo
  81              		.align	1
  82              		.weak	_ZN9actuators18motor_driver_param11deserializeEPh
  83              		.syntax unified
  84              		.thumb
  85              		.thumb_func
  86              		.fpu fpv4-sp-d16
  88              	_ZN9actuators18motor_driver_param11deserializeEPh:
  89              	.LVL6:
  90              	.LFB154:
  46:Core/Inc/ros/actuators/motor_driver_param.h **** 
  47:Core/Inc/ros/actuators/motor_driver_param.h ****     virtual int deserialize(unsigned char *inbuffer) override
  91              		.loc 1 47 17 is_stmt 1 view -0
  92              		.cfi_startproc
  93              		@ args = 0, pretend = 0, frame = 0
  94              		@ frame_needed = 0, uses_anonymous_args = 0
  95              		@ link register save eliminated.
  48:Core/Inc/ros/actuators/motor_driver_param.h ****     {
  49:Core/Inc/ros/actuators/motor_driver_param.h ****       int offset = 0;
  96              		.loc 1 49 7 view .LVU26
  50:Core/Inc/ros/actuators/motor_driver_param.h ****       this->id =  ((uint8_t) (*(inbuffer + offset)));
  97              		.loc 1 50 7 view .LVU27
  98              		.loc 1 50 31 is_stmt 0 view .LVU28
  99 0000 0B78     		ldrb	r3, [r1]	@ zero_extendqisi2
 100              		.loc 1 50 16 view .LVU29
 101 0002 0371     		strb	r3, [r0, #4]
  51:Core/Inc/ros/actuators/motor_driver_param.h ****       offset += sizeof(this->id);
 102              		.loc 1 51 7 is_stmt 1 view .LVU30
 103              	.LVL7:
  52:Core/Inc/ros/actuators/motor_driver_param.h ****       this->dir1 =  ((uint8_t) (*(inbuffer + offset)));
 104              		.loc 1 52 7 view .LVU31
 105              		.loc 1 52 33 is_stmt 0 view .LVU32
 106 0004 4B78     		ldrb	r3, [r1, #1]	@ zero_extendqisi2
 107              		.loc 1 52 18 view .LVU33
 108 0006 4371     		strb	r3, [r0, #5]
  53:Core/Inc/ros/actuators/motor_driver_param.h ****       offset += sizeof(this->dir1);
 109              		.loc 1 53 7 is_stmt 1 view .LVU34
 110              	.LVL8:
  54:Core/Inc/ros/actuators/motor_driver_param.h ****       this->dir2 =  ((uint8_t) (*(inbuffer + offset)));
 111              		.loc 1 54 7 view .LVU35
 112              		.loc 1 54 33 is_stmt 0 view .LVU36
 113 0008 8B78     		ldrb	r3, [r1, #2]	@ zero_extendqisi2
 114              		.loc 1 54 18 view .LVU37
 115 000a 8371     		strb	r3, [r0, #6]
  55:Core/Inc/ros/actuators/motor_driver_param.h ****       offset += sizeof(this->dir2);
 116              		.loc 1 55 7 is_stmt 1 view .LVU38
 117              	.LVL9:
  56:Core/Inc/ros/actuators/motor_driver_param.h ****       this->pwm =  ((uint16_t) (*(inbuffer + offset)));
 118              		.loc 1 56 7 view .LVU39
ARM GAS  /tmp/ccaSmKi1.s 			page 4


 119              		.loc 1 56 21 is_stmt 0 view .LVU40
 120 000c CB78     		ldrb	r3, [r1, #3]	@ zero_extendqisi2
 121              		.loc 1 56 17 view .LVU41
 122 000e 0381     		strh	r3, [r0, #8]	@ movhi
  57:Core/Inc/ros/actuators/motor_driver_param.h ****       this->pwm |= ((uint16_t) (*(inbuffer + offset + 1))) << (8 * 1);
 123              		.loc 1 57 7 is_stmt 1 view .LVU42
 124              		.loc 1 57 33 is_stmt 0 view .LVU43
 125 0010 0A79     		ldrb	r2, [r1, #4]	@ zero_extendqisi2
 126              		.loc 1 57 17 view .LVU44
 127 0012 43EA0223 		orr	r3, r3, r2, lsl #8
 128 0016 0381     		strh	r3, [r0, #8]	@ movhi
  58:Core/Inc/ros/actuators/motor_driver_param.h ****       offset += sizeof(this->pwm);
 129              		.loc 1 58 7 is_stmt 1 view .LVU45
 130              	.LVL10:
  59:Core/Inc/ros/actuators/motor_driver_param.h ****      return offset;
 131              		.loc 1 59 6 view .LVU46
  60:Core/Inc/ros/actuators/motor_driver_param.h ****     }
 132              		.loc 1 60 5 is_stmt 0 view .LVU47
 133 0018 0520     		movs	r0, #5
 134              	.LVL11:
 135              		.loc 1 60 5 view .LVU48
 136 001a 7047     		bx	lr
 137              		.cfi_endproc
 138              	.LFE154:
 140              		.section	.rodata._ZN9actuators18motor_driver_param7getTypeEv.str1.4,"aMS",%progbits,1
 141              		.align	2
 142              	.LC0:
 143 0000 61637475 		.ascii	"actuators/motor_driver_param\000"
 143      61746F72 
 143      732F6D6F 
 143      746F725F 
 143      64726976 
 144              		.section	.text._ZN9actuators18motor_driver_param7getTypeEv,"axG",%progbits,_ZN9actuators18motor_dr
 145              		.align	1
 146              		.weak	_ZN9actuators18motor_driver_param7getTypeEv
 147              		.syntax unified
 148              		.thumb
 149              		.thumb_func
 150              		.fpu fpv4-sp-d16
 152              	_ZN9actuators18motor_driver_param7getTypeEv:
 153              	.LVL12:
 154              	.LFB155:
  61:Core/Inc/ros/actuators/motor_driver_param.h **** 
  62:Core/Inc/ros/actuators/motor_driver_param.h ****     virtual const char * getType() override { return "actuators/motor_driver_param"; };
 155              		.loc 1 62 26 is_stmt 1 view -0
 156              		.cfi_startproc
 157              		@ args = 0, pretend = 0, frame = 0
 158              		@ frame_needed = 0, uses_anonymous_args = 0
 159              		@ link register save eliminated.
 160              		.loc 1 62 47 view .LVU50
 161              		.loc 1 62 86 is_stmt 0 view .LVU51
 162 0000 0048     		ldr	r0, .L4
 163              	.LVL13:
 164              		.loc 1 62 86 view .LVU52
 165 0002 7047     		bx	lr
 166              	.L5:
 167              		.align	2
ARM GAS  /tmp/ccaSmKi1.s 			page 5


 168              	.L4:
 169 0004 00000000 		.word	.LC0
 170              		.cfi_endproc
 171              	.LFE155:
 173              		.section	.rodata._ZN9actuators18motor_driver_param6getMD5Ev.str1.4,"aMS",%progbits,1
 174              		.align	2
 175              	.LC1:
 176 0000 34646437 		.ascii	"4dd7daa3fbb798d83aefe25263d7d1e1\000"
 176      64616133 
 176      66626237 
 176      39386438 
 176      33616566 
 177              		.section	.text._ZN9actuators18motor_driver_param6getMD5Ev,"axG",%progbits,_ZN9actuators18motor_dri
 178              		.align	1
 179              		.weak	_ZN9actuators18motor_driver_param6getMD5Ev
 180              		.syntax unified
 181              		.thumb
 182              		.thumb_func
 183              		.fpu fpv4-sp-d16
 185              	_ZN9actuators18motor_driver_param6getMD5Ev:
 186              	.LVL14:
 187              	.LFB156:
  63:Core/Inc/ros/actuators/motor_driver_param.h ****     virtual const char * getMD5() override { return "4dd7daa3fbb798d83aefe25263d7d1e1"; };
 188              		.loc 1 63 26 is_stmt 1 view -0
 189              		.cfi_startproc
 190              		@ args = 0, pretend = 0, frame = 0
 191              		@ frame_needed = 0, uses_anonymous_args = 0
 192              		@ link register save eliminated.
 193              		.loc 1 63 46 view .LVU54
 194              		.loc 1 63 89 is_stmt 0 view .LVU55
 195 0000 0048     		ldr	r0, .L7
 196              	.LVL15:
 197              		.loc 1 63 89 view .LVU56
 198 0002 7047     		bx	lr
 199              	.L8:
 200              		.align	2
 201              	.L7:
 202 0004 00000000 		.word	.LC1
 203              		.cfi_endproc
 204              	.LFE156:
 206              		.section	.text._ZNK8std_msgs4Time9serializeEPh,"axG",%progbits,_ZNK8std_msgs4Time9serializeEPh,com
 207              		.align	1
 208              		.weak	_ZNK8std_msgs4Time9serializeEPh
 209              		.syntax unified
 210              		.thumb
 211              		.thumb_func
 212              		.fpu fpv4-sp-d16
 214              	_ZNK8std_msgs4Time9serializeEPh:
 215              	.LVL16:
 216              	.LFB424:
 217              		.file 2 "Core/Inc/ros/std_msgs/Time.h"
   1:Core/Inc/ros/std_msgs/Time.h **** #ifndef _ROS_std_msgs_Time_h
   2:Core/Inc/ros/std_msgs/Time.h **** #define _ROS_std_msgs_Time_h
   3:Core/Inc/ros/std_msgs/Time.h **** 
   4:Core/Inc/ros/std_msgs/Time.h **** #include <stdint.h>
   5:Core/Inc/ros/std_msgs/Time.h **** #include <string.h>
   6:Core/Inc/ros/std_msgs/Time.h **** #include <stdlib.h>
ARM GAS  /tmp/ccaSmKi1.s 			page 6


   7:Core/Inc/ros/std_msgs/Time.h **** #include "ros/msg.h"
   8:Core/Inc/ros/std_msgs/Time.h **** #include "ros/time.h"
   9:Core/Inc/ros/std_msgs/Time.h **** 
  10:Core/Inc/ros/std_msgs/Time.h **** namespace std_msgs
  11:Core/Inc/ros/std_msgs/Time.h **** {
  12:Core/Inc/ros/std_msgs/Time.h **** 
  13:Core/Inc/ros/std_msgs/Time.h ****   class Time : public ros::Msg
  14:Core/Inc/ros/std_msgs/Time.h ****   {
  15:Core/Inc/ros/std_msgs/Time.h ****     public:
  16:Core/Inc/ros/std_msgs/Time.h ****       typedef ros::Time _data_type;
  17:Core/Inc/ros/std_msgs/Time.h ****       _data_type data;
  18:Core/Inc/ros/std_msgs/Time.h **** 
  19:Core/Inc/ros/std_msgs/Time.h ****     Time():
  20:Core/Inc/ros/std_msgs/Time.h ****       data()
  21:Core/Inc/ros/std_msgs/Time.h ****     {
  22:Core/Inc/ros/std_msgs/Time.h ****     }
  23:Core/Inc/ros/std_msgs/Time.h **** 
  24:Core/Inc/ros/std_msgs/Time.h ****     virtual int serialize(unsigned char *outbuffer) const override
 218              		.loc 2 24 17 is_stmt 1 view -0
 219              		.cfi_startproc
 220              		@ args = 0, pretend = 0, frame = 0
 221              		@ frame_needed = 0, uses_anonymous_args = 0
 222              		@ link register save eliminated.
  25:Core/Inc/ros/std_msgs/Time.h ****     {
  26:Core/Inc/ros/std_msgs/Time.h ****       int offset = 0;
 223              		.loc 2 26 7 view .LVU58
  27:Core/Inc/ros/std_msgs/Time.h ****       *(outbuffer + offset + 0) = (this->data.sec >> (8 * 0)) & 0xFF;
 224              		.loc 2 27 7 view .LVU59
 225              		.loc 2 27 47 is_stmt 0 view .LVU60
 226 0000 4368     		ldr	r3, [r0, #4]
 227              		.loc 2 27 33 view .LVU61
 228 0002 0B70     		strb	r3, [r1]
  28:Core/Inc/ros/std_msgs/Time.h ****       *(outbuffer + offset + 1) = (this->data.sec >> (8 * 1)) & 0xFF;
 229              		.loc 2 28 7 is_stmt 1 view .LVU62
 230              		.loc 2 28 47 is_stmt 0 view .LVU63
 231 0004 4368     		ldr	r3, [r0, #4]
 232              		.loc 2 28 51 view .LVU64
 233 0006 1B0A     		lsrs	r3, r3, #8
 234              		.loc 2 28 33 view .LVU65
 235 0008 4B70     		strb	r3, [r1, #1]
  29:Core/Inc/ros/std_msgs/Time.h ****       *(outbuffer + offset + 2) = (this->data.sec >> (8 * 2)) & 0xFF;
 236              		.loc 2 29 7 is_stmt 1 view .LVU66
 237              		.loc 2 29 51 is_stmt 0 view .LVU67
 238 000a C388     		ldrh	r3, [r0, #6]
 239              		.loc 2 29 33 view .LVU68
 240 000c 8B70     		strb	r3, [r1, #2]
  30:Core/Inc/ros/std_msgs/Time.h ****       *(outbuffer + offset + 3) = (this->data.sec >> (8 * 3)) & 0xFF;
 241              		.loc 2 30 7 is_stmt 1 view .LVU69
 242              		.loc 2 30 51 is_stmt 0 view .LVU70
 243 000e C379     		ldrb	r3, [r0, #7]	@ zero_extendqisi2
 244              		.loc 2 30 33 view .LVU71
 245 0010 CB70     		strb	r3, [r1, #3]
  31:Core/Inc/ros/std_msgs/Time.h ****       offset += sizeof(this->data.sec);
 246              		.loc 2 31 7 is_stmt 1 view .LVU72
 247              	.LVL17:
  32:Core/Inc/ros/std_msgs/Time.h ****       *(outbuffer + offset + 0) = (this->data.nsec >> (8 * 0)) & 0xFF;
 248              		.loc 2 32 7 view .LVU73
ARM GAS  /tmp/ccaSmKi1.s 			page 7


 249              		.loc 2 32 47 is_stmt 0 view .LVU74
 250 0012 8368     		ldr	r3, [r0, #8]
 251              		.loc 2 32 33 view .LVU75
 252 0014 0B71     		strb	r3, [r1, #4]
  33:Core/Inc/ros/std_msgs/Time.h ****       *(outbuffer + offset + 1) = (this->data.nsec >> (8 * 1)) & 0xFF;
 253              		.loc 2 33 7 is_stmt 1 view .LVU76
 254              		.loc 2 33 47 is_stmt 0 view .LVU77
 255 0016 8368     		ldr	r3, [r0, #8]
 256              		.loc 2 33 52 view .LVU78
 257 0018 1B0A     		lsrs	r3, r3, #8
 258              		.loc 2 33 33 view .LVU79
 259 001a 4B71     		strb	r3, [r1, #5]
  34:Core/Inc/ros/std_msgs/Time.h ****       *(outbuffer + offset + 2) = (this->data.nsec >> (8 * 2)) & 0xFF;
 260              		.loc 2 34 7 is_stmt 1 view .LVU80
 261              		.loc 2 34 52 is_stmt 0 view .LVU81
 262 001c 4389     		ldrh	r3, [r0, #10]
 263              		.loc 2 34 33 view .LVU82
 264 001e 8B71     		strb	r3, [r1, #6]
  35:Core/Inc/ros/std_msgs/Time.h ****       *(outbuffer + offset + 3) = (this->data.nsec >> (8 * 3)) & 0xFF;
 265              		.loc 2 35 7 is_stmt 1 view .LVU83
 266              		.loc 2 35 52 is_stmt 0 view .LVU84
 267 0020 C37A     		ldrb	r3, [r0, #11]	@ zero_extendqisi2
 268              		.loc 2 35 33 view .LVU85
 269 0022 CB71     		strb	r3, [r1, #7]
  36:Core/Inc/ros/std_msgs/Time.h ****       offset += sizeof(this->data.nsec);
 270              		.loc 2 36 7 is_stmt 1 view .LVU86
 271              	.LVL18:
  37:Core/Inc/ros/std_msgs/Time.h ****       return offset;
 272              		.loc 2 37 7 view .LVU87
  38:Core/Inc/ros/std_msgs/Time.h ****     }
 273              		.loc 2 38 5 is_stmt 0 view .LVU88
 274 0024 0820     		movs	r0, #8
 275              	.LVL19:
 276              		.loc 2 38 5 view .LVU89
 277 0026 7047     		bx	lr
 278              		.cfi_endproc
 279              	.LFE424:
 281              		.section	.text._ZN8std_msgs4Time11deserializeEPh,"axG",%progbits,_ZN8std_msgs4Time11deserializeEPh
 282              		.align	1
 283              		.weak	_ZN8std_msgs4Time11deserializeEPh
 284              		.syntax unified
 285              		.thumb
 286              		.thumb_func
 287              		.fpu fpv4-sp-d16
 289              	_ZN8std_msgs4Time11deserializeEPh:
 290              	.LVL20:
 291              	.LFB425:
  39:Core/Inc/ros/std_msgs/Time.h **** 
  40:Core/Inc/ros/std_msgs/Time.h ****     virtual int deserialize(unsigned char *inbuffer) override
 292              		.loc 2 40 17 is_stmt 1 view -0
 293              		.cfi_startproc
 294              		@ args = 0, pretend = 0, frame = 0
 295              		@ frame_needed = 0, uses_anonymous_args = 0
 296              		@ link register save eliminated.
  41:Core/Inc/ros/std_msgs/Time.h ****     {
  42:Core/Inc/ros/std_msgs/Time.h ****       int offset = 0;
 297              		.loc 2 42 7 view .LVU91
ARM GAS  /tmp/ccaSmKi1.s 			page 8


  43:Core/Inc/ros/std_msgs/Time.h ****       this->data.sec =  ((uint32_t) (*(inbuffer + offset)));
 298              		.loc 2 43 7 view .LVU92
 299              		.loc 2 43 38 is_stmt 0 view .LVU93
 300 0000 0B78     		ldrb	r3, [r1]	@ zero_extendqisi2
 301              		.loc 2 43 22 view .LVU94
 302 0002 4360     		str	r3, [r0, #4]
  44:Core/Inc/ros/std_msgs/Time.h ****       this->data.sec |= ((uint32_t) (*(inbuffer + offset + 1))) << (8 * 1);
 303              		.loc 2 44 7 is_stmt 1 view .LVU95
 304              		.loc 2 44 38 is_stmt 0 view .LVU96
 305 0004 4A78     		ldrb	r2, [r1, #1]	@ zero_extendqisi2
 306              		.loc 2 44 22 view .LVU97
 307 0006 43EA0223 		orr	r3, r3, r2, lsl #8
 308 000a 4360     		str	r3, [r0, #4]
  45:Core/Inc/ros/std_msgs/Time.h ****       this->data.sec |= ((uint32_t) (*(inbuffer + offset + 2))) << (8 * 2);
 309              		.loc 2 45 7 is_stmt 1 view .LVU98
 310              		.loc 2 45 38 is_stmt 0 view .LVU99
 311 000c 8A78     		ldrb	r2, [r1, #2]	@ zero_extendqisi2
 312              		.loc 2 45 22 view .LVU100
 313 000e 43EA0243 		orr	r3, r3, r2, lsl #16
 314 0012 4360     		str	r3, [r0, #4]
  46:Core/Inc/ros/std_msgs/Time.h ****       this->data.sec |= ((uint32_t) (*(inbuffer + offset + 3))) << (8 * 3);
 315              		.loc 2 46 7 is_stmt 1 view .LVU101
 316              		.loc 2 46 38 is_stmt 0 view .LVU102
 317 0014 CA78     		ldrb	r2, [r1, #3]	@ zero_extendqisi2
 318              		.loc 2 46 22 view .LVU103
 319 0016 43EA0263 		orr	r3, r3, r2, lsl #24
 320 001a 4360     		str	r3, [r0, #4]
  47:Core/Inc/ros/std_msgs/Time.h ****       offset += sizeof(this->data.sec);
 321              		.loc 2 47 7 is_stmt 1 view .LVU104
 322              	.LVL21:
  48:Core/Inc/ros/std_msgs/Time.h ****       this->data.nsec =  ((uint32_t) (*(inbuffer + offset)));
 323              		.loc 2 48 7 view .LVU105
 324              		.loc 2 48 39 is_stmt 0 view .LVU106
 325 001c 0B79     		ldrb	r3, [r1, #4]	@ zero_extendqisi2
 326              		.loc 2 48 23 view .LVU107
 327 001e 8360     		str	r3, [r0, #8]
  49:Core/Inc/ros/std_msgs/Time.h ****       this->data.nsec |= ((uint32_t) (*(inbuffer + offset + 1))) << (8 * 1);
 328              		.loc 2 49 7 is_stmt 1 view .LVU108
 329              		.loc 2 49 39 is_stmt 0 view .LVU109
 330 0020 4A79     		ldrb	r2, [r1, #5]	@ zero_extendqisi2
 331              		.loc 2 49 23 view .LVU110
 332 0022 43EA0223 		orr	r3, r3, r2, lsl #8
 333 0026 8360     		str	r3, [r0, #8]
  50:Core/Inc/ros/std_msgs/Time.h ****       this->data.nsec |= ((uint32_t) (*(inbuffer + offset + 2))) << (8 * 2);
 334              		.loc 2 50 7 is_stmt 1 view .LVU111
 335              		.loc 2 50 39 is_stmt 0 view .LVU112
 336 0028 8A79     		ldrb	r2, [r1, #6]	@ zero_extendqisi2
 337              		.loc 2 50 23 view .LVU113
 338 002a 43EA0243 		orr	r3, r3, r2, lsl #16
 339 002e 8360     		str	r3, [r0, #8]
  51:Core/Inc/ros/std_msgs/Time.h ****       this->data.nsec |= ((uint32_t) (*(inbuffer + offset + 3))) << (8 * 3);
 340              		.loc 2 51 7 is_stmt 1 view .LVU114
 341              		.loc 2 51 39 is_stmt 0 view .LVU115
 342 0030 CA79     		ldrb	r2, [r1, #7]	@ zero_extendqisi2
 343              		.loc 2 51 23 view .LVU116
 344 0032 43EA0263 		orr	r3, r3, r2, lsl #24
 345 0036 8360     		str	r3, [r0, #8]
ARM GAS  /tmp/ccaSmKi1.s 			page 9


  52:Core/Inc/ros/std_msgs/Time.h ****       offset += sizeof(this->data.nsec);
 346              		.loc 2 52 7 is_stmt 1 view .LVU117
 347              	.LVL22:
  53:Core/Inc/ros/std_msgs/Time.h ****      return offset;
 348              		.loc 2 53 6 view .LVU118
  54:Core/Inc/ros/std_msgs/Time.h ****     }
 349              		.loc 2 54 5 is_stmt 0 view .LVU119
 350 0038 0820     		movs	r0, #8
 351              	.LVL23:
 352              		.loc 2 54 5 view .LVU120
 353 003a 7047     		bx	lr
 354              		.cfi_endproc
 355              	.LFE425:
 357              		.section	.rodata._ZN8std_msgs4Time7getTypeEv.str1.4,"aMS",%progbits,1
 358              		.align	2
 359              	.LC2:
 360 0000 7374645F 		.ascii	"std_msgs/Time\000"
 360      6D736773 
 360      2F54696D 
 360      6500
 361              		.section	.text._ZN8std_msgs4Time7getTypeEv,"axG",%progbits,_ZN8std_msgs4Time7getTypeEv,comdat
 362              		.align	1
 363              		.weak	_ZN8std_msgs4Time7getTypeEv
 364              		.syntax unified
 365              		.thumb
 366              		.thumb_func
 367              		.fpu fpv4-sp-d16
 369              	_ZN8std_msgs4Time7getTypeEv:
 370              	.LVL24:
 371              	.LFB426:
  55:Core/Inc/ros/std_msgs/Time.h **** 
  56:Core/Inc/ros/std_msgs/Time.h ****     virtual const char * getType() override { return "std_msgs/Time"; };
 372              		.loc 2 56 26 is_stmt 1 view -0
 373              		.cfi_startproc
 374              		@ args = 0, pretend = 0, frame = 0
 375              		@ frame_needed = 0, uses_anonymous_args = 0
 376              		@ link register save eliminated.
 377              		.loc 2 56 47 view .LVU122
 378              		.loc 2 56 71 is_stmt 0 view .LVU123
 379 0000 0048     		ldr	r0, .L12
 380              	.LVL25:
 381              		.loc 2 56 71 view .LVU124
 382 0002 7047     		bx	lr
 383              	.L13:
 384              		.align	2
 385              	.L12:
 386 0004 00000000 		.word	.LC2
 387              		.cfi_endproc
 388              	.LFE426:
 390              		.section	.rodata._ZN8std_msgs4Time6getMD5Ev.str1.4,"aMS",%progbits,1
 391              		.align	2
 392              	.LC3:
 393 0000 63643731 		.ascii	"cd7166c74c552c311fbcc2fe5a7bc289\000"
 393      36366337 
 393      34633535 
 393      32633331 
 393      31666263 
ARM GAS  /tmp/ccaSmKi1.s 			page 10


 394              		.section	.text._ZN8std_msgs4Time6getMD5Ev,"axG",%progbits,_ZN8std_msgs4Time6getMD5Ev,comdat
 395              		.align	1
 396              		.weak	_ZN8std_msgs4Time6getMD5Ev
 397              		.syntax unified
 398              		.thumb
 399              		.thumb_func
 400              		.fpu fpv4-sp-d16
 402              	_ZN8std_msgs4Time6getMD5Ev:
 403              	.LVL26:
 404              	.LFB427:
  57:Core/Inc/ros/std_msgs/Time.h ****     virtual const char * getMD5() override { return "cd7166c74c552c311fbcc2fe5a7bc289"; };
 405              		.loc 2 57 26 is_stmt 1 view -0
 406              		.cfi_startproc
 407              		@ args = 0, pretend = 0, frame = 0
 408              		@ frame_needed = 0, uses_anonymous_args = 0
 409              		@ link register save eliminated.
 410              		.loc 2 57 46 view .LVU126
 411              		.loc 2 57 89 is_stmt 0 view .LVU127
 412 0000 0048     		ldr	r0, .L15
 413              	.LVL27:
 414              		.loc 2 57 89 view .LVU128
 415 0002 7047     		bx	lr
 416              	.L16:
 417              		.align	2
 418              	.L15:
 419 0004 00000000 		.word	.LC3
 420              		.cfi_endproc
 421              	.LFE427:
 423              		.section	.rodata._ZN14rosserial_msgs9TopicInfo7getTypeEv.str1.4,"aMS",%progbits,1
 424              		.align	2
 425              	.LC4:
 426 0000 726F7373 		.ascii	"rosserial_msgs/TopicInfo\000"
 426      65726961 
 426      6C5F6D73 
 426      67732F54 
 426      6F706963 
 427              		.section	.text._ZN14rosserial_msgs9TopicInfo7getTypeEv,"axG",%progbits,_ZN14rosserial_msgs9TopicIn
 428              		.align	1
 429              		.weak	_ZN14rosserial_msgs9TopicInfo7getTypeEv
 430              		.syntax unified
 431              		.thumb
 432              		.thumb_func
 433              		.fpu fpv4-sp-d16
 435              	_ZN14rosserial_msgs9TopicInfo7getTypeEv:
 436              	.LVL28:
 437              	.LFB433:
 438              		.file 3 "Core/Inc/ros/rosserial_msgs/TopicInfo.h"
   1:Core/Inc/ros/rosserial_msgs/TopicInfo.h **** #ifndef _ROS_rosserial_msgs_TopicInfo_h
   2:Core/Inc/ros/rosserial_msgs/TopicInfo.h **** #define _ROS_rosserial_msgs_TopicInfo_h
   3:Core/Inc/ros/rosserial_msgs/TopicInfo.h **** 
   4:Core/Inc/ros/rosserial_msgs/TopicInfo.h **** #include <stdint.h>
   5:Core/Inc/ros/rosserial_msgs/TopicInfo.h **** #include <string.h>
   6:Core/Inc/ros/rosserial_msgs/TopicInfo.h **** #include <stdlib.h>
   7:Core/Inc/ros/rosserial_msgs/TopicInfo.h **** #include "ros/msg.h"
   8:Core/Inc/ros/rosserial_msgs/TopicInfo.h **** 
   9:Core/Inc/ros/rosserial_msgs/TopicInfo.h **** namespace rosserial_msgs
  10:Core/Inc/ros/rosserial_msgs/TopicInfo.h **** {
ARM GAS  /tmp/ccaSmKi1.s 			page 11


  11:Core/Inc/ros/rosserial_msgs/TopicInfo.h **** 
  12:Core/Inc/ros/rosserial_msgs/TopicInfo.h ****   class TopicInfo : public ros::Msg
  13:Core/Inc/ros/rosserial_msgs/TopicInfo.h ****   {
  14:Core/Inc/ros/rosserial_msgs/TopicInfo.h ****     public:
  15:Core/Inc/ros/rosserial_msgs/TopicInfo.h ****       typedef uint16_t _topic_id_type;
  16:Core/Inc/ros/rosserial_msgs/TopicInfo.h ****       _topic_id_type topic_id;
  17:Core/Inc/ros/rosserial_msgs/TopicInfo.h ****       typedef const char* _topic_name_type;
  18:Core/Inc/ros/rosserial_msgs/TopicInfo.h ****       _topic_name_type topic_name;
  19:Core/Inc/ros/rosserial_msgs/TopicInfo.h ****       typedef const char* _message_type_type;
  20:Core/Inc/ros/rosserial_msgs/TopicInfo.h ****       _message_type_type message_type;
  21:Core/Inc/ros/rosserial_msgs/TopicInfo.h ****       typedef const char* _md5sum_type;
  22:Core/Inc/ros/rosserial_msgs/TopicInfo.h ****       _md5sum_type md5sum;
  23:Core/Inc/ros/rosserial_msgs/TopicInfo.h ****       typedef int32_t _buffer_size_type;
  24:Core/Inc/ros/rosserial_msgs/TopicInfo.h ****       _buffer_size_type buffer_size;
  25:Core/Inc/ros/rosserial_msgs/TopicInfo.h ****       enum { ID_PUBLISHER = 0 };
  26:Core/Inc/ros/rosserial_msgs/TopicInfo.h ****       enum { ID_SUBSCRIBER = 1 };
  27:Core/Inc/ros/rosserial_msgs/TopicInfo.h ****       enum { ID_SERVICE_SERVER = 2 };
  28:Core/Inc/ros/rosserial_msgs/TopicInfo.h ****       enum { ID_SERVICE_CLIENT = 4 };
  29:Core/Inc/ros/rosserial_msgs/TopicInfo.h ****       enum { ID_PARAMETER_REQUEST = 6 };
  30:Core/Inc/ros/rosserial_msgs/TopicInfo.h ****       enum { ID_LOG = 7 };
  31:Core/Inc/ros/rosserial_msgs/TopicInfo.h ****       enum { ID_TIME = 10 };
  32:Core/Inc/ros/rosserial_msgs/TopicInfo.h ****       enum { ID_TX_STOP = 11 };
  33:Core/Inc/ros/rosserial_msgs/TopicInfo.h **** 
  34:Core/Inc/ros/rosserial_msgs/TopicInfo.h ****     TopicInfo():
  35:Core/Inc/ros/rosserial_msgs/TopicInfo.h ****       topic_id(0),
  36:Core/Inc/ros/rosserial_msgs/TopicInfo.h ****       topic_name(""),
  37:Core/Inc/ros/rosserial_msgs/TopicInfo.h ****       message_type(""),
  38:Core/Inc/ros/rosserial_msgs/TopicInfo.h ****       md5sum(""),
  39:Core/Inc/ros/rosserial_msgs/TopicInfo.h ****       buffer_size(0)
  40:Core/Inc/ros/rosserial_msgs/TopicInfo.h ****     {
  41:Core/Inc/ros/rosserial_msgs/TopicInfo.h ****     }
  42:Core/Inc/ros/rosserial_msgs/TopicInfo.h **** 
  43:Core/Inc/ros/rosserial_msgs/TopicInfo.h ****     virtual int serialize(unsigned char *outbuffer) const override
  44:Core/Inc/ros/rosserial_msgs/TopicInfo.h ****     {
  45:Core/Inc/ros/rosserial_msgs/TopicInfo.h ****       int offset = 0;
  46:Core/Inc/ros/rosserial_msgs/TopicInfo.h ****       *(outbuffer + offset + 0) = (this->topic_id >> (8 * 0)) & 0xFF;
  47:Core/Inc/ros/rosserial_msgs/TopicInfo.h ****       *(outbuffer + offset + 1) = (this->topic_id >> (8 * 1)) & 0xFF;
  48:Core/Inc/ros/rosserial_msgs/TopicInfo.h ****       offset += sizeof(this->topic_id);
  49:Core/Inc/ros/rosserial_msgs/TopicInfo.h ****       uint32_t length_topic_name = strlen(this->topic_name);
  50:Core/Inc/ros/rosserial_msgs/TopicInfo.h ****       varToArr(outbuffer + offset, length_topic_name);
  51:Core/Inc/ros/rosserial_msgs/TopicInfo.h ****       offset += 4;
  52:Core/Inc/ros/rosserial_msgs/TopicInfo.h ****       memcpy(outbuffer + offset, this->topic_name, length_topic_name);
  53:Core/Inc/ros/rosserial_msgs/TopicInfo.h ****       offset += length_topic_name;
  54:Core/Inc/ros/rosserial_msgs/TopicInfo.h ****       uint32_t length_message_type = strlen(this->message_type);
  55:Core/Inc/ros/rosserial_msgs/TopicInfo.h ****       varToArr(outbuffer + offset, length_message_type);
  56:Core/Inc/ros/rosserial_msgs/TopicInfo.h ****       offset += 4;
  57:Core/Inc/ros/rosserial_msgs/TopicInfo.h ****       memcpy(outbuffer + offset, this->message_type, length_message_type);
  58:Core/Inc/ros/rosserial_msgs/TopicInfo.h ****       offset += length_message_type;
  59:Core/Inc/ros/rosserial_msgs/TopicInfo.h ****       uint32_t length_md5sum = strlen(this->md5sum);
  60:Core/Inc/ros/rosserial_msgs/TopicInfo.h ****       varToArr(outbuffer + offset, length_md5sum);
  61:Core/Inc/ros/rosserial_msgs/TopicInfo.h ****       offset += 4;
  62:Core/Inc/ros/rosserial_msgs/TopicInfo.h ****       memcpy(outbuffer + offset, this->md5sum, length_md5sum);
  63:Core/Inc/ros/rosserial_msgs/TopicInfo.h ****       offset += length_md5sum;
  64:Core/Inc/ros/rosserial_msgs/TopicInfo.h ****       union {
  65:Core/Inc/ros/rosserial_msgs/TopicInfo.h ****         int32_t real;
  66:Core/Inc/ros/rosserial_msgs/TopicInfo.h ****         uint32_t base;
  67:Core/Inc/ros/rosserial_msgs/TopicInfo.h ****       } u_buffer_size;
ARM GAS  /tmp/ccaSmKi1.s 			page 12


  68:Core/Inc/ros/rosserial_msgs/TopicInfo.h ****       u_buffer_size.real = this->buffer_size;
  69:Core/Inc/ros/rosserial_msgs/TopicInfo.h ****       *(outbuffer + offset + 0) = (u_buffer_size.base >> (8 * 0)) & 0xFF;
  70:Core/Inc/ros/rosserial_msgs/TopicInfo.h ****       *(outbuffer + offset + 1) = (u_buffer_size.base >> (8 * 1)) & 0xFF;
  71:Core/Inc/ros/rosserial_msgs/TopicInfo.h ****       *(outbuffer + offset + 2) = (u_buffer_size.base >> (8 * 2)) & 0xFF;
  72:Core/Inc/ros/rosserial_msgs/TopicInfo.h ****       *(outbuffer + offset + 3) = (u_buffer_size.base >> (8 * 3)) & 0xFF;
  73:Core/Inc/ros/rosserial_msgs/TopicInfo.h ****       offset += sizeof(this->buffer_size);
  74:Core/Inc/ros/rosserial_msgs/TopicInfo.h ****       return offset;
  75:Core/Inc/ros/rosserial_msgs/TopicInfo.h ****     }
  76:Core/Inc/ros/rosserial_msgs/TopicInfo.h **** 
  77:Core/Inc/ros/rosserial_msgs/TopicInfo.h ****     virtual int deserialize(unsigned char *inbuffer) override
  78:Core/Inc/ros/rosserial_msgs/TopicInfo.h ****     {
  79:Core/Inc/ros/rosserial_msgs/TopicInfo.h ****       int offset = 0;
  80:Core/Inc/ros/rosserial_msgs/TopicInfo.h ****       this->topic_id =  ((uint16_t) (*(inbuffer + offset)));
  81:Core/Inc/ros/rosserial_msgs/TopicInfo.h ****       this->topic_id |= ((uint16_t) (*(inbuffer + offset + 1))) << (8 * 1);
  82:Core/Inc/ros/rosserial_msgs/TopicInfo.h ****       offset += sizeof(this->topic_id);
  83:Core/Inc/ros/rosserial_msgs/TopicInfo.h ****       uint32_t length_topic_name;
  84:Core/Inc/ros/rosserial_msgs/TopicInfo.h ****       arrToVar(length_topic_name, (inbuffer + offset));
  85:Core/Inc/ros/rosserial_msgs/TopicInfo.h ****       offset += 4;
  86:Core/Inc/ros/rosserial_msgs/TopicInfo.h ****       for(unsigned int k= offset; k< offset+length_topic_name; ++k){
  87:Core/Inc/ros/rosserial_msgs/TopicInfo.h ****           inbuffer[k-1]=inbuffer[k];
  88:Core/Inc/ros/rosserial_msgs/TopicInfo.h ****       }
  89:Core/Inc/ros/rosserial_msgs/TopicInfo.h ****       inbuffer[offset+length_topic_name-1]=0;
  90:Core/Inc/ros/rosserial_msgs/TopicInfo.h ****       this->topic_name = (char *)(inbuffer + offset-1);
  91:Core/Inc/ros/rosserial_msgs/TopicInfo.h ****       offset += length_topic_name;
  92:Core/Inc/ros/rosserial_msgs/TopicInfo.h ****       uint32_t length_message_type;
  93:Core/Inc/ros/rosserial_msgs/TopicInfo.h ****       arrToVar(length_message_type, (inbuffer + offset));
  94:Core/Inc/ros/rosserial_msgs/TopicInfo.h ****       offset += 4;
  95:Core/Inc/ros/rosserial_msgs/TopicInfo.h ****       for(unsigned int k= offset; k< offset+length_message_type; ++k){
  96:Core/Inc/ros/rosserial_msgs/TopicInfo.h ****           inbuffer[k-1]=inbuffer[k];
  97:Core/Inc/ros/rosserial_msgs/TopicInfo.h ****       }
  98:Core/Inc/ros/rosserial_msgs/TopicInfo.h ****       inbuffer[offset+length_message_type-1]=0;
  99:Core/Inc/ros/rosserial_msgs/TopicInfo.h ****       this->message_type = (char *)(inbuffer + offset-1);
 100:Core/Inc/ros/rosserial_msgs/TopicInfo.h ****       offset += length_message_type;
 101:Core/Inc/ros/rosserial_msgs/TopicInfo.h ****       uint32_t length_md5sum;
 102:Core/Inc/ros/rosserial_msgs/TopicInfo.h ****       arrToVar(length_md5sum, (inbuffer + offset));
 103:Core/Inc/ros/rosserial_msgs/TopicInfo.h ****       offset += 4;
 104:Core/Inc/ros/rosserial_msgs/TopicInfo.h ****       for(unsigned int k= offset; k< offset+length_md5sum; ++k){
 105:Core/Inc/ros/rosserial_msgs/TopicInfo.h ****           inbuffer[k-1]=inbuffer[k];
 106:Core/Inc/ros/rosserial_msgs/TopicInfo.h ****       }
 107:Core/Inc/ros/rosserial_msgs/TopicInfo.h ****       inbuffer[offset+length_md5sum-1]=0;
 108:Core/Inc/ros/rosserial_msgs/TopicInfo.h ****       this->md5sum = (char *)(inbuffer + offset-1);
 109:Core/Inc/ros/rosserial_msgs/TopicInfo.h ****       offset += length_md5sum;
 110:Core/Inc/ros/rosserial_msgs/TopicInfo.h ****       union {
 111:Core/Inc/ros/rosserial_msgs/TopicInfo.h ****         int32_t real;
 112:Core/Inc/ros/rosserial_msgs/TopicInfo.h ****         uint32_t base;
 113:Core/Inc/ros/rosserial_msgs/TopicInfo.h ****       } u_buffer_size;
 114:Core/Inc/ros/rosserial_msgs/TopicInfo.h ****       u_buffer_size.base = 0;
 115:Core/Inc/ros/rosserial_msgs/TopicInfo.h ****       u_buffer_size.base |= ((uint32_t) (*(inbuffer + offset + 0))) << (8 * 0);
 116:Core/Inc/ros/rosserial_msgs/TopicInfo.h ****       u_buffer_size.base |= ((uint32_t) (*(inbuffer + offset + 1))) << (8 * 1);
 117:Core/Inc/ros/rosserial_msgs/TopicInfo.h ****       u_buffer_size.base |= ((uint32_t) (*(inbuffer + offset + 2))) << (8 * 2);
 118:Core/Inc/ros/rosserial_msgs/TopicInfo.h ****       u_buffer_size.base |= ((uint32_t) (*(inbuffer + offset + 3))) << (8 * 3);
 119:Core/Inc/ros/rosserial_msgs/TopicInfo.h ****       this->buffer_size = u_buffer_size.real;
 120:Core/Inc/ros/rosserial_msgs/TopicInfo.h ****       offset += sizeof(this->buffer_size);
 121:Core/Inc/ros/rosserial_msgs/TopicInfo.h ****      return offset;
 122:Core/Inc/ros/rosserial_msgs/TopicInfo.h ****     }
 123:Core/Inc/ros/rosserial_msgs/TopicInfo.h **** 
 124:Core/Inc/ros/rosserial_msgs/TopicInfo.h ****     virtual const char * getType() override { return "rosserial_msgs/TopicInfo"; };
ARM GAS  /tmp/ccaSmKi1.s 			page 13


 439              		.loc 3 124 26 is_stmt 1 view -0
 440              		.cfi_startproc
 441              		@ args = 0, pretend = 0, frame = 0
 442              		@ frame_needed = 0, uses_anonymous_args = 0
 443              		@ link register save eliminated.
 444              		.loc 3 124 47 view .LVU130
 445              		.loc 3 124 82 is_stmt 0 view .LVU131
 446 0000 0048     		ldr	r0, .L18
 447              	.LVL29:
 448              		.loc 3 124 82 view .LVU132
 449 0002 7047     		bx	lr
 450              	.L19:
 451              		.align	2
 452              	.L18:
 453 0004 00000000 		.word	.LC4
 454              		.cfi_endproc
 455              	.LFE433:
 457              		.section	.rodata._ZN14rosserial_msgs9TopicInfo6getMD5Ev.str1.4,"aMS",%progbits,1
 458              		.align	2
 459              	.LC5:
 460 0000 30616435 		.ascii	"0ad51f88fc44892f8c10684077646005\000"
 460      31663838 
 460      66633434 
 460      38393266 
 460      38633130 
 461              		.section	.text._ZN14rosserial_msgs9TopicInfo6getMD5Ev,"axG",%progbits,_ZN14rosserial_msgs9TopicInf
 462              		.align	1
 463              		.weak	_ZN14rosserial_msgs9TopicInfo6getMD5Ev
 464              		.syntax unified
 465              		.thumb
 466              		.thumb_func
 467              		.fpu fpv4-sp-d16
 469              	_ZN14rosserial_msgs9TopicInfo6getMD5Ev:
 470              	.LVL30:
 471              	.LFB434:
 125:Core/Inc/ros/rosserial_msgs/TopicInfo.h ****     virtual const char * getMD5() override { return "0ad51f88fc44892f8c10684077646005"; };
 472              		.loc 3 125 26 is_stmt 1 view -0
 473              		.cfi_startproc
 474              		@ args = 0, pretend = 0, frame = 0
 475              		@ frame_needed = 0, uses_anonymous_args = 0
 476              		@ link register save eliminated.
 477              		.loc 3 125 46 view .LVU134
 478              		.loc 3 125 89 is_stmt 0 view .LVU135
 479 0000 0048     		ldr	r0, .L21
 480              	.LVL31:
 481              		.loc 3 125 89 view .LVU136
 482 0002 7047     		bx	lr
 483              	.L22:
 484              		.align	2
 485              	.L21:
 486 0004 00000000 		.word	.LC5
 487              		.cfi_endproc
 488              	.LFE434:
 490              		.section	.rodata._ZN14rosserial_msgs3Log7getTypeEv.str1.4,"aMS",%progbits,1
 491              		.align	2
 492              	.LC6:
 493 0000 726F7373 		.ascii	"rosserial_msgs/Log\000"
ARM GAS  /tmp/ccaSmKi1.s 			page 14


 493      65726961 
 493      6C5F6D73 
 493      67732F4C 
 493      6F6700
 494              		.section	.text._ZN14rosserial_msgs3Log7getTypeEv,"axG",%progbits,_ZN14rosserial_msgs3Log7getTypeEv
 495              		.align	1
 496              		.weak	_ZN14rosserial_msgs3Log7getTypeEv
 497              		.syntax unified
 498              		.thumb
 499              		.thumb_func
 500              		.fpu fpv4-sp-d16
 502              	_ZN14rosserial_msgs3Log7getTypeEv:
 503              	.LVL32:
 504              	.LFB440:
 505              		.file 4 "Core/Inc/ros/rosserial_msgs/Log.h"
   1:Core/Inc/ros/rosserial_msgs/Log.h **** #ifndef _ROS_rosserial_msgs_Log_h
   2:Core/Inc/ros/rosserial_msgs/Log.h **** #define _ROS_rosserial_msgs_Log_h
   3:Core/Inc/ros/rosserial_msgs/Log.h **** 
   4:Core/Inc/ros/rosserial_msgs/Log.h **** #include <stdint.h>
   5:Core/Inc/ros/rosserial_msgs/Log.h **** #include <string.h>
   6:Core/Inc/ros/rosserial_msgs/Log.h **** #include <stdlib.h>
   7:Core/Inc/ros/rosserial_msgs/Log.h **** #include "ros/msg.h"
   8:Core/Inc/ros/rosserial_msgs/Log.h **** 
   9:Core/Inc/ros/rosserial_msgs/Log.h **** namespace rosserial_msgs
  10:Core/Inc/ros/rosserial_msgs/Log.h **** {
  11:Core/Inc/ros/rosserial_msgs/Log.h **** 
  12:Core/Inc/ros/rosserial_msgs/Log.h ****   class Log : public ros::Msg
  13:Core/Inc/ros/rosserial_msgs/Log.h ****   {
  14:Core/Inc/ros/rosserial_msgs/Log.h ****     public:
  15:Core/Inc/ros/rosserial_msgs/Log.h ****       typedef uint8_t _level_type;
  16:Core/Inc/ros/rosserial_msgs/Log.h ****       _level_type level;
  17:Core/Inc/ros/rosserial_msgs/Log.h ****       typedef const char* _msg_type;
  18:Core/Inc/ros/rosserial_msgs/Log.h ****       _msg_type msg;
  19:Core/Inc/ros/rosserial_msgs/Log.h ****       enum { ROSDEBUG = 0 };
  20:Core/Inc/ros/rosserial_msgs/Log.h ****       enum { INFO = 1 };
  21:Core/Inc/ros/rosserial_msgs/Log.h ****       enum { WARN = 2 };
  22:Core/Inc/ros/rosserial_msgs/Log.h ****       enum { ERROR = 3 };
  23:Core/Inc/ros/rosserial_msgs/Log.h ****       enum { FATAL = 4 };
  24:Core/Inc/ros/rosserial_msgs/Log.h **** 
  25:Core/Inc/ros/rosserial_msgs/Log.h ****     Log():
  26:Core/Inc/ros/rosserial_msgs/Log.h ****       level(0),
  27:Core/Inc/ros/rosserial_msgs/Log.h ****       msg("")
  28:Core/Inc/ros/rosserial_msgs/Log.h ****     {
  29:Core/Inc/ros/rosserial_msgs/Log.h ****     }
  30:Core/Inc/ros/rosserial_msgs/Log.h **** 
  31:Core/Inc/ros/rosserial_msgs/Log.h ****     virtual int serialize(unsigned char *outbuffer) const override
  32:Core/Inc/ros/rosserial_msgs/Log.h ****     {
  33:Core/Inc/ros/rosserial_msgs/Log.h ****       int offset = 0;
  34:Core/Inc/ros/rosserial_msgs/Log.h ****       *(outbuffer + offset + 0) = (this->level >> (8 * 0)) & 0xFF;
  35:Core/Inc/ros/rosserial_msgs/Log.h ****       offset += sizeof(this->level);
  36:Core/Inc/ros/rosserial_msgs/Log.h ****       uint32_t length_msg = strlen(this->msg);
  37:Core/Inc/ros/rosserial_msgs/Log.h ****       varToArr(outbuffer + offset, length_msg);
  38:Core/Inc/ros/rosserial_msgs/Log.h ****       offset += 4;
  39:Core/Inc/ros/rosserial_msgs/Log.h ****       memcpy(outbuffer + offset, this->msg, length_msg);
  40:Core/Inc/ros/rosserial_msgs/Log.h ****       offset += length_msg;
  41:Core/Inc/ros/rosserial_msgs/Log.h ****       return offset;
  42:Core/Inc/ros/rosserial_msgs/Log.h ****     }
ARM GAS  /tmp/ccaSmKi1.s 			page 15


  43:Core/Inc/ros/rosserial_msgs/Log.h **** 
  44:Core/Inc/ros/rosserial_msgs/Log.h ****     virtual int deserialize(unsigned char *inbuffer) override
  45:Core/Inc/ros/rosserial_msgs/Log.h ****     {
  46:Core/Inc/ros/rosserial_msgs/Log.h ****       int offset = 0;
  47:Core/Inc/ros/rosserial_msgs/Log.h ****       this->level =  ((uint8_t) (*(inbuffer + offset)));
  48:Core/Inc/ros/rosserial_msgs/Log.h ****       offset += sizeof(this->level);
  49:Core/Inc/ros/rosserial_msgs/Log.h ****       uint32_t length_msg;
  50:Core/Inc/ros/rosserial_msgs/Log.h ****       arrToVar(length_msg, (inbuffer + offset));
  51:Core/Inc/ros/rosserial_msgs/Log.h ****       offset += 4;
  52:Core/Inc/ros/rosserial_msgs/Log.h ****       for(unsigned int k= offset; k< offset+length_msg; ++k){
  53:Core/Inc/ros/rosserial_msgs/Log.h ****           inbuffer[k-1]=inbuffer[k];
  54:Core/Inc/ros/rosserial_msgs/Log.h ****       }
  55:Core/Inc/ros/rosserial_msgs/Log.h ****       inbuffer[offset+length_msg-1]=0;
  56:Core/Inc/ros/rosserial_msgs/Log.h ****       this->msg = (char *)(inbuffer + offset-1);
  57:Core/Inc/ros/rosserial_msgs/Log.h ****       offset += length_msg;
  58:Core/Inc/ros/rosserial_msgs/Log.h ****      return offset;
  59:Core/Inc/ros/rosserial_msgs/Log.h ****     }
  60:Core/Inc/ros/rosserial_msgs/Log.h **** 
  61:Core/Inc/ros/rosserial_msgs/Log.h ****     virtual const char * getType() override { return "rosserial_msgs/Log"; };
 506              		.loc 4 61 26 is_stmt 1 view -0
 507              		.cfi_startproc
 508              		@ args = 0, pretend = 0, frame = 0
 509              		@ frame_needed = 0, uses_anonymous_args = 0
 510              		@ link register save eliminated.
 511              		.loc 4 61 47 view .LVU138
 512              		.loc 4 61 76 is_stmt 0 view .LVU139
 513 0000 0048     		ldr	r0, .L24
 514              	.LVL33:
 515              		.loc 4 61 76 view .LVU140
 516 0002 7047     		bx	lr
 517              	.L25:
 518              		.align	2
 519              	.L24:
 520 0004 00000000 		.word	.LC6
 521              		.cfi_endproc
 522              	.LFE440:
 524              		.section	.rodata._ZN14rosserial_msgs3Log6getMD5Ev.str1.4,"aMS",%progbits,1
 525              		.align	2
 526              	.LC7:
 527 0000 31316162 		.ascii	"11abd731c25933261cd6183bd12d6295\000"
 527      64373331 
 527      63323539 
 527      33333236 
 527      31636436 
 528              		.section	.text._ZN14rosserial_msgs3Log6getMD5Ev,"axG",%progbits,_ZN14rosserial_msgs3Log6getMD5Ev,c
 529              		.align	1
 530              		.weak	_ZN14rosserial_msgs3Log6getMD5Ev
 531              		.syntax unified
 532              		.thumb
 533              		.thumb_func
 534              		.fpu fpv4-sp-d16
 536              	_ZN14rosserial_msgs3Log6getMD5Ev:
 537              	.LVL34:
 538              	.LFB441:
  62:Core/Inc/ros/rosserial_msgs/Log.h ****     virtual const char * getMD5() override { return "11abd731c25933261cd6183bd12d6295"; };
 539              		.loc 4 62 26 is_stmt 1 view -0
 540              		.cfi_startproc
ARM GAS  /tmp/ccaSmKi1.s 			page 16


 541              		@ args = 0, pretend = 0, frame = 0
 542              		@ frame_needed = 0, uses_anonymous_args = 0
 543              		@ link register save eliminated.
 544              		.loc 4 62 46 view .LVU142
 545              		.loc 4 62 89 is_stmt 0 view .LVU143
 546 0000 0048     		ldr	r0, .L27
 547              	.LVL35:
 548              		.loc 4 62 89 view .LVU144
 549 0002 7047     		bx	lr
 550              	.L28:
 551              		.align	2
 552              	.L27:
 553 0004 00000000 		.word	.LC7
 554              		.cfi_endproc
 555              	.LFE441:
 557              		.section	.text._ZN14rosserial_msgs20RequestParamResponse7getTypeEv,"axG",%progbits,_ZN14rosserial_
 558              		.align	1
 559              		.weak	_ZN14rosserial_msgs20RequestParamResponse7getTypeEv
 560              		.syntax unified
 561              		.thumb
 562              		.thumb_func
 563              		.fpu fpv4-sp-d16
 565              	_ZN14rosserial_msgs20RequestParamResponse7getTypeEv:
 566              	.LVL36:
 567              	.LFB454:
 568              		.file 5 "Core/Inc/ros/rosserial_msgs/RequestParam.h"
   1:Core/Inc/ros/rosserial_msgs/RequestParam.h **** #ifndef _ROS_SERVICE_RequestParam_h
   2:Core/Inc/ros/rosserial_msgs/RequestParam.h **** #define _ROS_SERVICE_RequestParam_h
   3:Core/Inc/ros/rosserial_msgs/RequestParam.h **** #include <stdint.h>
   4:Core/Inc/ros/rosserial_msgs/RequestParam.h **** #include <string.h>
   5:Core/Inc/ros/rosserial_msgs/RequestParam.h **** #include <stdlib.h>
   6:Core/Inc/ros/rosserial_msgs/RequestParam.h **** #include "ros/msg.h"
   7:Core/Inc/ros/rosserial_msgs/RequestParam.h **** 
   8:Core/Inc/ros/rosserial_msgs/RequestParam.h **** namespace rosserial_msgs
   9:Core/Inc/ros/rosserial_msgs/RequestParam.h **** {
  10:Core/Inc/ros/rosserial_msgs/RequestParam.h **** 
  11:Core/Inc/ros/rosserial_msgs/RequestParam.h **** static const char REQUESTPARAM[] = "rosserial_msgs/RequestParam";
  12:Core/Inc/ros/rosserial_msgs/RequestParam.h **** 
  13:Core/Inc/ros/rosserial_msgs/RequestParam.h ****   class RequestParamRequest : public ros::Msg
  14:Core/Inc/ros/rosserial_msgs/RequestParam.h ****   {
  15:Core/Inc/ros/rosserial_msgs/RequestParam.h ****     public:
  16:Core/Inc/ros/rosserial_msgs/RequestParam.h ****       typedef const char* _name_type;
  17:Core/Inc/ros/rosserial_msgs/RequestParam.h ****       _name_type name;
  18:Core/Inc/ros/rosserial_msgs/RequestParam.h **** 
  19:Core/Inc/ros/rosserial_msgs/RequestParam.h ****     RequestParamRequest():
  20:Core/Inc/ros/rosserial_msgs/RequestParam.h ****       name("")
  21:Core/Inc/ros/rosserial_msgs/RequestParam.h ****     {
  22:Core/Inc/ros/rosserial_msgs/RequestParam.h ****     }
  23:Core/Inc/ros/rosserial_msgs/RequestParam.h **** 
  24:Core/Inc/ros/rosserial_msgs/RequestParam.h ****     virtual int serialize(unsigned char *outbuffer) const override
  25:Core/Inc/ros/rosserial_msgs/RequestParam.h ****     {
  26:Core/Inc/ros/rosserial_msgs/RequestParam.h ****       int offset = 0;
  27:Core/Inc/ros/rosserial_msgs/RequestParam.h ****       uint32_t length_name = strlen(this->name);
  28:Core/Inc/ros/rosserial_msgs/RequestParam.h ****       varToArr(outbuffer + offset, length_name);
  29:Core/Inc/ros/rosserial_msgs/RequestParam.h ****       offset += 4;
  30:Core/Inc/ros/rosserial_msgs/RequestParam.h ****       memcpy(outbuffer + offset, this->name, length_name);
  31:Core/Inc/ros/rosserial_msgs/RequestParam.h ****       offset += length_name;
ARM GAS  /tmp/ccaSmKi1.s 			page 17


  32:Core/Inc/ros/rosserial_msgs/RequestParam.h ****       return offset;
  33:Core/Inc/ros/rosserial_msgs/RequestParam.h ****     }
  34:Core/Inc/ros/rosserial_msgs/RequestParam.h **** 
  35:Core/Inc/ros/rosserial_msgs/RequestParam.h ****     virtual int deserialize(unsigned char *inbuffer) override
  36:Core/Inc/ros/rosserial_msgs/RequestParam.h ****     {
  37:Core/Inc/ros/rosserial_msgs/RequestParam.h ****       int offset = 0;
  38:Core/Inc/ros/rosserial_msgs/RequestParam.h ****       uint32_t length_name;
  39:Core/Inc/ros/rosserial_msgs/RequestParam.h ****       arrToVar(length_name, (inbuffer + offset));
  40:Core/Inc/ros/rosserial_msgs/RequestParam.h ****       offset += 4;
  41:Core/Inc/ros/rosserial_msgs/RequestParam.h ****       for(unsigned int k= offset; k< offset+length_name; ++k){
  42:Core/Inc/ros/rosserial_msgs/RequestParam.h ****           inbuffer[k-1]=inbuffer[k];
  43:Core/Inc/ros/rosserial_msgs/RequestParam.h ****       }
  44:Core/Inc/ros/rosserial_msgs/RequestParam.h ****       inbuffer[offset+length_name-1]=0;
  45:Core/Inc/ros/rosserial_msgs/RequestParam.h ****       this->name = (char *)(inbuffer + offset-1);
  46:Core/Inc/ros/rosserial_msgs/RequestParam.h ****       offset += length_name;
  47:Core/Inc/ros/rosserial_msgs/RequestParam.h ****      return offset;
  48:Core/Inc/ros/rosserial_msgs/RequestParam.h ****     }
  49:Core/Inc/ros/rosserial_msgs/RequestParam.h **** 
  50:Core/Inc/ros/rosserial_msgs/RequestParam.h ****     virtual const char * getType() override { return REQUESTPARAM; };
  51:Core/Inc/ros/rosserial_msgs/RequestParam.h ****     virtual const char * getMD5() override { return "c1f3d28f1b044c871e6eff2e9fc3c667"; };
  52:Core/Inc/ros/rosserial_msgs/RequestParam.h **** 
  53:Core/Inc/ros/rosserial_msgs/RequestParam.h ****   };
  54:Core/Inc/ros/rosserial_msgs/RequestParam.h **** 
  55:Core/Inc/ros/rosserial_msgs/RequestParam.h ****   class RequestParamResponse : public ros::Msg
  56:Core/Inc/ros/rosserial_msgs/RequestParam.h ****   {
  57:Core/Inc/ros/rosserial_msgs/RequestParam.h ****     public:
  58:Core/Inc/ros/rosserial_msgs/RequestParam.h ****       uint32_t ints_length;
  59:Core/Inc/ros/rosserial_msgs/RequestParam.h ****       typedef int32_t _ints_type;
  60:Core/Inc/ros/rosserial_msgs/RequestParam.h ****       _ints_type st_ints;
  61:Core/Inc/ros/rosserial_msgs/RequestParam.h ****       _ints_type * ints;
  62:Core/Inc/ros/rosserial_msgs/RequestParam.h ****       uint32_t floats_length;
  63:Core/Inc/ros/rosserial_msgs/RequestParam.h ****       typedef float _floats_type;
  64:Core/Inc/ros/rosserial_msgs/RequestParam.h ****       _floats_type st_floats;
  65:Core/Inc/ros/rosserial_msgs/RequestParam.h ****       _floats_type * floats;
  66:Core/Inc/ros/rosserial_msgs/RequestParam.h ****       uint32_t strings_length;
  67:Core/Inc/ros/rosserial_msgs/RequestParam.h ****       typedef char* _strings_type;
  68:Core/Inc/ros/rosserial_msgs/RequestParam.h ****       _strings_type st_strings;
  69:Core/Inc/ros/rosserial_msgs/RequestParam.h ****       _strings_type * strings;
  70:Core/Inc/ros/rosserial_msgs/RequestParam.h **** 
  71:Core/Inc/ros/rosserial_msgs/RequestParam.h ****     RequestParamResponse():
  72:Core/Inc/ros/rosserial_msgs/RequestParam.h ****       ints_length(0), st_ints(), ints(nullptr),
  73:Core/Inc/ros/rosserial_msgs/RequestParam.h ****       floats_length(0), st_floats(), floats(nullptr),
  74:Core/Inc/ros/rosserial_msgs/RequestParam.h ****       strings_length(0), st_strings(), strings(nullptr)
  75:Core/Inc/ros/rosserial_msgs/RequestParam.h ****     {
  76:Core/Inc/ros/rosserial_msgs/RequestParam.h ****     }
  77:Core/Inc/ros/rosserial_msgs/RequestParam.h **** 
  78:Core/Inc/ros/rosserial_msgs/RequestParam.h ****     virtual int serialize(unsigned char *outbuffer) const override
  79:Core/Inc/ros/rosserial_msgs/RequestParam.h ****     {
  80:Core/Inc/ros/rosserial_msgs/RequestParam.h ****       int offset = 0;
  81:Core/Inc/ros/rosserial_msgs/RequestParam.h ****       *(outbuffer + offset + 0) = (this->ints_length >> (8 * 0)) & 0xFF;
  82:Core/Inc/ros/rosserial_msgs/RequestParam.h ****       *(outbuffer + offset + 1) = (this->ints_length >> (8 * 1)) & 0xFF;
  83:Core/Inc/ros/rosserial_msgs/RequestParam.h ****       *(outbuffer + offset + 2) = (this->ints_length >> (8 * 2)) & 0xFF;
  84:Core/Inc/ros/rosserial_msgs/RequestParam.h ****       *(outbuffer + offset + 3) = (this->ints_length >> (8 * 3)) & 0xFF;
  85:Core/Inc/ros/rosserial_msgs/RequestParam.h ****       offset += sizeof(this->ints_length);
  86:Core/Inc/ros/rosserial_msgs/RequestParam.h ****       for( uint32_t i = 0; i < ints_length; i++){
  87:Core/Inc/ros/rosserial_msgs/RequestParam.h ****       union {
  88:Core/Inc/ros/rosserial_msgs/RequestParam.h ****         int32_t real;
ARM GAS  /tmp/ccaSmKi1.s 			page 18


  89:Core/Inc/ros/rosserial_msgs/RequestParam.h ****         uint32_t base;
  90:Core/Inc/ros/rosserial_msgs/RequestParam.h ****       } u_intsi;
  91:Core/Inc/ros/rosserial_msgs/RequestParam.h ****       u_intsi.real = this->ints[i];
  92:Core/Inc/ros/rosserial_msgs/RequestParam.h ****       *(outbuffer + offset + 0) = (u_intsi.base >> (8 * 0)) & 0xFF;
  93:Core/Inc/ros/rosserial_msgs/RequestParam.h ****       *(outbuffer + offset + 1) = (u_intsi.base >> (8 * 1)) & 0xFF;
  94:Core/Inc/ros/rosserial_msgs/RequestParam.h ****       *(outbuffer + offset + 2) = (u_intsi.base >> (8 * 2)) & 0xFF;
  95:Core/Inc/ros/rosserial_msgs/RequestParam.h ****       *(outbuffer + offset + 3) = (u_intsi.base >> (8 * 3)) & 0xFF;
  96:Core/Inc/ros/rosserial_msgs/RequestParam.h ****       offset += sizeof(this->ints[i]);
  97:Core/Inc/ros/rosserial_msgs/RequestParam.h ****       }
  98:Core/Inc/ros/rosserial_msgs/RequestParam.h ****       *(outbuffer + offset + 0) = (this->floats_length >> (8 * 0)) & 0xFF;
  99:Core/Inc/ros/rosserial_msgs/RequestParam.h ****       *(outbuffer + offset + 1) = (this->floats_length >> (8 * 1)) & 0xFF;
 100:Core/Inc/ros/rosserial_msgs/RequestParam.h ****       *(outbuffer + offset + 2) = (this->floats_length >> (8 * 2)) & 0xFF;
 101:Core/Inc/ros/rosserial_msgs/RequestParam.h ****       *(outbuffer + offset + 3) = (this->floats_length >> (8 * 3)) & 0xFF;
 102:Core/Inc/ros/rosserial_msgs/RequestParam.h ****       offset += sizeof(this->floats_length);
 103:Core/Inc/ros/rosserial_msgs/RequestParam.h ****       for( uint32_t i = 0; i < floats_length; i++){
 104:Core/Inc/ros/rosserial_msgs/RequestParam.h ****       union {
 105:Core/Inc/ros/rosserial_msgs/RequestParam.h ****         float real;
 106:Core/Inc/ros/rosserial_msgs/RequestParam.h ****         uint32_t base;
 107:Core/Inc/ros/rosserial_msgs/RequestParam.h ****       } u_floatsi;
 108:Core/Inc/ros/rosserial_msgs/RequestParam.h ****       u_floatsi.real = this->floats[i];
 109:Core/Inc/ros/rosserial_msgs/RequestParam.h ****       *(outbuffer + offset + 0) = (u_floatsi.base >> (8 * 0)) & 0xFF;
 110:Core/Inc/ros/rosserial_msgs/RequestParam.h ****       *(outbuffer + offset + 1) = (u_floatsi.base >> (8 * 1)) & 0xFF;
 111:Core/Inc/ros/rosserial_msgs/RequestParam.h ****       *(outbuffer + offset + 2) = (u_floatsi.base >> (8 * 2)) & 0xFF;
 112:Core/Inc/ros/rosserial_msgs/RequestParam.h ****       *(outbuffer + offset + 3) = (u_floatsi.base >> (8 * 3)) & 0xFF;
 113:Core/Inc/ros/rosserial_msgs/RequestParam.h ****       offset += sizeof(this->floats[i]);
 114:Core/Inc/ros/rosserial_msgs/RequestParam.h ****       }
 115:Core/Inc/ros/rosserial_msgs/RequestParam.h ****       *(outbuffer + offset + 0) = (this->strings_length >> (8 * 0)) & 0xFF;
 116:Core/Inc/ros/rosserial_msgs/RequestParam.h ****       *(outbuffer + offset + 1) = (this->strings_length >> (8 * 1)) & 0xFF;
 117:Core/Inc/ros/rosserial_msgs/RequestParam.h ****       *(outbuffer + offset + 2) = (this->strings_length >> (8 * 2)) & 0xFF;
 118:Core/Inc/ros/rosserial_msgs/RequestParam.h ****       *(outbuffer + offset + 3) = (this->strings_length >> (8 * 3)) & 0xFF;
 119:Core/Inc/ros/rosserial_msgs/RequestParam.h ****       offset += sizeof(this->strings_length);
 120:Core/Inc/ros/rosserial_msgs/RequestParam.h ****       for( uint32_t i = 0; i < strings_length; i++){
 121:Core/Inc/ros/rosserial_msgs/RequestParam.h ****       uint32_t length_stringsi = strlen(this->strings[i]);
 122:Core/Inc/ros/rosserial_msgs/RequestParam.h ****       varToArr(outbuffer + offset, length_stringsi);
 123:Core/Inc/ros/rosserial_msgs/RequestParam.h ****       offset += 4;
 124:Core/Inc/ros/rosserial_msgs/RequestParam.h ****       memcpy(outbuffer + offset, this->strings[i], length_stringsi);
 125:Core/Inc/ros/rosserial_msgs/RequestParam.h ****       offset += length_stringsi;
 126:Core/Inc/ros/rosserial_msgs/RequestParam.h ****       }
 127:Core/Inc/ros/rosserial_msgs/RequestParam.h ****       return offset;
 128:Core/Inc/ros/rosserial_msgs/RequestParam.h ****     }
 129:Core/Inc/ros/rosserial_msgs/RequestParam.h **** 
 130:Core/Inc/ros/rosserial_msgs/RequestParam.h ****     virtual int deserialize(unsigned char *inbuffer) override
 131:Core/Inc/ros/rosserial_msgs/RequestParam.h ****     {
 132:Core/Inc/ros/rosserial_msgs/RequestParam.h ****       int offset = 0;
 133:Core/Inc/ros/rosserial_msgs/RequestParam.h ****       uint32_t ints_lengthT = ((uint32_t) (*(inbuffer + offset))); 
 134:Core/Inc/ros/rosserial_msgs/RequestParam.h ****       ints_lengthT |= ((uint32_t) (*(inbuffer + offset + 1))) << (8 * 1); 
 135:Core/Inc/ros/rosserial_msgs/RequestParam.h ****       ints_lengthT |= ((uint32_t) (*(inbuffer + offset + 2))) << (8 * 2); 
 136:Core/Inc/ros/rosserial_msgs/RequestParam.h ****       ints_lengthT |= ((uint32_t) (*(inbuffer + offset + 3))) << (8 * 3); 
 137:Core/Inc/ros/rosserial_msgs/RequestParam.h ****       offset += sizeof(this->ints_length);
 138:Core/Inc/ros/rosserial_msgs/RequestParam.h ****       if(ints_lengthT > ints_length)
 139:Core/Inc/ros/rosserial_msgs/RequestParam.h ****         this->ints = (int32_t*)realloc(this->ints, ints_lengthT * sizeof(int32_t));
 140:Core/Inc/ros/rosserial_msgs/RequestParam.h ****       ints_length = ints_lengthT;
 141:Core/Inc/ros/rosserial_msgs/RequestParam.h ****       for( uint32_t i = 0; i < ints_length; i++){
 142:Core/Inc/ros/rosserial_msgs/RequestParam.h ****       union {
 143:Core/Inc/ros/rosserial_msgs/RequestParam.h ****         int32_t real;
 144:Core/Inc/ros/rosserial_msgs/RequestParam.h ****         uint32_t base;
 145:Core/Inc/ros/rosserial_msgs/RequestParam.h ****       } u_st_ints;
ARM GAS  /tmp/ccaSmKi1.s 			page 19


 146:Core/Inc/ros/rosserial_msgs/RequestParam.h ****       u_st_ints.base = 0;
 147:Core/Inc/ros/rosserial_msgs/RequestParam.h ****       u_st_ints.base |= ((uint32_t) (*(inbuffer + offset + 0))) << (8 * 0);
 148:Core/Inc/ros/rosserial_msgs/RequestParam.h ****       u_st_ints.base |= ((uint32_t) (*(inbuffer + offset + 1))) << (8 * 1);
 149:Core/Inc/ros/rosserial_msgs/RequestParam.h ****       u_st_ints.base |= ((uint32_t) (*(inbuffer + offset + 2))) << (8 * 2);
 150:Core/Inc/ros/rosserial_msgs/RequestParam.h ****       u_st_ints.base |= ((uint32_t) (*(inbuffer + offset + 3))) << (8 * 3);
 151:Core/Inc/ros/rosserial_msgs/RequestParam.h ****       this->st_ints = u_st_ints.real;
 152:Core/Inc/ros/rosserial_msgs/RequestParam.h ****       offset += sizeof(this->st_ints);
 153:Core/Inc/ros/rosserial_msgs/RequestParam.h ****         memcpy( &(this->ints[i]), &(this->st_ints), sizeof(int32_t));
 154:Core/Inc/ros/rosserial_msgs/RequestParam.h ****       }
 155:Core/Inc/ros/rosserial_msgs/RequestParam.h ****       uint32_t floats_lengthT = ((uint32_t) (*(inbuffer + offset))); 
 156:Core/Inc/ros/rosserial_msgs/RequestParam.h ****       floats_lengthT |= ((uint32_t) (*(inbuffer + offset + 1))) << (8 * 1); 
 157:Core/Inc/ros/rosserial_msgs/RequestParam.h ****       floats_lengthT |= ((uint32_t) (*(inbuffer + offset + 2))) << (8 * 2); 
 158:Core/Inc/ros/rosserial_msgs/RequestParam.h ****       floats_lengthT |= ((uint32_t) (*(inbuffer + offset + 3))) << (8 * 3); 
 159:Core/Inc/ros/rosserial_msgs/RequestParam.h ****       offset += sizeof(this->floats_length);
 160:Core/Inc/ros/rosserial_msgs/RequestParam.h ****       if(floats_lengthT > floats_length)
 161:Core/Inc/ros/rosserial_msgs/RequestParam.h ****         this->floats = (float*)realloc(this->floats, floats_lengthT * sizeof(float));
 162:Core/Inc/ros/rosserial_msgs/RequestParam.h ****       floats_length = floats_lengthT;
 163:Core/Inc/ros/rosserial_msgs/RequestParam.h ****       for( uint32_t i = 0; i < floats_length; i++){
 164:Core/Inc/ros/rosserial_msgs/RequestParam.h ****       union {
 165:Core/Inc/ros/rosserial_msgs/RequestParam.h ****         float real;
 166:Core/Inc/ros/rosserial_msgs/RequestParam.h ****         uint32_t base;
 167:Core/Inc/ros/rosserial_msgs/RequestParam.h ****       } u_st_floats;
 168:Core/Inc/ros/rosserial_msgs/RequestParam.h ****       u_st_floats.base = 0;
 169:Core/Inc/ros/rosserial_msgs/RequestParam.h ****       u_st_floats.base |= ((uint32_t) (*(inbuffer + offset + 0))) << (8 * 0);
 170:Core/Inc/ros/rosserial_msgs/RequestParam.h ****       u_st_floats.base |= ((uint32_t) (*(inbuffer + offset + 1))) << (8 * 1);
 171:Core/Inc/ros/rosserial_msgs/RequestParam.h ****       u_st_floats.base |= ((uint32_t) (*(inbuffer + offset + 2))) << (8 * 2);
 172:Core/Inc/ros/rosserial_msgs/RequestParam.h ****       u_st_floats.base |= ((uint32_t) (*(inbuffer + offset + 3))) << (8 * 3);
 173:Core/Inc/ros/rosserial_msgs/RequestParam.h ****       this->st_floats = u_st_floats.real;
 174:Core/Inc/ros/rosserial_msgs/RequestParam.h ****       offset += sizeof(this->st_floats);
 175:Core/Inc/ros/rosserial_msgs/RequestParam.h ****         memcpy( &(this->floats[i]), &(this->st_floats), sizeof(float));
 176:Core/Inc/ros/rosserial_msgs/RequestParam.h ****       }
 177:Core/Inc/ros/rosserial_msgs/RequestParam.h ****       uint32_t strings_lengthT = ((uint32_t) (*(inbuffer + offset))); 
 178:Core/Inc/ros/rosserial_msgs/RequestParam.h ****       strings_lengthT |= ((uint32_t) (*(inbuffer + offset + 1))) << (8 * 1); 
 179:Core/Inc/ros/rosserial_msgs/RequestParam.h ****       strings_lengthT |= ((uint32_t) (*(inbuffer + offset + 2))) << (8 * 2); 
 180:Core/Inc/ros/rosserial_msgs/RequestParam.h ****       strings_lengthT |= ((uint32_t) (*(inbuffer + offset + 3))) << (8 * 3); 
 181:Core/Inc/ros/rosserial_msgs/RequestParam.h ****       offset += sizeof(this->strings_length);
 182:Core/Inc/ros/rosserial_msgs/RequestParam.h ****       if(strings_lengthT > strings_length)
 183:Core/Inc/ros/rosserial_msgs/RequestParam.h ****         this->strings = (char**)realloc(this->strings, strings_lengthT * sizeof(char*));
 184:Core/Inc/ros/rosserial_msgs/RequestParam.h ****       strings_length = strings_lengthT;
 185:Core/Inc/ros/rosserial_msgs/RequestParam.h ****       for( uint32_t i = 0; i < strings_length; i++){
 186:Core/Inc/ros/rosserial_msgs/RequestParam.h ****       uint32_t length_st_strings;
 187:Core/Inc/ros/rosserial_msgs/RequestParam.h ****       arrToVar(length_st_strings, (inbuffer + offset));
 188:Core/Inc/ros/rosserial_msgs/RequestParam.h ****       offset += 4;
 189:Core/Inc/ros/rosserial_msgs/RequestParam.h ****       for(unsigned int k= offset; k< offset+length_st_strings; ++k){
 190:Core/Inc/ros/rosserial_msgs/RequestParam.h ****           inbuffer[k-1]=inbuffer[k];
 191:Core/Inc/ros/rosserial_msgs/RequestParam.h ****       }
 192:Core/Inc/ros/rosserial_msgs/RequestParam.h ****       inbuffer[offset+length_st_strings-1]=0;
 193:Core/Inc/ros/rosserial_msgs/RequestParam.h ****       this->st_strings = (char *)(inbuffer + offset-1);
 194:Core/Inc/ros/rosserial_msgs/RequestParam.h ****       offset += length_st_strings;
 195:Core/Inc/ros/rosserial_msgs/RequestParam.h ****         memcpy( &(this->strings[i]), &(this->st_strings), sizeof(char*));
 196:Core/Inc/ros/rosserial_msgs/RequestParam.h ****       }
 197:Core/Inc/ros/rosserial_msgs/RequestParam.h ****      return offset;
 198:Core/Inc/ros/rosserial_msgs/RequestParam.h ****     }
 199:Core/Inc/ros/rosserial_msgs/RequestParam.h **** 
 200:Core/Inc/ros/rosserial_msgs/RequestParam.h ****     virtual const char * getType() override { return REQUESTPARAM; };
 569              		.loc 5 200 26 is_stmt 1 view -0
 570              		.cfi_startproc
ARM GAS  /tmp/ccaSmKi1.s 			page 20


 571              		@ args = 0, pretend = 0, frame = 0
 572              		@ frame_needed = 0, uses_anonymous_args = 0
 573              		@ link register save eliminated.
 574              		.loc 5 200 47 view .LVU146
 575              		.loc 5 200 68 is_stmt 0 view .LVU147
 576 0000 0048     		ldr	r0, .L30
 577              	.LVL37:
 578              		.loc 5 200 68 view .LVU148
 579 0002 7047     		bx	lr
 580              	.L31:
 581              		.align	2
 582              	.L30:
 583 0004 00000000 		.word	.LANCHOR0
 584              		.cfi_endproc
 585              	.LFE454:
 587              		.section	.rodata._ZN14rosserial_msgs20RequestParamResponse6getMD5Ev.str1.4,"aMS",%progbits,1
 588              		.align	2
 589              	.LC8:
 590 0000 39663065 		.ascii	"9f0e98bda65981986ddf53afa7a40e49\000"
 590      39386264 
 590      61363539 
 590      38313938 
 590      36646466 
 591              		.section	.text._ZN14rosserial_msgs20RequestParamResponse6getMD5Ev,"axG",%progbits,_ZN14rosserial_m
 592              		.align	1
 593              		.weak	_ZN14rosserial_msgs20RequestParamResponse6getMD5Ev
 594              		.syntax unified
 595              		.thumb
 596              		.thumb_func
 597              		.fpu fpv4-sp-d16
 599              	_ZN14rosserial_msgs20RequestParamResponse6getMD5Ev:
 600              	.LVL38:
 601              	.LFB455:
 201:Core/Inc/ros/rosserial_msgs/RequestParam.h ****     virtual const char * getMD5() override { return "9f0e98bda65981986ddf53afa7a40e49"; };
 602              		.loc 5 201 26 is_stmt 1 view -0
 603              		.cfi_startproc
 604              		@ args = 0, pretend = 0, frame = 0
 605              		@ frame_needed = 0, uses_anonymous_args = 0
 606              		@ link register save eliminated.
 607              		.loc 5 201 46 view .LVU150
 608              		.loc 5 201 89 is_stmt 0 view .LVU151
 609 0000 0048     		ldr	r0, .L33
 610              	.LVL39:
 611              		.loc 5 201 89 view .LVU152
 612 0002 7047     		bx	lr
 613              	.L34:
 614              		.align	2
 615              	.L33:
 616 0004 00000000 		.word	.LC8
 617              		.cfi_endproc
 618              	.LFE455:
 620              		.section	.text._ZNK9actuators7Vector49serializeEPh,"axG",%progbits,_ZNK9actuators7Vector49serializ
 621              		.align	1
 622              		.weak	_ZNK9actuators7Vector49serializeEPh
 623              		.syntax unified
 624              		.thumb
 625              		.thumb_func
ARM GAS  /tmp/ccaSmKi1.s 			page 21


 626              		.fpu fpv4-sp-d16
 628              	_ZNK9actuators7Vector49serializeEPh:
 629              	.LVL40:
 630              	.LFB530:
 631              		.file 6 "Core/Inc/ros/actuators/Vector4.h"
   1:Core/Inc/ros/actuators/Vector4.h **** #ifndef _ROS_actuators_Vector4_h
   2:Core/Inc/ros/actuators/Vector4.h **** #define _ROS_actuators_Vector4_h
   3:Core/Inc/ros/actuators/Vector4.h **** 
   4:Core/Inc/ros/actuators/Vector4.h **** #include <stdint.h>
   5:Core/Inc/ros/actuators/Vector4.h **** #include <string.h>
   6:Core/Inc/ros/actuators/Vector4.h **** #include <stdlib.h>
   7:Core/Inc/ros/actuators/Vector4.h **** #include "ros/msg.h"
   8:Core/Inc/ros/actuators/Vector4.h **** 
   9:Core/Inc/ros/actuators/Vector4.h **** namespace actuators
  10:Core/Inc/ros/actuators/Vector4.h **** {
  11:Core/Inc/ros/actuators/Vector4.h **** 
  12:Core/Inc/ros/actuators/Vector4.h ****   class Vector4 : public ros::Msg
  13:Core/Inc/ros/actuators/Vector4.h ****   {
  14:Core/Inc/ros/actuators/Vector4.h ****     public:
  15:Core/Inc/ros/actuators/Vector4.h ****       float quad[4];
  16:Core/Inc/ros/actuators/Vector4.h **** 
  17:Core/Inc/ros/actuators/Vector4.h ****     Vector4():
  18:Core/Inc/ros/actuators/Vector4.h ****       quad()
  19:Core/Inc/ros/actuators/Vector4.h ****     {
  20:Core/Inc/ros/actuators/Vector4.h ****     }
  21:Core/Inc/ros/actuators/Vector4.h **** 
  22:Core/Inc/ros/actuators/Vector4.h ****     virtual int serialize(unsigned char *outbuffer) const override
 632              		.loc 6 22 17 is_stmt 1 view -0
 633              		.cfi_startproc
 634              		@ args = 0, pretend = 0, frame = 0
 635              		@ frame_needed = 0, uses_anonymous_args = 0
 636              		.loc 6 22 17 is_stmt 0 view .LVU154
 637 0000 10B5     		push	{r4, lr}
 638              	.LCFI0:
 639              		.cfi_def_cfa_offset 8
 640              		.cfi_offset 4, -8
 641              		.cfi_offset 14, -4
 642 0002 0446     		mov	r4, r0
  23:Core/Inc/ros/actuators/Vector4.h ****     {
  24:Core/Inc/ros/actuators/Vector4.h ****       int offset = 0;
 643              		.loc 6 24 7 is_stmt 1 view .LVU155
 644              	.LVL41:
  25:Core/Inc/ros/actuators/Vector4.h ****       for( uint32_t i = 0; i < 4; i++){
 645              		.loc 6 25 7 view .LVU156
 646              	.LBB180:
 647              		.loc 6 25 21 is_stmt 0 view .LVU157
 648 0004 0022     		movs	r2, #0
 649              	.LBE180:
  24:Core/Inc/ros/actuators/Vector4.h ****       for( uint32_t i = 0; i < 4; i++){
 650              		.loc 6 24 11 view .LVU158
 651 0006 1046     		mov	r0, r2
 652              	.LVL42:
  24:Core/Inc/ros/actuators/Vector4.h ****       for( uint32_t i = 0; i < 4; i++){
 653              		.loc 6 24 11 view .LVU159
 654 0008 16E0     		b	.L37
 655              	.LVL43:
 656              	.L39:
ARM GAS  /tmp/ccaSmKi1.s 			page 22


 657              	.LBB182:
 658              	.LBB181:
  26:Core/Inc/ros/actuators/Vector4.h ****       union {
 659              		.loc 6 26 7 is_stmt 1 discriminator 2 view .LVU160
  27:Core/Inc/ros/actuators/Vector4.h ****         float real;
  28:Core/Inc/ros/actuators/Vector4.h ****         uint32_t base;
  29:Core/Inc/ros/actuators/Vector4.h ****       } u_quadi;
  30:Core/Inc/ros/actuators/Vector4.h ****       u_quadi.real = this->quad[i];
 660              		.loc 6 30 7 discriminator 2 view .LVU161
 661              		.loc 6 30 34 is_stmt 0 discriminator 2 view .LVU162
 662 000a 04EB8203 		add	r3, r4, r2, lsl #2
  31:Core/Inc/ros/actuators/Vector4.h ****       *(outbuffer + offset + 0) = (u_quadi.base >> (8 * 0)) & 0xFF;
 663              		.loc 6 31 7 is_stmt 1 discriminator 2 view .LVU163
 664 000e 5B68     		ldr	r3, [r3, #4]
 665              		.loc 6 31 33 is_stmt 0 discriminator 2 view .LVU164
 666 0010 0B54     		strb	r3, [r1, r0]
  32:Core/Inc/ros/actuators/Vector4.h ****       *(outbuffer + offset + 1) = (u_quadi.base >> (8 * 1)) & 0xFF;
 667              		.loc 6 32 7 is_stmt 1 discriminator 2 view .LVU165
 668              		.loc 6 32 49 is_stmt 0 discriminator 2 view .LVU166
 669 0012 4FEA132E 		lsr	lr, r3, #8
 670              		.loc 6 32 28 discriminator 2 view .LVU167
 671 0016 00F1010C 		add	ip, r0, #1
 672              		.loc 6 32 33 discriminator 2 view .LVU168
 673 001a 01F80CE0 		strb	lr, [r1, ip]
  33:Core/Inc/ros/actuators/Vector4.h ****       *(outbuffer + offset + 2) = (u_quadi.base >> (8 * 2)) & 0xFF;
 674              		.loc 6 33 7 is_stmt 1 discriminator 2 view .LVU169
 675              		.loc 6 33 49 is_stmt 0 discriminator 2 view .LVU170
 676 001e 4FEA134E 		lsr	lr, r3, #16
 677              		.loc 6 33 28 discriminator 2 view .LVU171
 678 0022 00F1020C 		add	ip, r0, #2
 679              		.loc 6 33 33 discriminator 2 view .LVU172
 680 0026 01F80CE0 		strb	lr, [r1, ip]
  34:Core/Inc/ros/actuators/Vector4.h ****       *(outbuffer + offset + 3) = (u_quadi.base >> (8 * 3)) & 0xFF;
 681              		.loc 6 34 7 is_stmt 1 discriminator 2 view .LVU173
 682              		.loc 6 34 49 is_stmt 0 discriminator 2 view .LVU174
 683 002a 1B0E     		lsrs	r3, r3, #24
 684              		.loc 6 34 28 discriminator 2 view .LVU175
 685 002c 00F1030C 		add	ip, r0, #3
 686              		.loc 6 34 33 discriminator 2 view .LVU176
 687 0030 01F80C30 		strb	r3, [r1, ip]
  35:Core/Inc/ros/actuators/Vector4.h ****       offset += sizeof(this->quad[i]);
 688              		.loc 6 35 7 is_stmt 1 discriminator 2 view .LVU177
 689              		.loc 6 35 14 is_stmt 0 discriminator 2 view .LVU178
 690 0034 0430     		adds	r0, r0, #4
 691              	.LVL44:
 692              		.loc 6 35 14 discriminator 2 view .LVU179
 693              	.LBE181:
  25:Core/Inc/ros/actuators/Vector4.h ****       union {
 694              		.loc 6 25 7 is_stmt 1 discriminator 2 view .LVU180
 695 0036 0132     		adds	r2, r2, #1
 696              	.LVL45:
 697              	.L37:
  25:Core/Inc/ros/actuators/Vector4.h ****       union {
 698              		.loc 6 25 30 discriminator 3 view .LVU181
 699 0038 032A     		cmp	r2, #3
 700 003a E6D9     		bls	.L39
 701              	.LBE182:
ARM GAS  /tmp/ccaSmKi1.s 			page 23


  36:Core/Inc/ros/actuators/Vector4.h ****       }
  37:Core/Inc/ros/actuators/Vector4.h ****       return offset;
  38:Core/Inc/ros/actuators/Vector4.h ****     }
 702              		.loc 6 38 5 is_stmt 0 view .LVU182
 703 003c 10BD     		pop	{r4, pc}
 704              		.loc 6 38 5 view .LVU183
 705              		.cfi_endproc
 706              	.LFE530:
 708              		.section	.text._ZN9actuators7Vector411deserializeEPh,"axG",%progbits,_ZN9actuators7Vector411deseri
 709              		.align	1
 710              		.weak	_ZN9actuators7Vector411deserializeEPh
 711              		.syntax unified
 712              		.thumb
 713              		.thumb_func
 714              		.fpu fpv4-sp-d16
 716              	_ZN9actuators7Vector411deserializeEPh:
 717              	.LVL46:
 718              	.LFB531:
  39:Core/Inc/ros/actuators/Vector4.h **** 
  40:Core/Inc/ros/actuators/Vector4.h ****     virtual int deserialize(unsigned char *inbuffer) override
 719              		.loc 6 40 17 is_stmt 1 view -0
 720              		.cfi_startproc
 721              		@ args = 0, pretend = 0, frame = 0
 722              		@ frame_needed = 0, uses_anonymous_args = 0
 723              		.loc 6 40 17 is_stmt 0 view .LVU185
 724 0000 10B5     		push	{r4, lr}
 725              	.LCFI1:
 726              		.cfi_def_cfa_offset 8
 727              		.cfi_offset 4, -8
 728              		.cfi_offset 14, -4
 729 0002 0446     		mov	r4, r0
  41:Core/Inc/ros/actuators/Vector4.h ****     {
  42:Core/Inc/ros/actuators/Vector4.h ****       int offset = 0;
 730              		.loc 6 42 7 is_stmt 1 view .LVU186
 731              	.LVL47:
  43:Core/Inc/ros/actuators/Vector4.h ****       for( uint32_t i = 0; i < 4; i++){
 732              		.loc 6 43 7 view .LVU187
 733              	.LBB183:
 734              		.loc 6 43 21 is_stmt 0 view .LVU188
 735 0004 0022     		movs	r2, #0
 736              	.LBE183:
  42:Core/Inc/ros/actuators/Vector4.h ****       for( uint32_t i = 0; i < 4; i++){
 737              		.loc 6 42 11 view .LVU189
 738 0006 1046     		mov	r0, r2
 739              	.LVL48:
  42:Core/Inc/ros/actuators/Vector4.h ****       for( uint32_t i = 0; i < 4; i++){
 740              		.loc 6 42 11 view .LVU190
 741 0008 18E0     		b	.L42
 742              	.LVL49:
 743              	.L44:
 744              	.LBB185:
 745              	.LBB184:
  44:Core/Inc/ros/actuators/Vector4.h ****       union {
 746              		.loc 6 44 7 is_stmt 1 discriminator 2 view .LVU191
  45:Core/Inc/ros/actuators/Vector4.h ****         float real;
  46:Core/Inc/ros/actuators/Vector4.h ****         uint32_t base;
  47:Core/Inc/ros/actuators/Vector4.h ****       } u_quadi;
ARM GAS  /tmp/ccaSmKi1.s 			page 24


  48:Core/Inc/ros/actuators/Vector4.h ****       u_quadi.base = 0;
 747              		.loc 6 48 7 discriminator 2 view .LVU192
  49:Core/Inc/ros/actuators/Vector4.h ****       u_quadi.base |= ((uint32_t) (*(inbuffer + offset + 0))) << (8 * 0);
 748              		.loc 6 49 7 discriminator 2 view .LVU193
 749              		.loc 6 49 36 is_stmt 0 discriminator 2 view .LVU194
 750 000a 0B5C     		ldrb	r3, [r1, r0]	@ zero_extendqisi2
  50:Core/Inc/ros/actuators/Vector4.h ****       u_quadi.base |= ((uint32_t) (*(inbuffer + offset + 1))) << (8 * 1);
 751              		.loc 6 50 7 is_stmt 1 discriminator 2 view .LVU195
 752              		.loc 6 50 56 is_stmt 0 discriminator 2 view .LVU196
 753 000c 00F1010C 		add	ip, r0, #1
 754              		.loc 6 50 36 discriminator 2 view .LVU197
 755 0010 11F80CC0 		ldrb	ip, [r1, ip]	@ zero_extendqisi2
 756              		.loc 6 50 20 discriminator 2 view .LVU198
 757 0014 43EA0C23 		orr	r3, r3, ip, lsl #8
  51:Core/Inc/ros/actuators/Vector4.h ****       u_quadi.base |= ((uint32_t) (*(inbuffer + offset + 2))) << (8 * 2);
 758              		.loc 6 51 7 is_stmt 1 discriminator 2 view .LVU199
 759              		.loc 6 51 56 is_stmt 0 discriminator 2 view .LVU200
 760 0018 00F1020C 		add	ip, r0, #2
 761              		.loc 6 51 36 discriminator 2 view .LVU201
 762 001c 11F80CC0 		ldrb	ip, [r1, ip]	@ zero_extendqisi2
 763              		.loc 6 51 20 discriminator 2 view .LVU202
 764 0020 43EA0C43 		orr	r3, r3, ip, lsl #16
  52:Core/Inc/ros/actuators/Vector4.h ****       u_quadi.base |= ((uint32_t) (*(inbuffer + offset + 3))) << (8 * 3);
 765              		.loc 6 52 7 is_stmt 1 discriminator 2 view .LVU203
 766              		.loc 6 52 56 is_stmt 0 discriminator 2 view .LVU204
 767 0024 00F1030C 		add	ip, r0, #3
 768              		.loc 6 52 36 discriminator 2 view .LVU205
 769 0028 11F80CE0 		ldrb	lr, [r1, ip]	@ zero_extendqisi2
  53:Core/Inc/ros/actuators/Vector4.h ****       this->quad[i] = u_quadi.real;
 770              		.loc 6 53 7 is_stmt 1 discriminator 2 view .LVU206
 771              		.loc 6 53 21 is_stmt 0 discriminator 2 view .LVU207
 772 002c 04EB820C 		add	ip, r4, r2, lsl #2
 773 0030 43EA0E63 		orr	r3, r3, lr, lsl #24
 774 0034 CCF80430 		str	r3, [ip, #4]	@ float
  54:Core/Inc/ros/actuators/Vector4.h ****       offset += sizeof(this->quad[i]);
 775              		.loc 6 54 7 is_stmt 1 discriminator 2 view .LVU208
 776              		.loc 6 54 14 is_stmt 0 discriminator 2 view .LVU209
 777 0038 0430     		adds	r0, r0, #4
 778              	.LVL50:
 779              		.loc 6 54 14 discriminator 2 view .LVU210
 780              	.LBE184:
  43:Core/Inc/ros/actuators/Vector4.h ****       union {
 781              		.loc 6 43 7 is_stmt 1 discriminator 2 view .LVU211
 782 003a 0132     		adds	r2, r2, #1
 783              	.LVL51:
 784              	.L42:
  43:Core/Inc/ros/actuators/Vector4.h ****       union {
 785              		.loc 6 43 30 discriminator 3 view .LVU212
 786 003c 032A     		cmp	r2, #3
 787 003e E4D9     		bls	.L44
 788              	.LBE185:
  55:Core/Inc/ros/actuators/Vector4.h ****       }
  56:Core/Inc/ros/actuators/Vector4.h ****      return offset;
  57:Core/Inc/ros/actuators/Vector4.h ****     }
 789              		.loc 6 57 5 is_stmt 0 view .LVU213
 790 0040 10BD     		pop	{r4, pc}
 791              		.loc 6 57 5 view .LVU214
ARM GAS  /tmp/ccaSmKi1.s 			page 25


 792              		.cfi_endproc
 793              	.LFE531:
 795              		.section	.rodata._ZN9actuators7Vector47getTypeEv.str1.4,"aMS",%progbits,1
 796              		.align	2
 797              	.LC9:
 798 0000 61637475 		.ascii	"actuators/Vector4\000"
 798      61746F72 
 798      732F5665 
 798      63746F72 
 798      3400
 799              		.section	.text._ZN9actuators7Vector47getTypeEv,"axG",%progbits,_ZN9actuators7Vector47getTypeEv,com
 800              		.align	1
 801              		.weak	_ZN9actuators7Vector47getTypeEv
 802              		.syntax unified
 803              		.thumb
 804              		.thumb_func
 805              		.fpu fpv4-sp-d16
 807              	_ZN9actuators7Vector47getTypeEv:
 808              	.LVL52:
 809              	.LFB532:
  58:Core/Inc/ros/actuators/Vector4.h **** 
  59:Core/Inc/ros/actuators/Vector4.h ****     virtual const char * getType() override { return "actuators/Vector4"; };
 810              		.loc 6 59 26 is_stmt 1 view -0
 811              		.cfi_startproc
 812              		@ args = 0, pretend = 0, frame = 0
 813              		@ frame_needed = 0, uses_anonymous_args = 0
 814              		@ link register save eliminated.
 815              		.loc 6 59 47 view .LVU216
 816              		.loc 6 59 75 is_stmt 0 view .LVU217
 817 0000 0048     		ldr	r0, .L46
 818              	.LVL53:
 819              		.loc 6 59 75 view .LVU218
 820 0002 7047     		bx	lr
 821              	.L47:
 822              		.align	2
 823              	.L46:
 824 0004 00000000 		.word	.LC9
 825              		.cfi_endproc
 826              	.LFE532:
 828              		.section	.rodata._ZN9actuators7Vector46getMD5Ev.str1.4,"aMS",%progbits,1
 829              		.align	2
 830              	.LC10:
 831 0000 33393064 		.ascii	"390dd8b5493d1ef8649e084b0a6daa79\000"
 831      64386235 
 831      34393364 
 831      31656638 
 831      36343965 
 832              		.section	.text._ZN9actuators7Vector46getMD5Ev,"axG",%progbits,_ZN9actuators7Vector46getMD5Ev,comda
 833              		.align	1
 834              		.weak	_ZN9actuators7Vector46getMD5Ev
 835              		.syntax unified
 836              		.thumb
 837              		.thumb_func
 838              		.fpu fpv4-sp-d16
 840              	_ZN9actuators7Vector46getMD5Ev:
 841              	.LVL54:
 842              	.LFB533:
ARM GAS  /tmp/ccaSmKi1.s 			page 26


  60:Core/Inc/ros/actuators/Vector4.h ****     virtual const char * getMD5() override { return "390dd8b5493d1ef8649e084b0a6daa79"; };
 843              		.loc 6 60 26 is_stmt 1 view -0
 844              		.cfi_startproc
 845              		@ args = 0, pretend = 0, frame = 0
 846              		@ frame_needed = 0, uses_anonymous_args = 0
 847              		@ link register save eliminated.
 848              		.loc 6 60 46 view .LVU220
 849              		.loc 6 60 89 is_stmt 0 view .LVU221
 850 0000 0048     		ldr	r0, .L49
 851              	.LVL55:
 852              		.loc 6 60 89 view .LVU222
 853 0002 7047     		bx	lr
 854              	.L50:
 855              		.align	2
 856              	.L49:
 857 0004 00000000 		.word	.LC10
 858              		.cfi_endproc
 859              	.LFE533:
 861              		.section	.text._ZNK9actuators7Vector29serializeEPh,"axG",%progbits,_ZNK9actuators7Vector29serializ
 862              		.align	1
 863              		.weak	_ZNK9actuators7Vector29serializeEPh
 864              		.syntax unified
 865              		.thumb
 866              		.thumb_func
 867              		.fpu fpv4-sp-d16
 869              	_ZNK9actuators7Vector29serializeEPh:
 870              	.LVL56:
 871              	.LFB537:
 872              		.file 7 "Core/Inc/ros/actuators/Vector2.h"
   1:Core/Inc/ros/actuators/Vector2.h **** #ifndef _ROS_actuators_Vector2_h
   2:Core/Inc/ros/actuators/Vector2.h **** #define _ROS_actuators_Vector2_h
   3:Core/Inc/ros/actuators/Vector2.h **** 
   4:Core/Inc/ros/actuators/Vector2.h **** #include <stdint.h>
   5:Core/Inc/ros/actuators/Vector2.h **** #include <string.h>
   6:Core/Inc/ros/actuators/Vector2.h **** #include <stdlib.h>
   7:Core/Inc/ros/actuators/Vector2.h **** #include "ros/msg.h"
   8:Core/Inc/ros/actuators/Vector2.h **** 
   9:Core/Inc/ros/actuators/Vector2.h **** namespace actuators
  10:Core/Inc/ros/actuators/Vector2.h **** {
  11:Core/Inc/ros/actuators/Vector2.h **** 
  12:Core/Inc/ros/actuators/Vector2.h ****   class Vector2 : public ros::Msg
  13:Core/Inc/ros/actuators/Vector2.h ****   {
  14:Core/Inc/ros/actuators/Vector2.h ****     public:
  15:Core/Inc/ros/actuators/Vector2.h ****       float dual[2];
  16:Core/Inc/ros/actuators/Vector2.h **** 
  17:Core/Inc/ros/actuators/Vector2.h ****     Vector2():
  18:Core/Inc/ros/actuators/Vector2.h ****       dual()
  19:Core/Inc/ros/actuators/Vector2.h ****     {
  20:Core/Inc/ros/actuators/Vector2.h ****     }
  21:Core/Inc/ros/actuators/Vector2.h **** 
  22:Core/Inc/ros/actuators/Vector2.h ****     virtual int serialize(unsigned char *outbuffer) const override
 873              		.loc 7 22 17 is_stmt 1 view -0
 874              		.cfi_startproc
 875              		@ args = 0, pretend = 0, frame = 0
 876              		@ frame_needed = 0, uses_anonymous_args = 0
 877              		.loc 7 22 17 is_stmt 0 view .LVU224
 878 0000 8446     		mov	ip, r0
ARM GAS  /tmp/ccaSmKi1.s 			page 27


  23:Core/Inc/ros/actuators/Vector2.h ****     {
  24:Core/Inc/ros/actuators/Vector2.h ****       int offset = 0;
 879              		.loc 7 24 7 is_stmt 1 view .LVU225
 880              	.LVL57:
  25:Core/Inc/ros/actuators/Vector2.h ****       for( uint32_t i = 0; i < 2; i++){
 881              		.loc 7 25 7 view .LVU226
 882              	.LBB186:
 883              		.loc 7 25 21 is_stmt 0 view .LVU227
 884 0002 0022     		movs	r2, #0
 885              	.LBE186:
  24:Core/Inc/ros/actuators/Vector2.h ****       for( uint32_t i = 0; i < 2; i++){
 886              		.loc 7 24 11 view .LVU228
 887 0004 1046     		mov	r0, r2
 888              	.LVL58:
 889              	.LBB188:
 890              		.loc 7 25 30 is_stmt 1 view .LVU229
 891 0006 012A     		cmp	r2, #1
 892 0008 18D8     		bhi	.L59
 893              	.LBE188:
  22:Core/Inc/ros/actuators/Vector2.h ****     {
 894              		.loc 7 22 17 is_stmt 0 view .LVU230
 895 000a 10B5     		push	{r4, lr}
 896              	.LCFI2:
 897              		.cfi_def_cfa_offset 8
 898              		.cfi_offset 4, -8
 899              		.cfi_offset 14, -4
 900              	.LVL59:
 901              	.L57:
 902              	.LBB189:
 903              	.LBB187:
  26:Core/Inc/ros/actuators/Vector2.h ****       union {
 904              		.loc 7 26 7 is_stmt 1 discriminator 2 view .LVU231
  27:Core/Inc/ros/actuators/Vector2.h ****         float real;
  28:Core/Inc/ros/actuators/Vector2.h ****         uint32_t base;
  29:Core/Inc/ros/actuators/Vector2.h ****       } u_duali;
  30:Core/Inc/ros/actuators/Vector2.h ****       u_duali.real = this->dual[i];
 905              		.loc 7 30 7 discriminator 2 view .LVU232
 906              		.loc 7 30 34 is_stmt 0 discriminator 2 view .LVU233
 907 000c 0CEB8203 		add	r3, ip, r2, lsl #2
  31:Core/Inc/ros/actuators/Vector2.h ****       *(outbuffer + offset + 0) = (u_duali.base >> (8 * 0)) & 0xFF;
 908              		.loc 7 31 7 is_stmt 1 discriminator 2 view .LVU234
 909 0010 5B68     		ldr	r3, [r3, #4]
 910              		.loc 7 31 33 is_stmt 0 discriminator 2 view .LVU235
 911 0012 0B54     		strb	r3, [r1, r0]
  32:Core/Inc/ros/actuators/Vector2.h ****       *(outbuffer + offset + 1) = (u_duali.base >> (8 * 1)) & 0xFF;
 912              		.loc 7 32 7 is_stmt 1 discriminator 2 view .LVU236
 913              		.loc 7 32 49 is_stmt 0 discriminator 2 view .LVU237
 914 0014 4FEA132E 		lsr	lr, r3, #8
 915              		.loc 7 32 28 discriminator 2 view .LVU238
 916 0018 441C     		adds	r4, r0, #1
 917              		.loc 7 32 33 discriminator 2 view .LVU239
 918 001a 01F804E0 		strb	lr, [r1, r4]
  33:Core/Inc/ros/actuators/Vector2.h ****       *(outbuffer + offset + 2) = (u_duali.base >> (8 * 2)) & 0xFF;
 919              		.loc 7 33 7 is_stmt 1 discriminator 2 view .LVU240
 920              		.loc 7 33 49 is_stmt 0 discriminator 2 view .LVU241
 921 001e 1C0C     		lsrs	r4, r3, #16
 922              		.loc 7 33 28 discriminator 2 view .LVU242
ARM GAS  /tmp/ccaSmKi1.s 			page 28


 923 0020 00F1020E 		add	lr, r0, #2
 924              		.loc 7 33 33 discriminator 2 view .LVU243
 925 0024 01F80E40 		strb	r4, [r1, lr]
  34:Core/Inc/ros/actuators/Vector2.h ****       *(outbuffer + offset + 3) = (u_duali.base >> (8 * 3)) & 0xFF;
 926              		.loc 7 34 7 is_stmt 1 discriminator 2 view .LVU244
 927              		.loc 7 34 49 is_stmt 0 discriminator 2 view .LVU245
 928 0028 1B0E     		lsrs	r3, r3, #24
 929              		.loc 7 34 28 discriminator 2 view .LVU246
 930 002a 00F1030E 		add	lr, r0, #3
 931              		.loc 7 34 33 discriminator 2 view .LVU247
 932 002e 01F80E30 		strb	r3, [r1, lr]
  35:Core/Inc/ros/actuators/Vector2.h ****       offset += sizeof(this->dual[i]);
 933              		.loc 7 35 7 is_stmt 1 discriminator 2 view .LVU248
 934              		.loc 7 35 14 is_stmt 0 discriminator 2 view .LVU249
 935 0032 0430     		adds	r0, r0, #4
 936              	.LVL60:
 937              		.loc 7 35 14 discriminator 2 view .LVU250
 938              	.LBE187:
  25:Core/Inc/ros/actuators/Vector2.h ****       union {
 939              		.loc 7 25 7 is_stmt 1 discriminator 2 view .LVU251
 940 0034 0132     		adds	r2, r2, #1
 941              	.LVL61:
  25:Core/Inc/ros/actuators/Vector2.h ****       union {
 942              		.loc 7 25 30 discriminator 2 view .LVU252
 943 0036 012A     		cmp	r2, #1
 944 0038 E8D9     		bls	.L57
 945              	.LBE189:
  36:Core/Inc/ros/actuators/Vector2.h ****       }
  37:Core/Inc/ros/actuators/Vector2.h ****       return offset;
  38:Core/Inc/ros/actuators/Vector2.h ****     }
 946              		.loc 7 38 5 is_stmt 0 view .LVU253
 947 003a 10BD     		pop	{r4, pc}
 948              	.LVL62:
 949              	.L59:
 950              	.LCFI3:
 951              		.cfi_def_cfa_offset 0
 952              		.cfi_restore 4
 953              		.cfi_restore 14
 954              		.loc 7 38 5 view .LVU254
 955 003c 7047     		bx	lr
 956              		.cfi_endproc
 957              	.LFE537:
 959              		.section	.text._ZN9actuators7Vector211deserializeEPh,"axG",%progbits,_ZN9actuators7Vector211deseri
 960              		.align	1
 961              		.weak	_ZN9actuators7Vector211deserializeEPh
 962              		.syntax unified
 963              		.thumb
 964              		.thumb_func
 965              		.fpu fpv4-sp-d16
 967              	_ZN9actuators7Vector211deserializeEPh:
 968              	.LVL63:
 969              	.LFB538:
  39:Core/Inc/ros/actuators/Vector2.h **** 
  40:Core/Inc/ros/actuators/Vector2.h ****     virtual int deserialize(unsigned char *inbuffer) override
 970              		.loc 7 40 17 is_stmt 1 view -0
 971              		.cfi_startproc
 972              		@ args = 0, pretend = 0, frame = 0
ARM GAS  /tmp/ccaSmKi1.s 			page 29


 973              		@ frame_needed = 0, uses_anonymous_args = 0
 974              		.loc 7 40 17 is_stmt 0 view .LVU256
 975 0000 8446     		mov	ip, r0
  41:Core/Inc/ros/actuators/Vector2.h ****     {
  42:Core/Inc/ros/actuators/Vector2.h ****       int offset = 0;
 976              		.loc 7 42 7 is_stmt 1 view .LVU257
 977              	.LVL64:
  43:Core/Inc/ros/actuators/Vector2.h ****       for( uint32_t i = 0; i < 2; i++){
 978              		.loc 7 43 7 view .LVU258
 979              	.LBB190:
 980              		.loc 7 43 21 is_stmt 0 view .LVU259
 981 0002 0022     		movs	r2, #0
 982              	.LBE190:
  42:Core/Inc/ros/actuators/Vector2.h ****       for( uint32_t i = 0; i < 2; i++){
 983              		.loc 7 42 11 view .LVU260
 984 0004 1046     		mov	r0, r2
 985              	.LVL65:
 986              	.LBB192:
 987              		.loc 7 43 30 is_stmt 1 view .LVU261
 988 0006 012A     		cmp	r2, #1
 989 0008 16D8     		bhi	.L68
 990              	.LBE192:
  40:Core/Inc/ros/actuators/Vector2.h ****     {
 991              		.loc 7 40 17 is_stmt 0 view .LVU262
 992 000a 10B5     		push	{r4, lr}
 993              	.LCFI4:
 994              		.cfi_def_cfa_offset 8
 995              		.cfi_offset 4, -8
 996              		.cfi_offset 14, -4
 997              	.LVL66:
 998              	.L66:
 999              	.LBB193:
 1000              	.LBB191:
  44:Core/Inc/ros/actuators/Vector2.h ****       union {
 1001              		.loc 7 44 7 is_stmt 1 discriminator 2 view .LVU263
  45:Core/Inc/ros/actuators/Vector2.h ****         float real;
  46:Core/Inc/ros/actuators/Vector2.h ****         uint32_t base;
  47:Core/Inc/ros/actuators/Vector2.h ****       } u_duali;
  48:Core/Inc/ros/actuators/Vector2.h ****       u_duali.base = 0;
 1002              		.loc 7 48 7 discriminator 2 view .LVU264
  49:Core/Inc/ros/actuators/Vector2.h ****       u_duali.base |= ((uint32_t) (*(inbuffer + offset + 0))) << (8 * 0);
 1003              		.loc 7 49 7 discriminator 2 view .LVU265
 1004              		.loc 7 49 36 is_stmt 0 discriminator 2 view .LVU266
 1005 000c 0B5C     		ldrb	r3, [r1, r0]	@ zero_extendqisi2
  50:Core/Inc/ros/actuators/Vector2.h ****       u_duali.base |= ((uint32_t) (*(inbuffer + offset + 1))) << (8 * 1);
 1006              		.loc 7 50 7 is_stmt 1 discriminator 2 view .LVU267
 1007              		.loc 7 50 56 is_stmt 0 discriminator 2 view .LVU268
 1008 000e 441C     		adds	r4, r0, #1
 1009              		.loc 7 50 36 discriminator 2 view .LVU269
 1010 0010 0C5D     		ldrb	r4, [r1, r4]	@ zero_extendqisi2
 1011              		.loc 7 50 20 discriminator 2 view .LVU270
 1012 0012 43EA0423 		orr	r3, r3, r4, lsl #8
  51:Core/Inc/ros/actuators/Vector2.h ****       u_duali.base |= ((uint32_t) (*(inbuffer + offset + 2))) << (8 * 2);
 1013              		.loc 7 51 7 is_stmt 1 discriminator 2 view .LVU271
 1014              		.loc 7 51 56 is_stmt 0 discriminator 2 view .LVU272
 1015 0016 841C     		adds	r4, r0, #2
 1016              		.loc 7 51 36 discriminator 2 view .LVU273
ARM GAS  /tmp/ccaSmKi1.s 			page 30


 1017 0018 0C5D     		ldrb	r4, [r1, r4]	@ zero_extendqisi2
 1018              		.loc 7 51 20 discriminator 2 view .LVU274
 1019 001a 43EA0443 		orr	r3, r3, r4, lsl #16
  52:Core/Inc/ros/actuators/Vector2.h ****       u_duali.base |= ((uint32_t) (*(inbuffer + offset + 3))) << (8 * 3);
 1020              		.loc 7 52 7 is_stmt 1 discriminator 2 view .LVU275
 1021              		.loc 7 52 56 is_stmt 0 discriminator 2 view .LVU276
 1022 001e C41C     		adds	r4, r0, #3
 1023              		.loc 7 52 36 discriminator 2 view .LVU277
 1024 0020 0C5D     		ldrb	r4, [r1, r4]	@ zero_extendqisi2
  53:Core/Inc/ros/actuators/Vector2.h ****       this->dual[i] = u_duali.real;
 1025              		.loc 7 53 7 is_stmt 1 discriminator 2 view .LVU278
 1026              		.loc 7 53 21 is_stmt 0 discriminator 2 view .LVU279
 1027 0022 0CEB820E 		add	lr, ip, r2, lsl #2
 1028 0026 43EA0463 		orr	r3, r3, r4, lsl #24
 1029 002a CEF80430 		str	r3, [lr, #4]	@ float
  54:Core/Inc/ros/actuators/Vector2.h ****       offset += sizeof(this->dual[i]);
 1030              		.loc 7 54 7 is_stmt 1 discriminator 2 view .LVU280
 1031              		.loc 7 54 14 is_stmt 0 discriminator 2 view .LVU281
 1032 002e 0430     		adds	r0, r0, #4
 1033              	.LVL67:
 1034              		.loc 7 54 14 discriminator 2 view .LVU282
 1035              	.LBE191:
  43:Core/Inc/ros/actuators/Vector2.h ****       union {
 1036              		.loc 7 43 7 is_stmt 1 discriminator 2 view .LVU283
 1037 0030 0132     		adds	r2, r2, #1
 1038              	.LVL68:
  43:Core/Inc/ros/actuators/Vector2.h ****       union {
 1039              		.loc 7 43 30 discriminator 2 view .LVU284
 1040 0032 012A     		cmp	r2, #1
 1041 0034 EAD9     		bls	.L66
 1042              	.LBE193:
  55:Core/Inc/ros/actuators/Vector2.h ****       }
  56:Core/Inc/ros/actuators/Vector2.h ****      return offset;
  57:Core/Inc/ros/actuators/Vector2.h ****     }
 1043              		.loc 7 57 5 is_stmt 0 view .LVU285
 1044 0036 10BD     		pop	{r4, pc}
 1045              	.LVL69:
 1046              	.L68:
 1047              	.LCFI5:
 1048              		.cfi_def_cfa_offset 0
 1049              		.cfi_restore 4
 1050              		.cfi_restore 14
 1051              		.loc 7 57 5 view .LVU286
 1052 0038 7047     		bx	lr
 1053              		.cfi_endproc
 1054              	.LFE538:
 1056              		.section	.rodata._ZN9actuators7Vector27getTypeEv.str1.4,"aMS",%progbits,1
 1057              		.align	2
 1058              	.LC11:
 1059 0000 61637475 		.ascii	"actuators/Vector2\000"
 1059      61746F72 
 1059      732F5665 
 1059      63746F72 
 1059      3200
 1060              		.section	.text._ZN9actuators7Vector27getTypeEv,"axG",%progbits,_ZN9actuators7Vector27getTypeEv,com
 1061              		.align	1
 1062              		.weak	_ZN9actuators7Vector27getTypeEv
ARM GAS  /tmp/ccaSmKi1.s 			page 31


 1063              		.syntax unified
 1064              		.thumb
 1065              		.thumb_func
 1066              		.fpu fpv4-sp-d16
 1068              	_ZN9actuators7Vector27getTypeEv:
 1069              	.LVL70:
 1070              	.LFB539:
  58:Core/Inc/ros/actuators/Vector2.h **** 
  59:Core/Inc/ros/actuators/Vector2.h ****     virtual const char * getType() override { return "actuators/Vector2"; };
 1071              		.loc 7 59 26 is_stmt 1 view -0
 1072              		.cfi_startproc
 1073              		@ args = 0, pretend = 0, frame = 0
 1074              		@ frame_needed = 0, uses_anonymous_args = 0
 1075              		@ link register save eliminated.
 1076              		.loc 7 59 47 view .LVU288
 1077              		.loc 7 59 75 is_stmt 0 view .LVU289
 1078 0000 0048     		ldr	r0, .L70
 1079              	.LVL71:
 1080              		.loc 7 59 75 view .LVU290
 1081 0002 7047     		bx	lr
 1082              	.L71:
 1083              		.align	2
 1084              	.L70:
 1085 0004 00000000 		.word	.LC11
 1086              		.cfi_endproc
 1087              	.LFE539:
 1089              		.section	.rodata._ZN9actuators7Vector26getMD5Ev.str1.4,"aMS",%progbits,1
 1090              		.align	2
 1091              	.LC12:
 1092 0000 64633666 		.ascii	"dc6fc6947e0b42110f3e03b6150ecb68\000"
 1092      63363934 
 1092      37653062 
 1092      34323131 
 1092      30663365 
 1093              		.section	.text._ZN9actuators7Vector26getMD5Ev,"axG",%progbits,_ZN9actuators7Vector26getMD5Ev,comda
 1094              		.align	1
 1095              		.weak	_ZN9actuators7Vector26getMD5Ev
 1096              		.syntax unified
 1097              		.thumb
 1098              		.thumb_func
 1099              		.fpu fpv4-sp-d16
 1101              	_ZN9actuators7Vector26getMD5Ev:
 1102              	.LVL72:
 1103              	.LFB540:
  60:Core/Inc/ros/actuators/Vector2.h ****     virtual const char * getMD5() override { return "dc6fc6947e0b42110f3e03b6150ecb68"; };
 1104              		.loc 7 60 26 is_stmt 1 view -0
 1105              		.cfi_startproc
 1106              		@ args = 0, pretend = 0, frame = 0
 1107              		@ frame_needed = 0, uses_anonymous_args = 0
 1108              		@ link register save eliminated.
 1109              		.loc 7 60 46 view .LVU292
 1110              		.loc 7 60 89 is_stmt 0 view .LVU293
 1111 0000 0048     		ldr	r0, .L73
 1112              	.LVL73:
 1113              		.loc 7 60 89 view .LVU294
 1114 0002 7047     		bx	lr
 1115              	.L74:
ARM GAS  /tmp/ccaSmKi1.s 			page 32


 1116              		.align	2
 1117              	.L73:
 1118 0004 00000000 		.word	.LC12
 1119              		.cfi_endproc
 1120              	.LFE540:
 1122              		.section	.rodata._Z41__static_initialization_and_destruction_0ii.str1.4,"aMS",%progbits,1
 1123              		.align	2
 1124              	.LC13:
 1125 0000 656E636F 		.ascii	"encoder_base_count\000"
 1125      6465725F 
 1125      62617365 
 1125      5F636F75 
 1125      6E7400
 1126 0013 00       		.align	2
 1127              	.LC14:
 1128 0014 66726565 		.ascii	"free_wheel_distance\000"
 1128      5F776865 
 1128      656C5F64 
 1128      69737461 
 1128      6E636500 
 1129              		.align	2
 1130              	.LC15:
 1131 0028 6D6F746F 		.ascii	"motor_base\000"
 1131      725F6261 
 1131      736500
 1132              		.section	.text._Z41__static_initialization_and_destruction_0ii,"ax",%progbits
 1133              		.align	1
 1134              		.syntax unified
 1135              		.thumb
 1136              		.thumb_func
 1137              		.fpu fpv4-sp-d16
 1139              	_Z41__static_initialization_and_destruction_0ii:
 1140              	.LVL74:
 1141              	.LFB578:
 1142              		.file 8 "Core/Src/operation.cpp"
   1:Core/Src/operation.cpp **** #include"robo_init.h"
   2:Core/Src/operation.cpp **** #include"operation.h"
   3:Core/Src/operation.cpp **** #include<ros.h>
   4:Core/Src/operation.cpp **** #include"actuators/Vector4.h"
   5:Core/Src/operation.cpp **** #include"actuators/motor_driver_param.h"
   6:Core/Src/operation.cpp **** #include"actuators/Vector2.h"
   7:Core/Src/operation.cpp **** ros::NodeHandle nh;
   8:Core/Src/operation.cpp **** actuators::Vector4 encoder_count;
   9:Core/Src/operation.cpp **** actuators::Vector2 free_wheel_e;
  10:Core/Src/operation.cpp **** extern motor motor_[4];
  11:Core/Src/operation.cpp **** extern encoder encoder_[4];
  12:Core/Src/operation.cpp **** extern free_wheel ex;
  13:Core/Src/operation.cpp **** extern free_wheel ey;
  14:Core/Src/operation.cpp **** void HAL_UART_TxCpltCallback(UART_HandleTypeDef *huart){
  15:Core/Src/operation.cpp ****   nh.getHardware()->flush();
  16:Core/Src/operation.cpp **** }
  17:Core/Src/operation.cpp **** 
  18:Core/Src/operation.cpp **** void HAL_UART_RxCpltCallback(UART_HandleTypeDef *huart){
  19:Core/Src/operation.cpp ****   nh.getHardware()->reset_rbuf();
  20:Core/Src/operation.cpp **** }
  21:Core/Src/operation.cpp **** ros::Publisher pub1("encoder_base_count", &encoder_count);
  22:Core/Src/operation.cpp **** ros::Publisher pub2("free_wheel_distance", &free_wheel_e);
ARM GAS  /tmp/ccaSmKi1.s 			page 33


  23:Core/Src/operation.cpp **** void motor_base_callback(const actuators::motor_driver_param& msg)
  24:Core/Src/operation.cpp **** {
  25:Core/Src/operation.cpp ****   motor_[msg.id].set_motorParam(msg);
  26:Core/Src/operation.cpp ****   //  if(msg.id==0){  
  27:Core/Src/operation.cpp ****   //     printf("d1 %d\n",msg.dir1);
  28:Core/Src/operation.cpp ****   //  printf("d2 %d\n",msg.dir2);
  29:Core/Src/operation.cpp ****   //  printf("pwm %d\n", msg.pwm);
  30:Core/Src/operation.cpp ****   //  }
  31:Core/Src/operation.cpp **** }
  32:Core/Src/operation.cpp **** ros::Subscriber<actuators::motor_driver_param> sub("motor_base",motor_base_callback);
  33:Core/Src/operation.cpp **** void init()
  34:Core/Src/operation.cpp **** {
  35:Core/Src/operation.cpp ****   
  36:Core/Src/operation.cpp ****  robo_init();
  37:Core/Src/operation.cpp ****  nh.initNode();
  38:Core/Src/operation.cpp ****  nh.advertise(pub1);
  39:Core/Src/operation.cpp ****  nh.advertise(pub2);
  40:Core/Src/operation.cpp ****  nh.subscribe(sub);
  41:Core/Src/operation.cpp **** }
  42:Core/Src/operation.cpp **** void run()
  43:Core/Src/operation.cpp **** {
  44:Core/Src/operation.cpp ****  for(int i=0;i<4;i++)
  45:Core/Src/operation.cpp ****  {
  46:Core/Src/operation.cpp ****   encoder_count.quad[i]=encoder_[i].get_count();
  47:Core/Src/operation.cpp ****  }
  48:Core/Src/operation.cpp ****   free_wheel_e.dual[0]=ex.get_distance();
  49:Core/Src/operation.cpp ****   free_wheel_e.dual[1]=ey.get_distance();
  50:Core/Src/operation.cpp ****   pub1.publish(&encoder_count);
  51:Core/Src/operation.cpp ****   pub2.publish(&free_wheel_e);
  52:Core/Src/operation.cpp ****   nh.spinOnce();
  53:Core/Src/operation.cpp ****   HAL_Delay(10);
  54:Core/Src/operation.cpp **** }...
 1143              		.loc 8 54 1 is_stmt 1 view -0
 1144              		.cfi_startproc
 1145              		@ args = 0, pretend = 0, frame = 0
 1146              		@ frame_needed = 0, uses_anonymous_args = 0
 1147              		.loc 8 54 1 is_stmt 0 view .LVU296
 1148 0000 0128     		cmp	r0, #1
 1149 0002 00D0     		beq	.L85
 1150 0004 7047     		bx	lr
 1151              	.L85:
 1152              		.loc 8 54 1 discriminator 1 view .LVU297
 1153 0006 F8B5     		push	{r3, r4, r5, r6, r7, lr}
 1154              	.LCFI6:
 1155              		.cfi_def_cfa_offset 24
 1156              		.cfi_offset 3, -24
 1157              		.cfi_offset 4, -20
 1158              		.cfi_offset 5, -16
 1159              		.cfi_offset 6, -12
 1160              		.cfi_offset 7, -8
 1161              		.cfi_offset 14, -4
 1162 0008 0446     		mov	r4, r0
 1163              		.loc 8 54 1 discriminator 1 view .LVU298
 1164 000a 4FF6FF73 		movw	r3, #65535
 1165 000e 9942     		cmp	r1, r3
 1166 0010 00D0     		beq	.L86
 1167              	.LVL75:
ARM GAS  /tmp/ccaSmKi1.s 			page 34


 1168              	.L75:
 1169              		.loc 8 54 1 view .LVU299
 1170 0012 F8BD     		pop	{r3, r4, r5, r6, r7, pc}
 1171              	.LVL76:
 1172              	.L86:
 1173              	.LBB233:
 1174              	.LBI233:
 1175              		.file 9 "Core/Inc/ros/ros/node_handle.h"
   1:Core/Inc/ros/ros/node_handle.h **** /*
   2:Core/Inc/ros/ros/node_handle.h ****  * Software License Agreement (BSD License)
   3:Core/Inc/ros/ros/node_handle.h ****  *
   4:Core/Inc/ros/ros/node_handle.h ****  * Copyright (c) 2011, Willow Garage, Inc.
   5:Core/Inc/ros/ros/node_handle.h ****  * All rights reserved.
   6:Core/Inc/ros/ros/node_handle.h ****  *
   7:Core/Inc/ros/ros/node_handle.h ****  * Redistribution and use in source and binary forms, with or without
   8:Core/Inc/ros/ros/node_handle.h ****  * modification, are permitted provided that the following conditions
   9:Core/Inc/ros/ros/node_handle.h ****  * are met:
  10:Core/Inc/ros/ros/node_handle.h ****  *
  11:Core/Inc/ros/ros/node_handle.h ****  *  * Redistributions of source code must retain the above copyright
  12:Core/Inc/ros/ros/node_handle.h ****  *    notice, this list of conditions and the following disclaimer.
  13:Core/Inc/ros/ros/node_handle.h ****  *  * Redistributions in binary form must reproduce the above
  14:Core/Inc/ros/ros/node_handle.h ****  *    copyright notice, this list of conditions and the following
  15:Core/Inc/ros/ros/node_handle.h ****  *    disclaimer in the documentation and/or other materials provided
  16:Core/Inc/ros/ros/node_handle.h ****  *    with the distribution.
  17:Core/Inc/ros/ros/node_handle.h ****  *  * Neither the name of Willow Garage, Inc. nor the names of its
  18:Core/Inc/ros/ros/node_handle.h ****  *    contributors may be used to endorse or promote prducts derived
  19:Core/Inc/ros/ros/node_handle.h ****  *    from this software without specific prior written permission.
  20:Core/Inc/ros/ros/node_handle.h ****  *
  21:Core/Inc/ros/ros/node_handle.h ****  * THIS SOFTWARE IS PROVIDED BY THE COPYRIGHT HOLDERS AND CONTRIBUTORS
  22:Core/Inc/ros/ros/node_handle.h ****  * "AS IS" AND ANY EXPRESS OR IMPLIED WARRANTIES, INCLUDING, BUT NOT
  23:Core/Inc/ros/ros/node_handle.h ****  * LIMITED TO, THE IMPLIED WARRANTIES OF MERCHANTABILITY AND FITNESS
  24:Core/Inc/ros/ros/node_handle.h ****  * FOR A PARTICULAR PURPOSE ARE DISCLAIMED. IN NO EVENT SHALL THE
  25:Core/Inc/ros/ros/node_handle.h ****  * COPYRIGHT OWNER OR CONTRIBUTORS BE LIABLE FOR ANY DIRECT, INDIRECT,
  26:Core/Inc/ros/ros/node_handle.h ****  * INCIDENTAL, SPECIAL, EXEMPLARY, OR CONSEQUENTIAL DAMAGES (INCLUDING,
  27:Core/Inc/ros/ros/node_handle.h ****  * BUT NOT LIMITED TO, PROCUREMENT OF SUBSTITUTE GOODS OR SERVICES;
  28:Core/Inc/ros/ros/node_handle.h ****  * LOSS OF USE, DATA, OR PROFITS; OR BUSINESS INTERRUPTION) HOWEVER
  29:Core/Inc/ros/ros/node_handle.h ****  * CAUSED AND ON ANY THEORY OF LIABILITY, WHETHER IN CONTRACT, STRICT
  30:Core/Inc/ros/ros/node_handle.h ****  * LIABILITY, OR TORT (INCLUDING NEGLIGENCE OR OTHERWISE) ARISING IN
  31:Core/Inc/ros/ros/node_handle.h ****  * ANY WAY OUT OF THE USE OF THIS SOFTWARE, EVEN IF ADVISED OF THE
  32:Core/Inc/ros/ros/node_handle.h ****  * POSSIBILITY OF SUCH DAMAGE.
  33:Core/Inc/ros/ros/node_handle.h ****  */
  34:Core/Inc/ros/ros/node_handle.h **** 
  35:Core/Inc/ros/ros/node_handle.h **** #ifndef ROS_NODE_HANDLE_H_
  36:Core/Inc/ros/ros/node_handle.h **** #define ROS_NODE_HANDLE_H_
  37:Core/Inc/ros/ros/node_handle.h **** 
  38:Core/Inc/ros/ros/node_handle.h **** #include <stdint.h>
  39:Core/Inc/ros/ros/node_handle.h **** 
  40:Core/Inc/ros/ros/node_handle.h **** #include "std_msgs/Time.h"
  41:Core/Inc/ros/ros/node_handle.h **** #include "rosserial_msgs/TopicInfo.h"
  42:Core/Inc/ros/ros/node_handle.h **** #include "rosserial_msgs/Log.h"
  43:Core/Inc/ros/ros/node_handle.h **** #include "rosserial_msgs/RequestParam.h"
  44:Core/Inc/ros/ros/node_handle.h **** 
  45:Core/Inc/ros/ros/node_handle.h **** #include "ros/msg.h"
  46:Core/Inc/ros/ros/node_handle.h **** 
  47:Core/Inc/ros/ros/node_handle.h **** namespace ros
  48:Core/Inc/ros/ros/node_handle.h **** {
  49:Core/Inc/ros/ros/node_handle.h **** 
ARM GAS  /tmp/ccaSmKi1.s 			page 35


  50:Core/Inc/ros/ros/node_handle.h **** class NodeHandleBase_
  51:Core/Inc/ros/ros/node_handle.h **** {
  52:Core/Inc/ros/ros/node_handle.h **** public:
  53:Core/Inc/ros/ros/node_handle.h ****   virtual int publish(int id, const Msg* msg) = 0;
  54:Core/Inc/ros/ros/node_handle.h ****   virtual int spinOnce() = 0;
  55:Core/Inc/ros/ros/node_handle.h ****   virtual bool connected() = 0;
  56:Core/Inc/ros/ros/node_handle.h **** };
  57:Core/Inc/ros/ros/node_handle.h **** }
  58:Core/Inc/ros/ros/node_handle.h **** 
  59:Core/Inc/ros/ros/node_handle.h **** #include "ros/publisher.h"
  60:Core/Inc/ros/ros/node_handle.h **** #include "ros/subscriber.h"
  61:Core/Inc/ros/ros/node_handle.h **** #include "ros/service_server.h"
  62:Core/Inc/ros/ros/node_handle.h **** #include "ros/service_client.h"
  63:Core/Inc/ros/ros/node_handle.h **** 
  64:Core/Inc/ros/ros/node_handle.h **** namespace ros
  65:Core/Inc/ros/ros/node_handle.h **** {
  66:Core/Inc/ros/ros/node_handle.h **** 
  67:Core/Inc/ros/ros/node_handle.h **** const int SPIN_OK = 0;
  68:Core/Inc/ros/ros/node_handle.h **** const int SPIN_ERR = -1;
  69:Core/Inc/ros/ros/node_handle.h **** const int SPIN_TIMEOUT = -2;
  70:Core/Inc/ros/ros/node_handle.h **** 
  71:Core/Inc/ros/ros/node_handle.h **** const uint8_t SYNC_SECONDS  = 5;
  72:Core/Inc/ros/ros/node_handle.h **** const uint8_t MODE_FIRST_FF = 0;
  73:Core/Inc/ros/ros/node_handle.h **** /*
  74:Core/Inc/ros/ros/node_handle.h ****  * The second sync byte is a protocol version. It's value is 0xff for the first
  75:Core/Inc/ros/ros/node_handle.h ****  * version of the rosserial protocol (used up to hydro), 0xfe for the second version
  76:Core/Inc/ros/ros/node_handle.h ****  * (introduced in hydro), 0xfd for the next, and so on. Its purpose is to enable
  77:Core/Inc/ros/ros/node_handle.h ****  * detection of mismatched protocol versions (e.g. hydro rosserial_python with groovy
  78:Core/Inc/ros/ros/node_handle.h ****  * rosserial_arduino. It must be changed in both this file and in
  79:Core/Inc/ros/ros/node_handle.h ****  * rosserial_python/src/rosserial_python/SerialClient.py
  80:Core/Inc/ros/ros/node_handle.h ****  */
  81:Core/Inc/ros/ros/node_handle.h **** const uint8_t MODE_PROTOCOL_VER   = 1;
  82:Core/Inc/ros/ros/node_handle.h **** const uint8_t PROTOCOL_VER1       = 0xff; // through groovy
  83:Core/Inc/ros/ros/node_handle.h **** const uint8_t PROTOCOL_VER2       = 0xfe; // in hydro
  84:Core/Inc/ros/ros/node_handle.h **** const uint8_t PROTOCOL_VER        = PROTOCOL_VER2;
  85:Core/Inc/ros/ros/node_handle.h **** const uint8_t MODE_SIZE_L         = 2;
  86:Core/Inc/ros/ros/node_handle.h **** const uint8_t MODE_SIZE_H         = 3;
  87:Core/Inc/ros/ros/node_handle.h **** const uint8_t MODE_SIZE_CHECKSUM  = 4;    // checksum for msg size received from size L and H
  88:Core/Inc/ros/ros/node_handle.h **** const uint8_t MODE_TOPIC_L        = 5;    // waiting for topic id
  89:Core/Inc/ros/ros/node_handle.h **** const uint8_t MODE_TOPIC_H        = 6;
  90:Core/Inc/ros/ros/node_handle.h **** const uint8_t MODE_MESSAGE        = 7;
  91:Core/Inc/ros/ros/node_handle.h **** const uint8_t MODE_MSG_CHECKSUM   = 8;    // checksum for msg and topic id
  92:Core/Inc/ros/ros/node_handle.h **** 
  93:Core/Inc/ros/ros/node_handle.h **** 
  94:Core/Inc/ros/ros/node_handle.h **** const uint8_t SERIAL_MSG_TIMEOUT  = 20;   // 20 milliseconds to recieve all of message data
  95:Core/Inc/ros/ros/node_handle.h **** 
  96:Core/Inc/ros/ros/node_handle.h **** using rosserial_msgs::TopicInfo;
  97:Core/Inc/ros/ros/node_handle.h **** 
  98:Core/Inc/ros/ros/node_handle.h **** /* Node Handle */
  99:Core/Inc/ros/ros/node_handle.h **** template<class Hardware,
 100:Core/Inc/ros/ros/node_handle.h ****          int MAX_SUBSCRIBERS = 25,
 101:Core/Inc/ros/ros/node_handle.h ****          int MAX_PUBLISHERS = 25,
 102:Core/Inc/ros/ros/node_handle.h ****          int INPUT_SIZE = 512,
 103:Core/Inc/ros/ros/node_handle.h ****          int OUTPUT_SIZE = 512>
 104:Core/Inc/ros/ros/node_handle.h **** class NodeHandle_ : public NodeHandleBase_
 1176              		.loc 9 104 7 is_stmt 1 view .LVU300
 1177              	.LBB234:
ARM GAS  /tmp/ccaSmKi1.s 			page 36


 1178              	.LBB235:
 1179              	.LBI235:
  50:Core/Inc/ros/ros/node_handle.h **** {
 1180              		.loc 9 50 7 view .LVU301
 1181              	.LBB236:
 1182 0014 4C4D     		ldr	r5, .L88
 1183 0016 4D4B     		ldr	r3, .L88+4
 1184 0018 2B60     		str	r3, [r5]
 1185              	.LVL77:
  50:Core/Inc/ros/ros/node_handle.h **** {
 1186              		.loc 9 50 7 is_stmt 0 view .LVU302
 1187              	.LBE236:
 1188              	.LBE235:
 1189              		.loc 9 104 7 view .LVU303
 1190 001a 4D4B     		ldr	r3, .L88+8
 1191 001c 2B60     		str	r3, [r5]
 1192              	.LVL78:
 1193              	.LBB237:
 1194              	.LBI237:
 1195              		.file 10 "Core/Inc/ros/STM32Hardware.h"
   1:Core/Inc/ros/STM32Hardware.h **** /* 
   2:Core/Inc/ros/STM32Hardware.h ****  * Software License Agreement (BSD License)
   3:Core/Inc/ros/STM32Hardware.h ****  *
   4:Core/Inc/ros/STM32Hardware.h ****  * Copyright (c) 2018, Kenta Yonekura (a.k.a. yoneken)
   5:Core/Inc/ros/STM32Hardware.h ****  * All rights reserved.
   6:Core/Inc/ros/STM32Hardware.h ****  *
   7:Core/Inc/ros/STM32Hardware.h ****  * Redistribution and use in source and binary forms, with or without
   8:Core/Inc/ros/STM32Hardware.h ****  * modification, are permitted provided that the following conditions
   9:Core/Inc/ros/STM32Hardware.h ****  * are met:
  10:Core/Inc/ros/STM32Hardware.h ****  *
  11:Core/Inc/ros/STM32Hardware.h ****  *  * Redistributions of source code must retain the above copyright
  12:Core/Inc/ros/STM32Hardware.h ****  *    notice, this list of conditions and the following disclaimer.
  13:Core/Inc/ros/STM32Hardware.h ****  *  * Redistributions in binary form must reproduce the above
  14:Core/Inc/ros/STM32Hardware.h ****  *    copyright notice, this list of conditions and the following
  15:Core/Inc/ros/STM32Hardware.h ****  *    disclaimer in the documentation and/or other materials provided
  16:Core/Inc/ros/STM32Hardware.h ****  *    with the distribution.
  17:Core/Inc/ros/STM32Hardware.h ****  *  * Neither the name of Willow Garage, Inc. nor the names of its
  18:Core/Inc/ros/STM32Hardware.h ****  *    contributors may be used to endorse or promote prducts derived
  19:Core/Inc/ros/STM32Hardware.h ****  *    from this software without specific prior written permission.
  20:Core/Inc/ros/STM32Hardware.h ****  *
  21:Core/Inc/ros/STM32Hardware.h ****  * THIS SOFTWARE IS PROVIDED BY THE COPYRIGHT HOLDERS AND CONTRIBUTORS
  22:Core/Inc/ros/STM32Hardware.h ****  * "AS IS" AND ANY EXPRESS OR IMPLIED WARRANTIES, INCLUDING, BUT NOT
  23:Core/Inc/ros/STM32Hardware.h ****  * LIMITED TO, THE IMPLIED WARRANTIES OF MERCHANTABILITY AND FITNESS
  24:Core/Inc/ros/STM32Hardware.h ****  * FOR A PARTICULAR PURPOSE ARE DISCLAIMED. IN NO EVENT SHALL THE
  25:Core/Inc/ros/STM32Hardware.h ****  * COPYRIGHT OWNER OR CONTRIBUTORS BE LIABLE FOR ANY DIRECT, INDIRECT,
  26:Core/Inc/ros/STM32Hardware.h ****  * INCIDENTAL, SPECIAL, EXEMPLARY, OR CONSEQUENTIAL DAMAGES (INCLUDING,
  27:Core/Inc/ros/STM32Hardware.h ****  * BUT NOT LIMITED TO, PROCUREMENT OF SUBSTITUTE GOODS OR SERVICES;
  28:Core/Inc/ros/STM32Hardware.h ****  * LOSS OF USE, DATA, OR PROFITS; OR BUSINESS INTERRUPTION) HOWEVER
  29:Core/Inc/ros/STM32Hardware.h ****  * CAUSED AND ON ANY THEORY OF LIABILITY, WHETHER IN CONTRACT, STRICT
  30:Core/Inc/ros/STM32Hardware.h ****  * LIABILITY, OR TORT (INCLUDING NEGLIGENCE OR OTHERWISE) ARISING IN
  31:Core/Inc/ros/STM32Hardware.h ****  * ANY WAY OUT OF THE USE OF THIS SOFTWARE, EVEN IF ADVISED OF THE
  32:Core/Inc/ros/STM32Hardware.h ****  * POSSIBILITY OF SUCH DAMAGE.
  33:Core/Inc/ros/STM32Hardware.h ****  */
  34:Core/Inc/ros/STM32Hardware.h **** 
  35:Core/Inc/ros/STM32Hardware.h **** #ifndef ROS_STM32_HARDWARE_H_
  36:Core/Inc/ros/STM32Hardware.h **** #define ROS_STM32_HARDWARE_H_
  37:Core/Inc/ros/STM32Hardware.h **** 
ARM GAS  /tmp/ccaSmKi1.s 			page 37


  38:Core/Inc/ros/STM32Hardware.h **** #define STM32F4xx  // Change for your device
  39:Core/Inc/ros/STM32Hardware.h **** #ifdef STM32F3xx
  40:Core/Inc/ros/STM32Hardware.h **** #include "stm32f3xx_hal.h"
  41:Core/Inc/ros/STM32Hardware.h **** #include "stm32f3xx_hal_uart.h"
  42:Core/Inc/ros/STM32Hardware.h **** #endif /* STM32F3xx */
  43:Core/Inc/ros/STM32Hardware.h **** #ifdef STM32F4xx
  44:Core/Inc/ros/STM32Hardware.h **** #include "stm32f4xx_hal.h"
  45:Core/Inc/ros/STM32Hardware.h **** #include "stm32f4xx_hal_uart.h"
  46:Core/Inc/ros/STM32Hardware.h **** #endif /* STM32F4xx */
  47:Core/Inc/ros/STM32Hardware.h **** #ifdef STM32F7xx
  48:Core/Inc/ros/STM32Hardware.h **** #include "stm32f7xx_hal.h"
  49:Core/Inc/ros/STM32Hardware.h **** #include "stm32f7xx_hal_uart.h"
  50:Core/Inc/ros/STM32Hardware.h **** #endif /* STM32F7xx */
  51:Core/Inc/ros/STM32Hardware.h **** 
  52:Core/Inc/ros/STM32Hardware.h **** extern UART_HandleTypeDef huart2;
  53:Core/Inc/ros/STM32Hardware.h **** 
  54:Core/Inc/ros/STM32Hardware.h **** class STM32Hardware {
  55:Core/Inc/ros/STM32Hardware.h ****   protected:
  56:Core/Inc/ros/STM32Hardware.h ****     UART_HandleTypeDef *huart;
  57:Core/Inc/ros/STM32Hardware.h **** 
  58:Core/Inc/ros/STM32Hardware.h ****     const static uint16_t rbuflen = 512;
  59:Core/Inc/ros/STM32Hardware.h ****     uint8_t rbuf[rbuflen];
  60:Core/Inc/ros/STM32Hardware.h ****     uint32_t rind;
  61:Core/Inc/ros/STM32Hardware.h ****     inline uint32_t getRdmaInd(void){ return (rbuflen - __HAL_DMA_GET_COUNTER(huart->hdmarx)) & (rb
  62:Core/Inc/ros/STM32Hardware.h **** 
  63:Core/Inc/ros/STM32Hardware.h ****     const static uint16_t tbuflen = 512;
  64:Core/Inc/ros/STM32Hardware.h ****     uint8_t tbuf[tbuflen];
  65:Core/Inc/ros/STM32Hardware.h ****     uint32_t twind, tfind;
  66:Core/Inc/ros/STM32Hardware.h **** 
  67:Core/Inc/ros/STM32Hardware.h ****   public:
  68:Core/Inc/ros/STM32Hardware.h ****     STM32Hardware():
 1196              		.loc 10 68 5 is_stmt 1 view .LVU304
 1197              	.LBB238:
 1198              	.LBB239:
  69:Core/Inc/ros/STM32Hardware.h ****       huart(&huart2), rind(0), twind(0), tfind(0){
 1199              		.loc 10 69 49 is_stmt 0 view .LVU305
 1200 001e 4D4B     		ldr	r3, .L88+12
 1201 0020 6B60     		str	r3, [r5, #4]
 1202 0022 0026     		movs	r6, #0
 1203 0024 C5F80862 		str	r6, [r5, #520]
 1204 0028 C5F80C64 		str	r6, [r5, #1036]
 1205 002c C5F81064 		str	r6, [r5, #1040]
 1206              	.LVL79:
 1207              		.loc 10 69 49 view .LVU306
 1208              	.LBE239:
 1209              	.LBE238:
 1210              	.LBE237:
 1211              		.loc 9 104 7 view .LVU307
 1212 0030 C5F81464 		str	r6, [r5, #1044]
 1213 0034 C5F81864 		str	r6, [r5, #1048]
 1214 0038 C5F81C64 		str	r6, [r5, #1052]
 1215 003c C5F82064 		str	r6, [r5, #1056]
 1216 0040 4FF40077 		mov	r7, #512
 1217 0044 3A46     		mov	r2, r7
 1218 0046 3146     		mov	r1, r6
 1219              	.LVL80:
 1220              		.loc 9 104 7 view .LVU308
ARM GAS  /tmp/ccaSmKi1.s 			page 38


 1221 0048 05F22440 		addw	r0, r5, #1060
 1222              	.LVL81:
 1223              		.loc 9 104 7 view .LVU309
 1224 004c FFF7FEFF 		bl	memset
 1225              	.LVL82:
 1226 0050 3A46     		mov	r2, r7
 1227 0052 3146     		mov	r1, r6
 1228 0054 05F22460 		addw	r0, r5, #1572
 1229 0058 FFF7FEFF 		bl	memset
 1230              	.LVL83:
 1231 005c 6427     		movs	r7, #100
 1232 005e 3A46     		mov	r2, r7
 1233 0060 3146     		mov	r1, r6
 1234 0062 05F62400 		addw	r0, r5, #2084
 1235 0066 FFF7FEFF 		bl	memset
 1236              	.LVL84:
 1237 006a 3A46     		mov	r2, r7
 1238 006c 3146     		mov	r1, r6
 1239 006e 05F68800 		addw	r0, r5, #2184
 1240 0072 FFF7FEFF 		bl	memset
 1241              	.LVL85:
 1242 0076 C5F8EC68 		str	r6, [r5, #2284]
 1243 007a C5F8F068 		str	r6, [r5, #2288]
 1244 007e C5F8F468 		str	r6, [r5, #2292]
 1245 0082 C5F8F868 		str	r6, [r5, #2296]
 1246 0086 C5F8FC68 		str	r6, [r5, #2300]
 1247 008a 85F80069 		strb	r6, [r5, #2304]
 1248 008e C5F80469 		str	r6, [r5, #2308]
 1249 0092 C5F80869 		str	r6, [r5, #2312]
 1250 0096 C5F80C69 		str	r6, [r5, #2316]
 1251 009a 85F81069 		strb	r6, [r5, #2320]
 1252              	.LVL86:
 1253              	.LBB240:
 1254              	.LBI240:
  71:Core/Inc/ros/rosserial_msgs/RequestParam.h ****       ints_length(0), st_ints(), ints(nullptr),
 1255              		.loc 5 71 5 is_stmt 1 view .LVU310
 1256              	.LBB241:
 1257              	.LBB242:
 1258              	.LBB243:
 1259              	.LBI243:
 1260              		.file 11 "Core/Inc/ros/ros/msg.h"
   1:Core/Inc/ros/ros/msg.h **** /*
   2:Core/Inc/ros/ros/msg.h ****  * Software License Agreement (BSD License)
   3:Core/Inc/ros/ros/msg.h ****  *
   4:Core/Inc/ros/ros/msg.h ****  * Copyright (c) 2011, Willow Garage, Inc.
   5:Core/Inc/ros/ros/msg.h ****  * All rights reserved.
   6:Core/Inc/ros/ros/msg.h ****  *
   7:Core/Inc/ros/ros/msg.h ****  * Redistribution and use in source and binary forms, with or without
   8:Core/Inc/ros/ros/msg.h ****  * modification, are permitted provided that the following conditions
   9:Core/Inc/ros/ros/msg.h ****  * are met:
  10:Core/Inc/ros/ros/msg.h ****  *
  11:Core/Inc/ros/ros/msg.h ****  *  * Redistributions of source code must retain the above copyright
  12:Core/Inc/ros/ros/msg.h ****  *    notice, this list of conditions and the following disclaimer.
  13:Core/Inc/ros/ros/msg.h ****  *  * Redistributions in binary form must reproduce the above
  14:Core/Inc/ros/ros/msg.h ****  *    copyright notice, this list of conditions and the following
  15:Core/Inc/ros/ros/msg.h ****  *    disclaimer in the documentation and/or other materials provided
  16:Core/Inc/ros/ros/msg.h ****  *    with the distribution.
ARM GAS  /tmp/ccaSmKi1.s 			page 39


  17:Core/Inc/ros/ros/msg.h ****  *  * Neither the name of Willow Garage, Inc. nor the names of its
  18:Core/Inc/ros/ros/msg.h ****  *    contributors may be used to endorse or promote prducts derived
  19:Core/Inc/ros/ros/msg.h ****  *    from this software without specific prior written permission.
  20:Core/Inc/ros/ros/msg.h ****  *
  21:Core/Inc/ros/ros/msg.h ****  * THIS SOFTWARE IS PROVIDED BY THE COPYRIGHT HOLDERS AND CONTRIBUTORS
  22:Core/Inc/ros/ros/msg.h ****  * "AS IS" AND ANY EXPRESS OR IMPLIED WARRANTIES, INCLUDING, BUT NOT
  23:Core/Inc/ros/ros/msg.h ****  * LIMITED TO, THE IMPLIED WARRANTIES OF MERCHANTABILITY AND FITNESS
  24:Core/Inc/ros/ros/msg.h ****  * FOR A PARTICULAR PURPOSE ARE DISCLAIMED. IN NO EVENT SHALL THE
  25:Core/Inc/ros/ros/msg.h ****  * COPYRIGHT OWNER OR CONTRIBUTORS BE LIABLE FOR ANY DIRECT, INDIRECT,
  26:Core/Inc/ros/ros/msg.h ****  * INCIDENTAL, SPECIAL, EXEMPLARY, OR CONSEQUENTIAL DAMAGES (INCLUDING,
  27:Core/Inc/ros/ros/msg.h ****  * BUT NOT LIMITED TO, PROCUREMENT OF SUBSTITUTE GOODS OR SERVICES;
  28:Core/Inc/ros/ros/msg.h ****  * LOSS OF USE, DATA, OR PROFITS; OR BUSINESS INTERRUPTION) HOWEVER
  29:Core/Inc/ros/ros/msg.h ****  * CAUSED AND ON ANY THEORY OF LIABILITY, WHETHER IN CONTRACT, STRICT
  30:Core/Inc/ros/ros/msg.h ****  * LIABILITY, OR TORT (INCLUDING NEGLIGENCE OR OTHERWISE) ARISING IN
  31:Core/Inc/ros/ros/msg.h ****  * ANY WAY OUT OF THE USE OF THIS SOFTWARE, EVEN IF ADVISED OF THE
  32:Core/Inc/ros/ros/msg.h ****  * POSSIBILITY OF SUCH DAMAGE.
  33:Core/Inc/ros/ros/msg.h ****  */
  34:Core/Inc/ros/ros/msg.h **** 
  35:Core/Inc/ros/ros/msg.h **** #ifndef _ROS_MSG_H_
  36:Core/Inc/ros/ros/msg.h **** #define _ROS_MSG_H_
  37:Core/Inc/ros/ros/msg.h **** 
  38:Core/Inc/ros/ros/msg.h **** #include <stdint.h>
  39:Core/Inc/ros/ros/msg.h **** #include <stddef.h>
  40:Core/Inc/ros/ros/msg.h **** #include <cstring>
  41:Core/Inc/ros/ros/msg.h **** 
  42:Core/Inc/ros/ros/msg.h **** namespace ros
  43:Core/Inc/ros/ros/msg.h **** {
  44:Core/Inc/ros/ros/msg.h **** 
  45:Core/Inc/ros/ros/msg.h **** /* Base Message Type */
  46:Core/Inc/ros/ros/msg.h **** class Msg
 1261              		.loc 11 46 7 view .LVU311
 1262              	.LBB244:
 1263 009e 2E4B     		ldr	r3, .L88+16
 1264 00a0 C5F81439 		str	r3, [r5, #2324]
 1265              	.LVL87:
 1266              		.loc 11 46 7 is_stmt 0 view .LVU312
 1267              	.LBE244:
 1268              	.LBE243:
  74:Core/Inc/ros/rosserial_msgs/RequestParam.h ****     {
 1269              		.loc 5 74 55 view .LVU313
 1270 00a4 2D4A     		ldr	r2, .L88+20
 1271 00a6 C5F81429 		str	r2, [r5, #2324]
 1272 00aa C5F81869 		str	r6, [r5, #2328]
 1273 00ae C5F81C69 		str	r6, [r5, #2332]
 1274 00b2 C5F82069 		str	r6, [r5, #2336]
 1275 00b6 C5F82469 		str	r6, [r5, #2340]
 1276 00ba 05F62812 		addw	r2, r5, #2344
 1277 00be 0021     		movs	r1, #0
 1278 00c0 1160     		str	r1, [r2]	@ float
 1279 00c2 C5F82C69 		str	r6, [r5, #2348]
 1280 00c6 C5F83069 		str	r6, [r5, #2352]
 1281 00ca C5F83469 		str	r6, [r5, #2356]
 1282 00ce C5F83869 		str	r6, [r5, #2360]
 1283              	.LVL88:
  74:Core/Inc/ros/rosserial_msgs/RequestParam.h ****     {
 1284              		.loc 5 74 55 view .LVU314
 1285              	.LBE242:
ARM GAS  /tmp/ccaSmKi1.s 			page 40


 1286              	.LBE241:
 1287              	.LBE240:
 1288              	.LBE234:
 1289              	.LBE233:
 1290              	.LBB245:
 1291              	.LBI245:
  17:Core/Inc/ros/actuators/Vector4.h ****       quad()
 1292              		.loc 6 17 5 is_stmt 1 view .LVU315
 1293              	.LBB246:
 1294              	.LBB247:
 1295              	.LBB248:
 1296              	.LBI248:
 1297              		.loc 11 46 7 view .LVU316
 1298              	.LBB249:
 1299 00d2 234A     		ldr	r2, .L88+24
 1300 00d4 1360     		str	r3, [r2]
 1301              	.LVL89:
 1302              		.loc 11 46 7 is_stmt 0 view .LVU317
 1303              	.LBE249:
 1304              	.LBE248:
  18:Core/Inc/ros/actuators/Vector4.h ****     {
 1305              		.loc 6 18 12 view .LVU318
 1306 00d6 234B     		ldr	r3, .L88+28
 1307 00d8 42F8043B 		str	r3, [r2], #4
 1308 00dc 0323     		movs	r3, #3
 1309              	.L78:
  18:Core/Inc/ros/actuators/Vector4.h ****     {
 1310              		.loc 6 18 12 is_stmt 1 view .LVU319
 1311 00de 002B     		cmp	r3, #0
 1312 00e0 04DB     		blt	.L77
 1313 00e2 0021     		movs	r1, #0
 1314 00e4 42F8041B 		str	r1, [r2], #4	@ float
  18:Core/Inc/ros/actuators/Vector4.h ****     {
 1315              		.loc 6 18 12 view .LVU320
 1316 00e8 013B     		subs	r3, r3, #1
 1317 00ea F8E7     		b	.L78
 1318              	.L77:
 1319              	.LVL90:
  18:Core/Inc/ros/actuators/Vector4.h ****     {
 1320              		.loc 6 18 12 is_stmt 0 view .LVU321
 1321              	.LBE247:
 1322              	.LBE246:
 1323              	.LBE245:
 1324              	.LBB250:
 1325              	.LBI250:
  17:Core/Inc/ros/actuators/Vector2.h ****       dual()
 1326              		.loc 7 17 5 is_stmt 1 view .LVU322
 1327              	.LBB251:
 1328              	.LBB252:
 1329              	.LBB253:
 1330              	.LBI253:
 1331              		.loc 11 46 7 view .LVU323
 1332              	.LBB254:
 1333 00ec 1E4B     		ldr	r3, .L88+32
 1334 00ee 1A4A     		ldr	r2, .L88+16
 1335 00f0 1A60     		str	r2, [r3]
 1336              	.LVL91:
ARM GAS  /tmp/ccaSmKi1.s 			page 41


 1337              		.loc 11 46 7 is_stmt 0 view .LVU324
 1338              	.LBE254:
 1339              	.LBE253:
  18:Core/Inc/ros/actuators/Vector2.h ****     {
 1340              		.loc 7 18 12 view .LVU325
 1341 00f2 1E4A     		ldr	r2, .L88+36
 1342 00f4 43F8042B 		str	r2, [r3], #4
 1343 00f8 03E0     		b	.L80
 1344              	.LVL92:
 1345              	.L87:
  18:Core/Inc/ros/actuators/Vector2.h ****     {
 1346              		.loc 7 18 12 view .LVU326
 1347 00fa 0022     		movs	r2, #0
 1348 00fc 43F8042B 		str	r2, [r3], #4	@ float
  18:Core/Inc/ros/actuators/Vector2.h ****     {
 1349              		.loc 7 18 12 is_stmt 1 view .LVU327
 1350 0100 013C     		subs	r4, r4, #1
 1351              	.L80:
  18:Core/Inc/ros/actuators/Vector2.h ****     {
 1352              		.loc 7 18 12 view .LVU328
 1353 0102 002C     		cmp	r4, #0
 1354 0104 F9DA     		bge	.L87
 1355              	.LVL93:
  18:Core/Inc/ros/actuators/Vector2.h ****     {
 1356              		.loc 7 18 12 is_stmt 0 view .LVU329
 1357              	.LBE252:
 1358              	.LBE251:
 1359              	.LBE250:
 1360              	.LBB255:
 1361              	.LBI255:
 1362              		.file 12 "Core/Inc/ros/ros/publisher.h"
   1:Core/Inc/ros/ros/publisher.h **** /*
   2:Core/Inc/ros/ros/publisher.h ****  * Software License Agreement (BSD License)
   3:Core/Inc/ros/ros/publisher.h ****  *
   4:Core/Inc/ros/ros/publisher.h ****  * Copyright (c) 2011, Willow Garage, Inc.
   5:Core/Inc/ros/ros/publisher.h ****  * All rights reserved.
   6:Core/Inc/ros/ros/publisher.h ****  *
   7:Core/Inc/ros/ros/publisher.h ****  * Redistribution and use in source and binary forms, with or without
   8:Core/Inc/ros/ros/publisher.h ****  * modification, are permitted provided that the following conditions
   9:Core/Inc/ros/ros/publisher.h ****  * are met:
  10:Core/Inc/ros/ros/publisher.h ****  *
  11:Core/Inc/ros/ros/publisher.h ****  *  * Redistributions of source code must retain the above copyright
  12:Core/Inc/ros/ros/publisher.h ****  *    notice, this list of conditions and the following disclaimer.
  13:Core/Inc/ros/ros/publisher.h ****  *  * Redistributions in binary form must reproduce the above
  14:Core/Inc/ros/ros/publisher.h ****  *    copyright notice, this list of conditions and the following
  15:Core/Inc/ros/ros/publisher.h ****  *    disclaimer in the documentation and/or other materials provided
  16:Core/Inc/ros/ros/publisher.h ****  *    with the distribution.
  17:Core/Inc/ros/ros/publisher.h ****  *  * Neither the name of Willow Garage, Inc. nor the names of its
  18:Core/Inc/ros/ros/publisher.h ****  *    contributors may be used to endorse or promote prducts derived
  19:Core/Inc/ros/ros/publisher.h ****  *    from this software without specific prior written permission.
  20:Core/Inc/ros/ros/publisher.h ****  *
  21:Core/Inc/ros/ros/publisher.h ****  * THIS SOFTWARE IS PROVIDED BY THE COPYRIGHT HOLDERS AND CONTRIBUTORS
  22:Core/Inc/ros/ros/publisher.h ****  * "AS IS" AND ANY EXPRESS OR IMPLIED WARRANTIES, INCLUDING, BUT NOT
  23:Core/Inc/ros/ros/publisher.h ****  * LIMITED TO, THE IMPLIED WARRANTIES OF MERCHANTABILITY AND FITNESS
  24:Core/Inc/ros/ros/publisher.h ****  * FOR A PARTICULAR PURPOSE ARE DISCLAIMED. IN NO EVENT SHALL THE
  25:Core/Inc/ros/ros/publisher.h ****  * COPYRIGHT OWNER OR CONTRIBUTORS BE LIABLE FOR ANY DIRECT, INDIRECT,
  26:Core/Inc/ros/ros/publisher.h ****  * INCIDENTAL, SPECIAL, EXEMPLARY, OR CONSEQUENTIAL DAMAGES (INCLUDING,
ARM GAS  /tmp/ccaSmKi1.s 			page 42


  27:Core/Inc/ros/ros/publisher.h ****  * BUT NOT LIMITED TO, PROCUREMENT OF SUBSTITUTE GOODS OR SERVICES;
  28:Core/Inc/ros/ros/publisher.h ****  * LOSS OF USE, DATA, OR PROFITS; OR BUSINESS INTERRUPTION) HOWEVER
  29:Core/Inc/ros/ros/publisher.h ****  * CAUSED AND ON ANY THEORY OF LIABILITY, WHETHER IN CONTRACT, STRICT
  30:Core/Inc/ros/ros/publisher.h ****  * LIABILITY, OR TORT (INCLUDING NEGLIGENCE OR OTHERWISE) ARISING IN
  31:Core/Inc/ros/ros/publisher.h ****  * ANY WAY OUT OF THE USE OF THIS SOFTWARE, EVEN IF ADVISED OF THE
  32:Core/Inc/ros/ros/publisher.h ****  * POSSIBILITY OF SUCH DAMAGE.
  33:Core/Inc/ros/ros/publisher.h ****  */
  34:Core/Inc/ros/ros/publisher.h **** 
  35:Core/Inc/ros/ros/publisher.h **** #ifndef _ROS_PUBLISHER_H_
  36:Core/Inc/ros/ros/publisher.h **** #define _ROS_PUBLISHER_H_
  37:Core/Inc/ros/ros/publisher.h **** 
  38:Core/Inc/ros/ros/publisher.h **** #include "rosserial_msgs/TopicInfo.h"
  39:Core/Inc/ros/ros/publisher.h **** #include "ros/node_handle.h"
  40:Core/Inc/ros/ros/publisher.h **** 
  41:Core/Inc/ros/ros/publisher.h **** namespace ros
  42:Core/Inc/ros/ros/publisher.h **** {
  43:Core/Inc/ros/ros/publisher.h **** 
  44:Core/Inc/ros/ros/publisher.h **** /* Generic Publisher */
  45:Core/Inc/ros/ros/publisher.h **** class Publisher
  46:Core/Inc/ros/ros/publisher.h **** {
  47:Core/Inc/ros/ros/publisher.h **** public:
  48:Core/Inc/ros/ros/publisher.h ****   Publisher(const char * topic_name, Msg * msg, int endpoint = rosserial_msgs::TopicInfo::ID_PUBLIS
 1363              		.loc 12 48 3 is_stmt 1 view .LVU330
 1364              	.LBB256:
 1365              	.LBB257:
  49:Core/Inc/ros/ros/publisher.h ****     topic_(topic_name),
  50:Core/Inc/ros/ros/publisher.h ****     msg_(msg),
  51:Core/Inc/ros/ros/publisher.h ****     endpoint_(endpoint) {};
 1366              		.loc 12 51 23 is_stmt 0 view .LVU331
 1367 0106 1A4B     		ldr	r3, .L88+40
 1368 0108 1A4A     		ldr	r2, .L88+44
 1369 010a 1A60     		str	r2, [r3]
 1370 010c 144A     		ldr	r2, .L88+24
 1371 010e 5A60     		str	r2, [r3, #4]
 1372 0110 0022     		movs	r2, #0
 1373 0112 1A61     		str	r2, [r3, #16]
 1374              	.LVL94:
 1375              		.loc 12 51 23 view .LVU332
 1376              	.LBE257:
 1377              	.LBE256:
 1378              	.LBE255:
 1379              	.LBB258:
 1380              	.LBI258:
  48:Core/Inc/ros/ros/publisher.h ****     topic_(topic_name),
 1381              		.loc 12 48 3 is_stmt 1 view .LVU333
 1382              	.LBB259:
 1383              	.LBB260:
 1384              		.loc 12 51 23 is_stmt 0 view .LVU334
 1385 0114 184B     		ldr	r3, .L88+48
 1386 0116 1949     		ldr	r1, .L88+52
 1387 0118 1960     		str	r1, [r3]
 1388 011a 1349     		ldr	r1, .L88+32
 1389 011c 5960     		str	r1, [r3, #4]
 1390 011e 1A61     		str	r2, [r3, #16]
 1391              	.LVL95:
 1392              		.loc 12 51 23 view .LVU335
 1393              	.LBE260:
ARM GAS  /tmp/ccaSmKi1.s 			page 43


 1394              	.LBE259:
 1395              	.LBE258:
 1396              	.LBB261:
 1397              	.LBI261:
 1398              		.file 13 "Core/Inc/ros/ros/subscriber.h"
   1:Core/Inc/ros/ros/subscriber.h **** /*
   2:Core/Inc/ros/ros/subscriber.h ****  * Software License Agreement (BSD License)
   3:Core/Inc/ros/ros/subscriber.h ****  *
   4:Core/Inc/ros/ros/subscriber.h ****  * Copyright (c) 2011, Willow Garage, Inc.
   5:Core/Inc/ros/ros/subscriber.h ****  * All rights reserved.
   6:Core/Inc/ros/ros/subscriber.h ****  *
   7:Core/Inc/ros/ros/subscriber.h ****  * Redistribution and use in source and binary forms, with or without
   8:Core/Inc/ros/ros/subscriber.h ****  * modification, are permitted provided that the following conditions
   9:Core/Inc/ros/ros/subscriber.h ****  * are met:
  10:Core/Inc/ros/ros/subscriber.h ****  *
  11:Core/Inc/ros/ros/subscriber.h ****  *  * Redistributions of source code must retain the above copyright
  12:Core/Inc/ros/ros/subscriber.h ****  *    notice, this list of conditions and the following disclaimer.
  13:Core/Inc/ros/ros/subscriber.h ****  *  * Redistributions in binary form must reproduce the above
  14:Core/Inc/ros/ros/subscriber.h ****  *    copyright notice, this list of conditions and the following
  15:Core/Inc/ros/ros/subscriber.h ****  *    disclaimer in the documentation and/or other materials provided
  16:Core/Inc/ros/ros/subscriber.h ****  *    with the distribution.
  17:Core/Inc/ros/ros/subscriber.h ****  *  * Neither the name of Willow Garage, Inc. nor the names of its
  18:Core/Inc/ros/ros/subscriber.h ****  *    contributors may be used to endorse or promote prducts derived
  19:Core/Inc/ros/ros/subscriber.h ****  *    from this software without specific prior written permission.
  20:Core/Inc/ros/ros/subscriber.h ****  *
  21:Core/Inc/ros/ros/subscriber.h ****  * THIS SOFTWARE IS PROVIDED BY THE COPYRIGHT HOLDERS AND CONTRIBUTORS
  22:Core/Inc/ros/ros/subscriber.h ****  * "AS IS" AND ANY EXPRESS OR IMPLIED WARRANTIES, INCLUDING, BUT NOT
  23:Core/Inc/ros/ros/subscriber.h ****  * LIMITED TO, THE IMPLIED WARRANTIES OF MERCHANTABILITY AND FITNESS
  24:Core/Inc/ros/ros/subscriber.h ****  * FOR A PARTICULAR PURPOSE ARE DISCLAIMED. IN NO EVENT SHALL THE
  25:Core/Inc/ros/ros/subscriber.h ****  * COPYRIGHT OWNER OR CONTRIBUTORS BE LIABLE FOR ANY DIRECT, INDIRECT,
  26:Core/Inc/ros/ros/subscriber.h ****  * INCIDENTAL, SPECIAL, EXEMPLARY, OR CONSEQUENTIAL DAMAGES (INCLUDING,
  27:Core/Inc/ros/ros/subscriber.h ****  * BUT NOT LIMITED TO, PROCUREMENT OF SUBSTITUTE GOODS OR SERVICES;
  28:Core/Inc/ros/ros/subscriber.h ****  * LOSS OF USE, DATA, OR PROFITS; OR BUSINESS INTERRUPTION) HOWEVER
  29:Core/Inc/ros/ros/subscriber.h ****  * CAUSED AND ON ANY THEORY OF LIABILITY, WHETHER IN CONTRACT, STRICT
  30:Core/Inc/ros/ros/subscriber.h ****  * LIABILITY, OR TORT (INCLUDING NEGLIGENCE OR OTHERWISE) ARISING IN
  31:Core/Inc/ros/ros/subscriber.h ****  * ANY WAY OUT OF THE USE OF THIS SOFTWARE, EVEN IF ADVISED OF THE
  32:Core/Inc/ros/ros/subscriber.h ****  * POSSIBILITY OF SUCH DAMAGE.
  33:Core/Inc/ros/ros/subscriber.h ****  */
  34:Core/Inc/ros/ros/subscriber.h **** 
  35:Core/Inc/ros/ros/subscriber.h **** #ifndef ROS_SUBSCRIBER_H_
  36:Core/Inc/ros/ros/subscriber.h **** #define ROS_SUBSCRIBER_H_
  37:Core/Inc/ros/ros/subscriber.h **** 
  38:Core/Inc/ros/ros/subscriber.h **** #include "rosserial_msgs/TopicInfo.h"
  39:Core/Inc/ros/ros/subscriber.h **** 
  40:Core/Inc/ros/ros/subscriber.h **** namespace ros
  41:Core/Inc/ros/ros/subscriber.h **** {
  42:Core/Inc/ros/ros/subscriber.h **** 
  43:Core/Inc/ros/ros/subscriber.h **** /* Base class for objects subscribers. */
  44:Core/Inc/ros/ros/subscriber.h **** class Subscriber_
  45:Core/Inc/ros/ros/subscriber.h **** {
  46:Core/Inc/ros/ros/subscriber.h **** public:
  47:Core/Inc/ros/ros/subscriber.h ****   virtual void callback(unsigned char *data) = 0;
  48:Core/Inc/ros/ros/subscriber.h ****   virtual int getEndpointType() = 0;
  49:Core/Inc/ros/ros/subscriber.h **** 
  50:Core/Inc/ros/ros/subscriber.h ****   // id_ is set by NodeHandle when we advertise
  51:Core/Inc/ros/ros/subscriber.h ****   int id_;
  52:Core/Inc/ros/ros/subscriber.h **** 
ARM GAS  /tmp/ccaSmKi1.s 			page 44


  53:Core/Inc/ros/ros/subscriber.h ****   virtual const char * getMsgType() = 0;
  54:Core/Inc/ros/ros/subscriber.h ****   virtual const char * getMsgMD5() = 0;
  55:Core/Inc/ros/ros/subscriber.h ****   const char * topic_;
  56:Core/Inc/ros/ros/subscriber.h **** };
  57:Core/Inc/ros/ros/subscriber.h **** 
  58:Core/Inc/ros/ros/subscriber.h **** /* Bound function subscriber. */
  59:Core/Inc/ros/ros/subscriber.h **** template<typename MsgT, typename ObjT = void>
  60:Core/Inc/ros/ros/subscriber.h **** class Subscriber: public Subscriber_
  61:Core/Inc/ros/ros/subscriber.h **** {
  62:Core/Inc/ros/ros/subscriber.h **** public:
  63:Core/Inc/ros/ros/subscriber.h ****   typedef void(ObjT::*CallbackT)(const MsgT&);
  64:Core/Inc/ros/ros/subscriber.h ****   MsgT msg;
  65:Core/Inc/ros/ros/subscriber.h **** 
  66:Core/Inc/ros/ros/subscriber.h ****   Subscriber(const char * topic_name, CallbackT cb, ObjT* obj, int endpoint = rosserial_msgs::Topic
  67:Core/Inc/ros/ros/subscriber.h ****     cb_(cb),
  68:Core/Inc/ros/ros/subscriber.h ****     obj_(obj),
  69:Core/Inc/ros/ros/subscriber.h ****     endpoint_(endpoint)
  70:Core/Inc/ros/ros/subscriber.h ****   {
  71:Core/Inc/ros/ros/subscriber.h ****     topic_ = topic_name;
  72:Core/Inc/ros/ros/subscriber.h ****   };
  73:Core/Inc/ros/ros/subscriber.h **** 
  74:Core/Inc/ros/ros/subscriber.h ****   virtual void callback(unsigned char* data) override
  75:Core/Inc/ros/ros/subscriber.h ****   {
  76:Core/Inc/ros/ros/subscriber.h ****     msg.deserialize(data);
  77:Core/Inc/ros/ros/subscriber.h ****     (obj_->*cb_)(msg);
  78:Core/Inc/ros/ros/subscriber.h ****   }
  79:Core/Inc/ros/ros/subscriber.h **** 
  80:Core/Inc/ros/ros/subscriber.h ****   virtual const char * getMsgType() override
  81:Core/Inc/ros/ros/subscriber.h ****   {
  82:Core/Inc/ros/ros/subscriber.h ****     return this->msg.getType();
  83:Core/Inc/ros/ros/subscriber.h ****   }
  84:Core/Inc/ros/ros/subscriber.h ****   virtual const char * getMsgMD5() override
  85:Core/Inc/ros/ros/subscriber.h ****   {
  86:Core/Inc/ros/ros/subscriber.h ****     return this->msg.getMD5();
  87:Core/Inc/ros/ros/subscriber.h ****   }
  88:Core/Inc/ros/ros/subscriber.h ****   virtual int getEndpointType() override
  89:Core/Inc/ros/ros/subscriber.h ****   {
  90:Core/Inc/ros/ros/subscriber.h ****     return endpoint_;
  91:Core/Inc/ros/ros/subscriber.h ****   }
  92:Core/Inc/ros/ros/subscriber.h **** 
  93:Core/Inc/ros/ros/subscriber.h **** private:
  94:Core/Inc/ros/ros/subscriber.h ****   CallbackT cb_;
  95:Core/Inc/ros/ros/subscriber.h ****   ObjT* obj_;
  96:Core/Inc/ros/ros/subscriber.h ****   int endpoint_;
  97:Core/Inc/ros/ros/subscriber.h **** };
  98:Core/Inc/ros/ros/subscriber.h **** 
  99:Core/Inc/ros/ros/subscriber.h **** /* Standalone function subscriber. */
 100:Core/Inc/ros/ros/subscriber.h **** template<typename MsgT>
 101:Core/Inc/ros/ros/subscriber.h **** class Subscriber<MsgT, void>: public Subscriber_
 102:Core/Inc/ros/ros/subscriber.h **** {
 103:Core/Inc/ros/ros/subscriber.h **** public:
 104:Core/Inc/ros/ros/subscriber.h ****   typedef void(*CallbackT)(const MsgT&);
 105:Core/Inc/ros/ros/subscriber.h ****   MsgT msg;
 106:Core/Inc/ros/ros/subscriber.h **** 
 107:Core/Inc/ros/ros/subscriber.h ****   Subscriber(const char * topic_name, CallbackT cb, int endpoint = rosserial_msgs::TopicInfo::ID_SU
 1399              		.loc 13 107 3 is_stmt 1 view .LVU336
 1400              	.LBB262:
ARM GAS  /tmp/ccaSmKi1.s 			page 45


 1401              	.LBB263:
 1402              	.LBB264:
 1403              	.LBI264:
  44:Core/Inc/ros/ros/subscriber.h **** {
 1404              		.loc 13 44 7 view .LVU337
 1405              	.LBB265:
 1406 0120 174B     		ldr	r3, .L88+56
 1407 0122 1849     		ldr	r1, .L88+60
 1408 0124 1960     		str	r1, [r3]
 1409              	.LVL96:
  44:Core/Inc/ros/ros/subscriber.h **** {
 1410              		.loc 13 44 7 is_stmt 0 view .LVU338
 1411              	.LBE265:
 1412              	.LBE264:
 108:Core/Inc/ros/ros/subscriber.h ****     cb_(cb),
 109:Core/Inc/ros/ros/subscriber.h ****     endpoint_(endpoint)
 1413              		.loc 13 109 23 view .LVU339
 1414 0126 1849     		ldr	r1, .L88+64
 1415 0128 1960     		str	r1, [r3]
 1416              	.LVL97:
 1417              	.LBB266:
 1418              	.LBI266:
  24:Core/Inc/ros/actuators/motor_driver_param.h ****       id(0),
 1419              		.loc 1 24 5 is_stmt 1 view .LVU340
 1420              	.LBB267:
 1421              	.LBB268:
 1422              	.LBB269:
 1423              	.LBI269:
 1424              		.loc 11 46 7 view .LVU341
 1425              	.LBB270:
 1426 012a 0B49     		ldr	r1, .L88+16
 1427 012c D960     		str	r1, [r3, #12]
 1428              	.LVL98:
 1429              		.loc 11 46 7 is_stmt 0 view .LVU342
 1430              	.LBE270:
 1431              	.LBE269:
  28:Core/Inc/ros/actuators/motor_driver_param.h ****     {
 1432              		.loc 1 28 12 view .LVU343
 1433 012e 1749     		ldr	r1, .L88+68
 1434 0130 D960     		str	r1, [r3, #12]
 1435 0132 1A74     		strb	r2, [r3, #16]
 1436 0134 5A74     		strb	r2, [r3, #17]
 1437 0136 9A74     		strb	r2, [r3, #18]
 1438 0138 9A82     		strh	r2, [r3, #20]	@ movhi
 1439              	.LVL99:
  28:Core/Inc/ros/actuators/motor_driver_param.h ****     {
 1440              		.loc 1 28 12 view .LVU344
 1441              	.LBE268:
 1442              	.LBE267:
 1443              	.LBE266:
 1444              		.loc 13 109 23 view .LVU345
 1445 013a 154A     		ldr	r2, .L88+72
 1446 013c 9A61     		str	r2, [r3, #24]
 1447 013e 0122     		movs	r2, #1
 1448 0140 DA61     		str	r2, [r3, #28]
 110:Core/Inc/ros/ros/subscriber.h ****   {
 111:Core/Inc/ros/ros/subscriber.h ****     topic_ = topic_name;
ARM GAS  /tmp/ccaSmKi1.s 			page 46


 1449              		.loc 13 111 12 view .LVU346
 1450 0142 144A     		ldr	r2, .L88+76
 1451 0144 9A60     		str	r2, [r3, #8]
 1452              	.LVL100:
 1453              		.loc 13 111 12 view .LVU347
 1454              	.LBE263:
 1455              	.LBE262:
 1456              	.LBE261:
 1457              		.loc 8 54 1 view .LVU348
 1458 0146 64E7     		b	.L75
 1459              	.L89:
 1460              		.align	2
 1461              	.L88:
 1462 0148 00000000 		.word	.LANCHOR3
 1463 014c 08000000 		.word	_ZTVN3ros15NodeHandleBase_E+8
 1464 0150 08000000 		.word	_ZTVN3ros11NodeHandle_I13STM32HardwareLi25ELi25ELi512ELi512EEE+8
 1465 0154 00000000 		.word	huart2
 1466 0158 08000000 		.word	_ZTVN3ros3MsgE+8
 1467 015c 08000000 		.word	_ZTVN14rosserial_msgs20RequestParamResponseE+8
 1468 0160 00000000 		.word	.LANCHOR1
 1469 0164 08000000 		.word	_ZTVN9actuators7Vector4E+8
 1470 0168 00000000 		.word	.LANCHOR2
 1471 016c 08000000 		.word	_ZTVN9actuators7Vector2E+8
 1472 0170 00000000 		.word	.LANCHOR4
 1473 0174 00000000 		.word	.LC13
 1474 0178 00000000 		.word	.LANCHOR5
 1475 017c 14000000 		.word	.LC14
 1476 0180 00000000 		.word	.LANCHOR6
 1477 0184 08000000 		.word	_ZTVN3ros11Subscriber_E+8
 1478 0188 08000000 		.word	_ZTVN3ros10SubscriberIN9actuators18motor_driver_paramEvEE+8
 1479 018c 08000000 		.word	_ZTVN9actuators18motor_driver_paramE+8
 1480 0190 00000000 		.word	_Z19motor_base_callbackRKN9actuators18motor_driver_paramE
 1481 0194 28000000 		.word	.LC15
 1482              		.cfi_endproc
 1483              	.LFE578:
 1485              		.section	.text._ZN3ros10SubscriberIN9actuators18motor_driver_paramEvE8callbackEPh,"axG",%progbits,
 1486              		.align	1
 1487              		.weak	_ZN3ros10SubscriberIN9actuators18motor_driver_paramEvE8callbackEPh
 1488              		.syntax unified
 1489              		.thumb
 1490              		.thumb_func
 1491              		.fpu fpv4-sp-d16
 1493              	_ZN3ros10SubscriberIN9actuators18motor_driver_paramEvE8callbackEPh:
 1494              	.LVL101:
 1495              	.LFB579:
 112:Core/Inc/ros/ros/subscriber.h ****   };
 113:Core/Inc/ros/ros/subscriber.h **** 
 114:Core/Inc/ros/ros/subscriber.h ****   virtual void callback(unsigned char* data) override
 1496              		.loc 13 114 16 is_stmt 1 view -0
 1497              		.cfi_startproc
 1498              		@ args = 0, pretend = 0, frame = 0
 1499              		@ frame_needed = 0, uses_anonymous_args = 0
 1500              		.loc 13 114 16 is_stmt 0 view .LVU350
 1501 0000 08B5     		push	{r3, lr}
 1502              	.LCFI7:
 1503              		.cfi_def_cfa_offset 8
 1504              		.cfi_offset 3, -8
ARM GAS  /tmp/ccaSmKi1.s 			page 47


 1505              		.cfi_offset 14, -4
 1506              	.LVL102:
 1507              	.LBB271:
 1508              	.LBI271:
  47:Core/Inc/ros/actuators/motor_driver_param.h ****     {
 1509              		.loc 1 47 17 is_stmt 1 view .LVU351
 1510              	.LBB272:
  49:Core/Inc/ros/actuators/motor_driver_param.h ****       this->id =  ((uint8_t) (*(inbuffer + offset)));
 1511              		.loc 1 49 7 view .LVU352
  50:Core/Inc/ros/actuators/motor_driver_param.h ****       offset += sizeof(this->id);
 1512              		.loc 1 50 7 view .LVU353
  50:Core/Inc/ros/actuators/motor_driver_param.h ****       offset += sizeof(this->id);
 1513              		.loc 1 50 31 is_stmt 0 view .LVU354
 1514 0002 0B78     		ldrb	r3, [r1]	@ zero_extendqisi2
  50:Core/Inc/ros/actuators/motor_driver_param.h ****       offset += sizeof(this->id);
 1515              		.loc 1 50 16 view .LVU355
 1516 0004 0374     		strb	r3, [r0, #16]
  51:Core/Inc/ros/actuators/motor_driver_param.h ****       this->dir1 =  ((uint8_t) (*(inbuffer + offset)));
 1517              		.loc 1 51 7 is_stmt 1 view .LVU356
 1518              	.LVL103:
  52:Core/Inc/ros/actuators/motor_driver_param.h ****       offset += sizeof(this->dir1);
 1519              		.loc 1 52 7 view .LVU357
  52:Core/Inc/ros/actuators/motor_driver_param.h ****       offset += sizeof(this->dir1);
 1520              		.loc 1 52 33 is_stmt 0 view .LVU358
 1521 0006 4B78     		ldrb	r3, [r1, #1]	@ zero_extendqisi2
  52:Core/Inc/ros/actuators/motor_driver_param.h ****       offset += sizeof(this->dir1);
 1522              		.loc 1 52 18 view .LVU359
 1523 0008 4374     		strb	r3, [r0, #17]
  53:Core/Inc/ros/actuators/motor_driver_param.h ****       this->dir2 =  ((uint8_t) (*(inbuffer + offset)));
 1524              		.loc 1 53 7 is_stmt 1 view .LVU360
 1525              	.LVL104:
  54:Core/Inc/ros/actuators/motor_driver_param.h ****       offset += sizeof(this->dir2);
 1526              		.loc 1 54 7 view .LVU361
  54:Core/Inc/ros/actuators/motor_driver_param.h ****       offset += sizeof(this->dir2);
 1527              		.loc 1 54 33 is_stmt 0 view .LVU362
 1528 000a 8B78     		ldrb	r3, [r1, #2]	@ zero_extendqisi2
  54:Core/Inc/ros/actuators/motor_driver_param.h ****       offset += sizeof(this->dir2);
 1529              		.loc 1 54 18 view .LVU363
 1530 000c 8374     		strb	r3, [r0, #18]
  55:Core/Inc/ros/actuators/motor_driver_param.h ****       this->pwm =  ((uint16_t) (*(inbuffer + offset)));
 1531              		.loc 1 55 7 is_stmt 1 view .LVU364
 1532              	.LVL105:
  56:Core/Inc/ros/actuators/motor_driver_param.h ****       this->pwm |= ((uint16_t) (*(inbuffer + offset + 1))) << (8 * 1);
 1533              		.loc 1 56 7 view .LVU365
  56:Core/Inc/ros/actuators/motor_driver_param.h ****       this->pwm |= ((uint16_t) (*(inbuffer + offset + 1))) << (8 * 1);
 1534              		.loc 1 56 33 is_stmt 0 view .LVU366
 1535 000e CB78     		ldrb	r3, [r1, #3]	@ zero_extendqisi2
  56:Core/Inc/ros/actuators/motor_driver_param.h ****       this->pwm |= ((uint16_t) (*(inbuffer + offset + 1))) << (8 * 1);
 1536              		.loc 1 56 17 view .LVU367
 1537 0010 8382     		strh	r3, [r0, #20]	@ movhi
  57:Core/Inc/ros/actuators/motor_driver_param.h ****       offset += sizeof(this->pwm);
 1538              		.loc 1 57 7 is_stmt 1 view .LVU368
  57:Core/Inc/ros/actuators/motor_driver_param.h ****       offset += sizeof(this->pwm);
 1539              		.loc 1 57 33 is_stmt 0 view .LVU369
 1540 0012 0A79     		ldrb	r2, [r1, #4]	@ zero_extendqisi2
  57:Core/Inc/ros/actuators/motor_driver_param.h ****       offset += sizeof(this->pwm);
 1541              		.loc 1 57 17 view .LVU370
ARM GAS  /tmp/ccaSmKi1.s 			page 48


 1542 0014 43EA0223 		orr	r3, r3, r2, lsl #8
 1543 0018 8382     		strh	r3, [r0, #20]	@ movhi
  58:Core/Inc/ros/actuators/motor_driver_param.h ****      return offset;
 1544              		.loc 1 58 7 is_stmt 1 view .LVU371
 1545              	.LVL106:
  59:Core/Inc/ros/actuators/motor_driver_param.h ****     }
 1546              		.loc 1 59 6 view .LVU372
  59:Core/Inc/ros/actuators/motor_driver_param.h ****     }
 1547              		.loc 1 59 6 is_stmt 0 view .LVU373
 1548              	.LBE272:
 1549              	.LBE271:
 115:Core/Inc/ros/ros/subscriber.h ****   {
 116:Core/Inc/ros/ros/subscriber.h ****     msg.deserialize(data);
 117:Core/Inc/ros/ros/subscriber.h ****     this->cb_(msg);
 1550              		.loc 13 117 11 view .LVU374
 1551 001a 8369     		ldr	r3, [r0, #24]
 1552 001c 0C30     		adds	r0, r0, #12
 1553              	.LVL107:
 1554              		.loc 13 117 11 view .LVU375
 1555 001e 9847     		blx	r3
 1556              	.LVL108:
 118:Core/Inc/ros/ros/subscriber.h ****   }
 1557              		.loc 13 118 3 view .LVU376
 1558 0020 08BD     		pop	{r3, pc}
 1559              		.cfi_endproc
 1560              	.LFE579:
 1562              		.section	.text._ZN3ros10SubscriberIN9actuators18motor_driver_paramEvE15getEndpointTypeEv,"axG",%pr
 1563              		.align	1
 1564              		.weak	_ZN3ros10SubscriberIN9actuators18motor_driver_paramEvE15getEndpointTypeEv
 1565              		.syntax unified
 1566              		.thumb
 1567              		.thumb_func
 1568              		.fpu fpv4-sp-d16
 1570              	_ZN3ros10SubscriberIN9actuators18motor_driver_paramEvE15getEndpointTypeEv:
 1571              	.LVL109:
 1572              	.LFB580:
 119:Core/Inc/ros/ros/subscriber.h **** 
 120:Core/Inc/ros/ros/subscriber.h ****   virtual const char * getMsgType() override
 121:Core/Inc/ros/ros/subscriber.h ****   {
 122:Core/Inc/ros/ros/subscriber.h ****     return this->msg.getType();
 123:Core/Inc/ros/ros/subscriber.h ****   }
 124:Core/Inc/ros/ros/subscriber.h ****   virtual const char * getMsgMD5() override
 125:Core/Inc/ros/ros/subscriber.h ****   {
 126:Core/Inc/ros/ros/subscriber.h ****     return this->msg.getMD5();
 127:Core/Inc/ros/ros/subscriber.h ****   }
 128:Core/Inc/ros/ros/subscriber.h ****   virtual int getEndpointType() override
 1573              		.loc 13 128 15 is_stmt 1 view -0
 1574              		.cfi_startproc
 1575              		@ args = 0, pretend = 0, frame = 0
 1576              		@ frame_needed = 0, uses_anonymous_args = 0
 1577              		@ link register save eliminated.
 129:Core/Inc/ros/ros/subscriber.h ****   {
 130:Core/Inc/ros/ros/subscriber.h ****     return endpoint_;
 131:Core/Inc/ros/ros/subscriber.h ****   }
 1578              		.loc 13 131 3 is_stmt 0 view .LVU378
 1579 0000 C069     		ldr	r0, [r0, #28]
 1580              	.LVL110:
ARM GAS  /tmp/ccaSmKi1.s 			page 49


 1581              		.loc 13 131 3 view .LVU379
 1582 0002 7047     		bx	lr
 1583              		.cfi_endproc
 1584              	.LFE580:
 1586              		.section	.text._ZN3ros10SubscriberIN9actuators18motor_driver_paramEvE10getMsgTypeEv,"axG",%progbit
 1587              		.align	1
 1588              		.weak	_ZN3ros10SubscriberIN9actuators18motor_driver_paramEvE10getMsgTypeEv
 1589              		.syntax unified
 1590              		.thumb
 1591              		.thumb_func
 1592              		.fpu fpv4-sp-d16
 1594              	_ZN3ros10SubscriberIN9actuators18motor_driver_paramEvE10getMsgTypeEv:
 1595              	.LVL111:
 1596              	.LFB581:
 120:Core/Inc/ros/ros/subscriber.h ****   {
 1597              		.loc 13 120 24 is_stmt 1 view -0
 1598              		.cfi_startproc
 1599              		@ args = 0, pretend = 0, frame = 0
 1600              		@ frame_needed = 0, uses_anonymous_args = 0
 1601              		@ link register save eliminated.
 1602              	.LBB273:
 1603              	.LBI273:
  62:Core/Inc/ros/actuators/motor_driver_param.h ****     virtual const char * getMD5() override { return "4dd7daa3fbb798d83aefe25263d7d1e1"; };
 1604              		.loc 1 62 26 view .LVU381
 1605              	.LBE273:
  62:Core/Inc/ros/actuators/motor_driver_param.h ****     virtual const char * getMD5() override { return "4dd7daa3fbb798d83aefe25263d7d1e1"; };
 1606              		.loc 1 62 47 view .LVU382
 123:Core/Inc/ros/ros/subscriber.h ****   virtual const char * getMsgMD5() override
 1607              		.loc 13 123 3 is_stmt 0 view .LVU383
 1608 0000 0048     		ldr	r0, .L94
 1609              	.LVL112:
 123:Core/Inc/ros/ros/subscriber.h ****   virtual const char * getMsgMD5() override
 1610              		.loc 13 123 3 view .LVU384
 1611 0002 7047     		bx	lr
 1612              	.L95:
 1613              		.align	2
 1614              	.L94:
 1615 0004 00000000 		.word	.LC0
 1616              		.cfi_endproc
 1617              	.LFE581:
 1619              		.section	.text._ZN3ros10SubscriberIN9actuators18motor_driver_paramEvE9getMsgMD5Ev,"axG",%progbits,
 1620              		.align	1
 1621              		.weak	_ZN3ros10SubscriberIN9actuators18motor_driver_paramEvE9getMsgMD5Ev
 1622              		.syntax unified
 1623              		.thumb
 1624              		.thumb_func
 1625              		.fpu fpv4-sp-d16
 1627              	_ZN3ros10SubscriberIN9actuators18motor_driver_paramEvE9getMsgMD5Ev:
 1628              	.LVL113:
 1629              	.LFB582:
 124:Core/Inc/ros/ros/subscriber.h ****   {
 1630              		.loc 13 124 24 is_stmt 1 view -0
 1631              		.cfi_startproc
 1632              		@ args = 0, pretend = 0, frame = 0
 1633              		@ frame_needed = 0, uses_anonymous_args = 0
 1634              		@ link register save eliminated.
 1635              	.LBB274:
ARM GAS  /tmp/ccaSmKi1.s 			page 50


 1636              	.LBI274:
 1637              		.loc 1 63 26 view .LVU386
 1638              	.LBE274:
 1639              		.loc 1 63 46 view .LVU387
 127:Core/Inc/ros/ros/subscriber.h ****   virtual int getEndpointType() override
 1640              		.loc 13 127 3 is_stmt 0 view .LVU388
 1641 0000 0048     		ldr	r0, .L97
 1642              	.LVL114:
 127:Core/Inc/ros/ros/subscriber.h ****   virtual int getEndpointType() override
 1643              		.loc 13 127 3 view .LVU389
 1644 0002 7047     		bx	lr
 1645              	.L98:
 1646              		.align	2
 1647              	.L97:
 1648 0004 00000000 		.word	.LC1
 1649              		.cfi_endproc
 1650              	.LFE582:
 1652              		.section	.text._ZN3ros11NodeHandle_I13STM32HardwareLi25ELi25ELi512ELi512EE9connectedEv,"axG",%prog
 1653              		.align	1
 1654              		.weak	_ZN3ros11NodeHandle_I13STM32HardwareLi25ELi25ELi512ELi512EE9connectedEv
 1655              		.syntax unified
 1656              		.thumb
 1657              		.thumb_func
 1658              		.fpu fpv4-sp-d16
 1660              	_ZN3ros11NodeHandle_I13STM32HardwareLi25ELi25ELi512ELi512EE9connectedEv:
 1661              	.LVL115:
 1662              	.LFB583:
 105:Core/Inc/ros/ros/node_handle.h **** {
 106:Core/Inc/ros/ros/node_handle.h **** protected:
 107:Core/Inc/ros/ros/node_handle.h ****   Hardware hardware_{};
 108:Core/Inc/ros/ros/node_handle.h **** 
 109:Core/Inc/ros/ros/node_handle.h ****   /* time used for syncing */
 110:Core/Inc/ros/ros/node_handle.h ****   uint32_t rt_time{0};
 111:Core/Inc/ros/ros/node_handle.h **** 
 112:Core/Inc/ros/ros/node_handle.h ****   /* used for computing current time */
 113:Core/Inc/ros/ros/node_handle.h ****   uint32_t sec_offset{0}, nsec_offset{0};
 114:Core/Inc/ros/ros/node_handle.h **** 
 115:Core/Inc/ros/ros/node_handle.h ****   /* Spinonce maximum work timeout */
 116:Core/Inc/ros/ros/node_handle.h ****   uint32_t spin_timeout_{0};
 117:Core/Inc/ros/ros/node_handle.h **** 
 118:Core/Inc/ros/ros/node_handle.h ****   uint8_t message_in[INPUT_SIZE] = {0};
 119:Core/Inc/ros/ros/node_handle.h ****   uint8_t message_out[OUTPUT_SIZE] = {0};
 120:Core/Inc/ros/ros/node_handle.h **** 
 121:Core/Inc/ros/ros/node_handle.h ****   Publisher * publishers[MAX_PUBLISHERS] = {nullptr};
 122:Core/Inc/ros/ros/node_handle.h ****   Subscriber_ * subscribers[MAX_SUBSCRIBERS] {nullptr};
 123:Core/Inc/ros/ros/node_handle.h **** 
 124:Core/Inc/ros/ros/node_handle.h ****   /*
 125:Core/Inc/ros/ros/node_handle.h ****    * Setup Functions
 126:Core/Inc/ros/ros/node_handle.h ****    */
 127:Core/Inc/ros/ros/node_handle.h **** public:
 128:Core/Inc/ros/ros/node_handle.h ****   Hardware* getHardware()
 129:Core/Inc/ros/ros/node_handle.h ****   {
 130:Core/Inc/ros/ros/node_handle.h ****     return &hardware_;
 131:Core/Inc/ros/ros/node_handle.h ****   }
 132:Core/Inc/ros/ros/node_handle.h **** 
 133:Core/Inc/ros/ros/node_handle.h ****   /* Start serial, initialize buffers */
 134:Core/Inc/ros/ros/node_handle.h ****   void initNode()
ARM GAS  /tmp/ccaSmKi1.s 			page 51


 135:Core/Inc/ros/ros/node_handle.h ****   {
 136:Core/Inc/ros/ros/node_handle.h ****     hardware_.init();
 137:Core/Inc/ros/ros/node_handle.h ****     mode_ = 0;
 138:Core/Inc/ros/ros/node_handle.h ****     bytes_ = 0;
 139:Core/Inc/ros/ros/node_handle.h ****     index_ = 0;
 140:Core/Inc/ros/ros/node_handle.h ****     topic_ = 0;
 141:Core/Inc/ros/ros/node_handle.h ****   };
 142:Core/Inc/ros/ros/node_handle.h **** 
 143:Core/Inc/ros/ros/node_handle.h ****   /* Start a named port, which may be network server IP, initialize buffers */
 144:Core/Inc/ros/ros/node_handle.h ****   void initNode(char *portName)
 145:Core/Inc/ros/ros/node_handle.h ****   {
 146:Core/Inc/ros/ros/node_handle.h ****     hardware_.init(portName);
 147:Core/Inc/ros/ros/node_handle.h ****     mode_ = 0;
 148:Core/Inc/ros/ros/node_handle.h ****     bytes_ = 0;
 149:Core/Inc/ros/ros/node_handle.h ****     index_ = 0;
 150:Core/Inc/ros/ros/node_handle.h ****     topic_ = 0;
 151:Core/Inc/ros/ros/node_handle.h ****   };
 152:Core/Inc/ros/ros/node_handle.h **** 
 153:Core/Inc/ros/ros/node_handle.h ****   /**
 154:Core/Inc/ros/ros/node_handle.h ****    * @brief Sets the maximum time in millisconds that spinOnce() can work.
 155:Core/Inc/ros/ros/node_handle.h ****    * This will not effect the processing of the buffer, as spinOnce processes
 156:Core/Inc/ros/ros/node_handle.h ****    * one byte at a time. It simply sets the maximum time that one call can
 157:Core/Inc/ros/ros/node_handle.h ****    * process for. You can choose to clear the buffer if that is beneficial if
 158:Core/Inc/ros/ros/node_handle.h ****    * SPIN_TIMEOUT is returned from spinOnce().
 159:Core/Inc/ros/ros/node_handle.h ****    * @param timeout The timeout in milliseconds that spinOnce will function.
 160:Core/Inc/ros/ros/node_handle.h ****    */
 161:Core/Inc/ros/ros/node_handle.h ****   void setSpinTimeout(const uint32_t& timeout)
 162:Core/Inc/ros/ros/node_handle.h ****   {
 163:Core/Inc/ros/ros/node_handle.h ****      spin_timeout_ = timeout;
 164:Core/Inc/ros/ros/node_handle.h ****   }
 165:Core/Inc/ros/ros/node_handle.h **** 
 166:Core/Inc/ros/ros/node_handle.h **** protected:
 167:Core/Inc/ros/ros/node_handle.h ****   // State machine variables for spinOnce
 168:Core/Inc/ros/ros/node_handle.h ****   int mode_{0};
 169:Core/Inc/ros/ros/node_handle.h ****   int bytes_{0};
 170:Core/Inc/ros/ros/node_handle.h ****   int topic_{0};
 171:Core/Inc/ros/ros/node_handle.h ****   int index_{0};
 172:Core/Inc/ros/ros/node_handle.h ****   int checksum_{0};
 173:Core/Inc/ros/ros/node_handle.h **** 
 174:Core/Inc/ros/ros/node_handle.h ****   bool configured_{false};
 175:Core/Inc/ros/ros/node_handle.h **** 
 176:Core/Inc/ros/ros/node_handle.h ****   /* used for syncing the time */
 177:Core/Inc/ros/ros/node_handle.h ****   uint32_t last_sync_time{0};
 178:Core/Inc/ros/ros/node_handle.h ****   uint32_t last_sync_receive_time{0};
 179:Core/Inc/ros/ros/node_handle.h ****   uint32_t last_msg_timeout_time{0};
 180:Core/Inc/ros/ros/node_handle.h **** 
 181:Core/Inc/ros/ros/node_handle.h **** public:
 182:Core/Inc/ros/ros/node_handle.h ****   /* This function goes in your loop() function, it handles
 183:Core/Inc/ros/ros/node_handle.h ****    *  serial input and callbacks for subscribers.
 184:Core/Inc/ros/ros/node_handle.h ****    */
 185:Core/Inc/ros/ros/node_handle.h **** 
 186:Core/Inc/ros/ros/node_handle.h **** 
 187:Core/Inc/ros/ros/node_handle.h ****   virtual int spinOnce() override
 188:Core/Inc/ros/ros/node_handle.h ****   {
 189:Core/Inc/ros/ros/node_handle.h ****     /* restart if timed out */
 190:Core/Inc/ros/ros/node_handle.h ****     uint32_t c_time = hardware_.time();
 191:Core/Inc/ros/ros/node_handle.h ****     if ((c_time - last_sync_receive_time) > (SYNC_SECONDS * 2200))
ARM GAS  /tmp/ccaSmKi1.s 			page 52


 192:Core/Inc/ros/ros/node_handle.h ****     {
 193:Core/Inc/ros/ros/node_handle.h ****       configured_ = false;
 194:Core/Inc/ros/ros/node_handle.h ****     }
 195:Core/Inc/ros/ros/node_handle.h **** 
 196:Core/Inc/ros/ros/node_handle.h ****     /* reset if message has timed out */
 197:Core/Inc/ros/ros/node_handle.h ****     if (mode_ != MODE_FIRST_FF)
 198:Core/Inc/ros/ros/node_handle.h ****     {
 199:Core/Inc/ros/ros/node_handle.h ****       if (c_time > last_msg_timeout_time)
 200:Core/Inc/ros/ros/node_handle.h ****       {
 201:Core/Inc/ros/ros/node_handle.h ****         mode_ = MODE_FIRST_FF;
 202:Core/Inc/ros/ros/node_handle.h ****       }
 203:Core/Inc/ros/ros/node_handle.h ****     }
 204:Core/Inc/ros/ros/node_handle.h **** 
 205:Core/Inc/ros/ros/node_handle.h ****     /* while available buffer, read data */
 206:Core/Inc/ros/ros/node_handle.h ****     while (true)
 207:Core/Inc/ros/ros/node_handle.h ****     {
 208:Core/Inc/ros/ros/node_handle.h ****       // If a timeout has been specified, check how long spinOnce has been running.
 209:Core/Inc/ros/ros/node_handle.h ****       if (spin_timeout_ > 0)
 210:Core/Inc/ros/ros/node_handle.h ****       {
 211:Core/Inc/ros/ros/node_handle.h ****         // If the maximum processing timeout has been exceeded, exit with error.
 212:Core/Inc/ros/ros/node_handle.h ****         // The next spinOnce can continue where it left off, or optionally
 213:Core/Inc/ros/ros/node_handle.h ****         // based on the application in use, the hardware buffer could be flushed
 214:Core/Inc/ros/ros/node_handle.h ****         // and start fresh.
 215:Core/Inc/ros/ros/node_handle.h ****         if ((hardware_.time() - c_time) > spin_timeout_)
 216:Core/Inc/ros/ros/node_handle.h ****         {
 217:Core/Inc/ros/ros/node_handle.h ****           // Exit the spin, processing timeout exceeded.
 218:Core/Inc/ros/ros/node_handle.h ****           return SPIN_TIMEOUT;
 219:Core/Inc/ros/ros/node_handle.h ****         }
 220:Core/Inc/ros/ros/node_handle.h ****       }
 221:Core/Inc/ros/ros/node_handle.h ****       int data = hardware_.read();
 222:Core/Inc/ros/ros/node_handle.h ****       if (data < 0)
 223:Core/Inc/ros/ros/node_handle.h ****         break;
 224:Core/Inc/ros/ros/node_handle.h ****       checksum_ += data;
 225:Core/Inc/ros/ros/node_handle.h ****       if (mode_ == MODE_MESSAGE)          /* message data being recieved */
 226:Core/Inc/ros/ros/node_handle.h ****       {
 227:Core/Inc/ros/ros/node_handle.h ****         message_in[index_++] = data;
 228:Core/Inc/ros/ros/node_handle.h ****         bytes_--;
 229:Core/Inc/ros/ros/node_handle.h ****         if (bytes_ == 0)                 /* is message complete? if so, checksum */
 230:Core/Inc/ros/ros/node_handle.h ****           mode_ = MODE_MSG_CHECKSUM;
 231:Core/Inc/ros/ros/node_handle.h ****       }
 232:Core/Inc/ros/ros/node_handle.h ****       else if (mode_ == MODE_FIRST_FF)
 233:Core/Inc/ros/ros/node_handle.h ****       {
 234:Core/Inc/ros/ros/node_handle.h ****         if (data == 0xff)
 235:Core/Inc/ros/ros/node_handle.h ****         {
 236:Core/Inc/ros/ros/node_handle.h ****           mode_++;
 237:Core/Inc/ros/ros/node_handle.h ****           last_msg_timeout_time = c_time + SERIAL_MSG_TIMEOUT;
 238:Core/Inc/ros/ros/node_handle.h ****         }
 239:Core/Inc/ros/ros/node_handle.h ****         else if (hardware_.time() - c_time > (SYNC_SECONDS * 1000))
 240:Core/Inc/ros/ros/node_handle.h ****         {
 241:Core/Inc/ros/ros/node_handle.h ****           /* We have been stuck in spinOnce too long, return error */
 242:Core/Inc/ros/ros/node_handle.h ****           configured_ = false;
 243:Core/Inc/ros/ros/node_handle.h ****           return SPIN_TIMEOUT;
 244:Core/Inc/ros/ros/node_handle.h ****         }
 245:Core/Inc/ros/ros/node_handle.h ****       }
 246:Core/Inc/ros/ros/node_handle.h ****       else if (mode_ == MODE_PROTOCOL_VER)
 247:Core/Inc/ros/ros/node_handle.h ****       {
 248:Core/Inc/ros/ros/node_handle.h ****         if (data == PROTOCOL_VER)
ARM GAS  /tmp/ccaSmKi1.s 			page 53


 249:Core/Inc/ros/ros/node_handle.h ****         {
 250:Core/Inc/ros/ros/node_handle.h ****           mode_++;
 251:Core/Inc/ros/ros/node_handle.h ****         }
 252:Core/Inc/ros/ros/node_handle.h ****         else
 253:Core/Inc/ros/ros/node_handle.h ****         {
 254:Core/Inc/ros/ros/node_handle.h ****           mode_ = MODE_FIRST_FF;
 255:Core/Inc/ros/ros/node_handle.h ****           if (configured_ == false)
 256:Core/Inc/ros/ros/node_handle.h ****             requestSyncTime();  /* send a msg back showing our protocol version */
 257:Core/Inc/ros/ros/node_handle.h ****         }
 258:Core/Inc/ros/ros/node_handle.h ****       }
 259:Core/Inc/ros/ros/node_handle.h ****       else if (mode_ == MODE_SIZE_L)      /* bottom half of message size */
 260:Core/Inc/ros/ros/node_handle.h ****       {
 261:Core/Inc/ros/ros/node_handle.h ****         bytes_ = data;
 262:Core/Inc/ros/ros/node_handle.h ****         index_ = 0;
 263:Core/Inc/ros/ros/node_handle.h ****         mode_++;
 264:Core/Inc/ros/ros/node_handle.h ****         checksum_ = data;               /* first byte for calculating size checksum */
 265:Core/Inc/ros/ros/node_handle.h ****       }
 266:Core/Inc/ros/ros/node_handle.h ****       else if (mode_ == MODE_SIZE_H)      /* top half of message size */
 267:Core/Inc/ros/ros/node_handle.h ****       {
 268:Core/Inc/ros/ros/node_handle.h ****         bytes_ += data << 8;
 269:Core/Inc/ros/ros/node_handle.h ****         mode_++;
 270:Core/Inc/ros/ros/node_handle.h ****       }
 271:Core/Inc/ros/ros/node_handle.h ****       else if (mode_ == MODE_SIZE_CHECKSUM)
 272:Core/Inc/ros/ros/node_handle.h ****       {
 273:Core/Inc/ros/ros/node_handle.h ****         if ((checksum_ % 256) == 255)
 274:Core/Inc/ros/ros/node_handle.h ****           mode_++;
 275:Core/Inc/ros/ros/node_handle.h ****         else
 276:Core/Inc/ros/ros/node_handle.h ****           mode_ = MODE_FIRST_FF;          /* Abandon the frame if the msg len is wrong */
 277:Core/Inc/ros/ros/node_handle.h ****       }
 278:Core/Inc/ros/ros/node_handle.h ****       else if (mode_ == MODE_TOPIC_L)     /* bottom half of topic id */
 279:Core/Inc/ros/ros/node_handle.h ****       {
 280:Core/Inc/ros/ros/node_handle.h ****         topic_ = data;
 281:Core/Inc/ros/ros/node_handle.h ****         mode_++;
 282:Core/Inc/ros/ros/node_handle.h ****         checksum_ = data;               /* first byte included in checksum */
 283:Core/Inc/ros/ros/node_handle.h ****       }
 284:Core/Inc/ros/ros/node_handle.h ****       else if (mode_ == MODE_TOPIC_H)     /* top half of topic id */
 285:Core/Inc/ros/ros/node_handle.h ****       {
 286:Core/Inc/ros/ros/node_handle.h ****         topic_ += data << 8;
 287:Core/Inc/ros/ros/node_handle.h ****         mode_ = MODE_MESSAGE;
 288:Core/Inc/ros/ros/node_handle.h ****         if (bytes_ == 0)
 289:Core/Inc/ros/ros/node_handle.h ****           mode_ = MODE_MSG_CHECKSUM;
 290:Core/Inc/ros/ros/node_handle.h ****       }
 291:Core/Inc/ros/ros/node_handle.h ****       else if (mode_ == MODE_MSG_CHECKSUM)    /* do checksum */
 292:Core/Inc/ros/ros/node_handle.h ****       {
 293:Core/Inc/ros/ros/node_handle.h ****         mode_ = MODE_FIRST_FF;
 294:Core/Inc/ros/ros/node_handle.h ****         if ((checksum_ % 256) == 255)
 295:Core/Inc/ros/ros/node_handle.h ****         {
 296:Core/Inc/ros/ros/node_handle.h ****           if (topic_ == TopicInfo::ID_PUBLISHER)
 297:Core/Inc/ros/ros/node_handle.h ****           {
 298:Core/Inc/ros/ros/node_handle.h ****             requestSyncTime();
 299:Core/Inc/ros/ros/node_handle.h ****             negotiateTopics();
 300:Core/Inc/ros/ros/node_handle.h ****             last_sync_time = c_time;
 301:Core/Inc/ros/ros/node_handle.h ****             last_sync_receive_time = c_time;
 302:Core/Inc/ros/ros/node_handle.h ****             return SPIN_ERR;
 303:Core/Inc/ros/ros/node_handle.h ****           }
 304:Core/Inc/ros/ros/node_handle.h ****           else if (topic_ == TopicInfo::ID_TIME)
 305:Core/Inc/ros/ros/node_handle.h ****           {
ARM GAS  /tmp/ccaSmKi1.s 			page 54


 306:Core/Inc/ros/ros/node_handle.h ****             syncTime(message_in);
 307:Core/Inc/ros/ros/node_handle.h ****           }
 308:Core/Inc/ros/ros/node_handle.h ****           else if (topic_ == TopicInfo::ID_PARAMETER_REQUEST)
 309:Core/Inc/ros/ros/node_handle.h ****           {
 310:Core/Inc/ros/ros/node_handle.h ****             req_param_resp.deserialize(message_in);
 311:Core/Inc/ros/ros/node_handle.h ****             param_received = true;
 312:Core/Inc/ros/ros/node_handle.h ****           }
 313:Core/Inc/ros/ros/node_handle.h ****           else if (topic_ == TopicInfo::ID_TX_STOP)
 314:Core/Inc/ros/ros/node_handle.h ****           {
 315:Core/Inc/ros/ros/node_handle.h ****             configured_ = false;
 316:Core/Inc/ros/ros/node_handle.h ****           }
 317:Core/Inc/ros/ros/node_handle.h ****           else
 318:Core/Inc/ros/ros/node_handle.h ****           {
 319:Core/Inc/ros/ros/node_handle.h ****             if (subscribers[topic_ - 100])
 320:Core/Inc/ros/ros/node_handle.h ****               subscribers[topic_ - 100]->callback(message_in);
 321:Core/Inc/ros/ros/node_handle.h ****           }
 322:Core/Inc/ros/ros/node_handle.h ****         }
 323:Core/Inc/ros/ros/node_handle.h ****       }
 324:Core/Inc/ros/ros/node_handle.h ****     }
 325:Core/Inc/ros/ros/node_handle.h **** 
 326:Core/Inc/ros/ros/node_handle.h ****     /* occasionally sync time */
 327:Core/Inc/ros/ros/node_handle.h ****     if (configured_ && ((c_time - last_sync_time) > (SYNC_SECONDS * 500)))
 328:Core/Inc/ros/ros/node_handle.h ****     {
 329:Core/Inc/ros/ros/node_handle.h ****       requestSyncTime();
 330:Core/Inc/ros/ros/node_handle.h ****       last_sync_time = c_time;
 331:Core/Inc/ros/ros/node_handle.h ****     }
 332:Core/Inc/ros/ros/node_handle.h **** 
 333:Core/Inc/ros/ros/node_handle.h ****     return SPIN_OK;
 334:Core/Inc/ros/ros/node_handle.h ****   }
 335:Core/Inc/ros/ros/node_handle.h **** 
 336:Core/Inc/ros/ros/node_handle.h **** 
 337:Core/Inc/ros/ros/node_handle.h ****   /* Are we connected to the PC? */
 338:Core/Inc/ros/ros/node_handle.h ****   virtual bool connected() override
 1663              		.loc 9 338 16 is_stmt 1 view -0
 1664              		.cfi_startproc
 1665              		@ args = 0, pretend = 0, frame = 0
 1666              		@ frame_needed = 0, uses_anonymous_args = 0
 1667              		@ link register save eliminated.
 339:Core/Inc/ros/ros/node_handle.h ****   {
 340:Core/Inc/ros/ros/node_handle.h ****     return configured_;
 341:Core/Inc/ros/ros/node_handle.h ****   };
 1668              		.loc 9 341 3 is_stmt 0 view .LVU391
 1669 0000 90F80009 		ldrb	r0, [r0, #2304]	@ zero_extendqisi2
 1670              	.LVL116:
 1671              		.loc 9 341 3 view .LVU392
 1672 0004 7047     		bx	lr
 1673              		.cfi_endproc
 1674              	.LFE583:
 1676              		.section	.text._Z19motor_base_callbackRKN9actuators18motor_driver_paramE,"ax",%progbits
 1677              		.align	1
 1678              		.global	_Z19motor_base_callbackRKN9actuators18motor_driver_paramE
 1679              		.syntax unified
 1680              		.thumb
 1681              		.thumb_func
 1682              		.fpu fpv4-sp-d16
 1684              	_Z19motor_base_callbackRKN9actuators18motor_driver_paramE:
 1685              	.LVL117:
ARM GAS  /tmp/ccaSmKi1.s 			page 55


 1686              	.LFB549:
  24:Core/Src/operation.cpp **** {
 1687              		.loc 8 24 1 is_stmt 1 view -0
 1688              		.cfi_startproc
 1689              		@ args = 0, pretend = 0, frame = 16
 1690              		@ frame_needed = 0, uses_anonymous_args = 0
  24:Core/Src/operation.cpp **** {
 1691              		.loc 8 24 1 is_stmt 0 view .LVU394
 1692 0000 00B5     		push	{lr}
 1693              	.LCFI8:
 1694              		.cfi_def_cfa_offset 4
 1695              		.cfi_offset 14, -4
 1696 0002 85B0     		sub	sp, sp, #20
 1697              	.LCFI9:
 1698              		.cfi_def_cfa_offset 24
  25:Core/Src/operation.cpp ****   motor_[msg.id].set_motorParam(msg);
 1699              		.loc 8 25 3 is_stmt 1 view .LVU395
  25:Core/Src/operation.cpp ****   motor_[msg.id].set_motorParam(msg);
 1700              		.loc 8 25 14 is_stmt 0 view .LVU396
 1701 0004 0379     		ldrb	r3, [r0, #4]	@ zero_extendqisi2
 1702              	.LVL118:
 1703              	.LBB275:
 1704              	.LBI275:
  12:Core/Inc/ros/actuators/motor_driver_param.h ****   {
 1705              		.loc 1 12 9 is_stmt 1 view .LVU397
 1706              	.LBB276:
 1707              	.LBB277:
 1708              	.LBB278:
 1709              	.LBI278:
 1710              		.loc 11 46 7 view .LVU398
 1711              	.LBB279:
 1712              	.LBB280:
 1713 0006 0C4A     		ldr	r2, .L102
 1714 0008 0192     		str	r2, [sp, #4]
 1715              	.LVL119:
 1716              		.loc 11 46 7 is_stmt 0 view .LVU399
 1717              	.LBE280:
 1718              	.LBE279:
 1719              	.LBE278:
  12:Core/Inc/ros/actuators/motor_driver_param.h ****   {
 1720              		.loc 1 12 9 view .LVU400
 1721 000a 0C4A     		ldr	r2, .L102+4
 1722 000c 0192     		str	r2, [sp, #4]
 1723 000e 8DF80830 		strb	r3, [sp, #8]
 1724 0012 4279     		ldrb	r2, [r0, #5]	@ zero_extendqisi2
 1725 0014 8DF80920 		strb	r2, [sp, #9]
 1726 0018 8279     		ldrb	r2, [r0, #6]	@ zero_extendqisi2
 1727 001a 8DF80A20 		strb	r2, [sp, #10]
 1728 001e 0289     		ldrh	r2, [r0, #8]
 1729 0020 ADF80C20 		strh	r2, [sp, #12]	@ movhi
 1730              	.LVL120:
  12:Core/Inc/ros/actuators/motor_driver_param.h ****   {
 1731              		.loc 1 12 9 view .LVU401
 1732              	.LBE277:
 1733              	.LBE276:
 1734              	.LBE275:
  25:Core/Src/operation.cpp ****   motor_[msg.id].set_motorParam(msg);
ARM GAS  /tmp/ccaSmKi1.s 			page 56


 1735              		.loc 8 25 32 view .LVU402
 1736 0024 01A9     		add	r1, sp, #4
 1737 0026 0648     		ldr	r0, .L102+8
 1738              	.LVL121:
  25:Core/Src/operation.cpp ****   motor_[msg.id].set_motorParam(msg);
 1739              		.loc 8 25 32 view .LVU403
 1740 0028 00EB0310 		add	r0, r0, r3, lsl #4
 1741 002c FFF7FEFF 		bl	_ZN5motor14set_motorParamEN9actuators18motor_driver_paramE
 1742              	.LVL122:
  31:Core/Src/operation.cpp **** }
 1743              		.loc 8 31 1 view .LVU404
 1744 0030 05B0     		add	sp, sp, #20
 1745              	.LCFI10:
 1746              		.cfi_def_cfa_offset 4
 1747              		@ sp needed
 1748 0032 5DF804FB 		ldr	pc, [sp], #4
 1749              	.L103:
 1750 0036 00BF     		.align	2
 1751              	.L102:
 1752 0038 08000000 		.word	_ZTVN3ros3MsgE+8
 1753 003c 08000000 		.word	_ZTVN9actuators18motor_driver_paramE+8
 1754 0040 00000000 		.word	motor_
 1755              		.cfi_endproc
 1756              	.LFE549:
 1758              		.section	.rodata._ZN3ros11NodeHandle_I13STM32HardwareLi25ELi25ELi512ELi512EE7publishEiPKNS_3MsgE.s
 1759              		.align	2
 1760              	.LC16:
 1761 0000 00       		.ascii	"\000"
 1762 0001 000000   		.align	2
 1763              	.LC17:
 1764 0004 4D657373 		.ascii	"Message from device dropped: message larger than bu"
 1764      61676520 
 1764      66726F6D 
 1764      20646576 
 1764      69636520 
 1765 0037 66666572 		.ascii	"ffer.\000"
 1765      2E00
 1766              		.section	.text._ZN3ros11NodeHandle_I13STM32HardwareLi25ELi25ELi512ELi512EE7publishEiPKNS_3MsgE,"ax
 1767              		.align	1
 1768              		.weak	_ZN3ros11NodeHandle_I13STM32HardwareLi25ELi25ELi512ELi512EE7publishEiPKNS_3MsgE
 1769              		.syntax unified
 1770              		.thumb
 1771              		.thumb_func
 1772              		.fpu fpv4-sp-d16
 1774              	_ZN3ros11NodeHandle_I13STM32HardwareLi25ELi25ELi512ELi512EE7publishEiPKNS_3MsgE:
 1775              	.LVL123:
 1776              	.LFB574:
 342:Core/Inc/ros/ros/node_handle.h **** 
 343:Core/Inc/ros/ros/node_handle.h ****   /********************************************************************
 344:Core/Inc/ros/ros/node_handle.h ****    * Time functions
 345:Core/Inc/ros/ros/node_handle.h ****    */
 346:Core/Inc/ros/ros/node_handle.h **** 
 347:Core/Inc/ros/ros/node_handle.h ****   void requestSyncTime()
 348:Core/Inc/ros/ros/node_handle.h ****   {
 349:Core/Inc/ros/ros/node_handle.h ****     std_msgs::Time t;
 350:Core/Inc/ros/ros/node_handle.h ****     publish(TopicInfo::ID_TIME, &t);
 351:Core/Inc/ros/ros/node_handle.h ****     rt_time = hardware_.time();
ARM GAS  /tmp/ccaSmKi1.s 			page 57


 352:Core/Inc/ros/ros/node_handle.h ****   }
 353:Core/Inc/ros/ros/node_handle.h **** 
 354:Core/Inc/ros/ros/node_handle.h ****   void syncTime(uint8_t * data)
 355:Core/Inc/ros/ros/node_handle.h ****   {
 356:Core/Inc/ros/ros/node_handle.h ****     std_msgs::Time t;
 357:Core/Inc/ros/ros/node_handle.h ****     uint32_t offset = hardware_.time() - rt_time;
 358:Core/Inc/ros/ros/node_handle.h **** 
 359:Core/Inc/ros/ros/node_handle.h ****     t.deserialize(data);
 360:Core/Inc/ros/ros/node_handle.h ****     t.data.sec += offset / 1000;
 361:Core/Inc/ros/ros/node_handle.h ****     t.data.nsec += (offset % 1000) * 1000000UL;
 362:Core/Inc/ros/ros/node_handle.h **** 
 363:Core/Inc/ros/ros/node_handle.h ****     this->setNow(t.data);
 364:Core/Inc/ros/ros/node_handle.h ****     last_sync_receive_time = hardware_.time();
 365:Core/Inc/ros/ros/node_handle.h ****   }
 366:Core/Inc/ros/ros/node_handle.h **** 
 367:Core/Inc/ros/ros/node_handle.h ****   Time now()
 368:Core/Inc/ros/ros/node_handle.h ****   {
 369:Core/Inc/ros/ros/node_handle.h ****     uint32_t ms = hardware_.time();
 370:Core/Inc/ros/ros/node_handle.h ****     Time current_time;
 371:Core/Inc/ros/ros/node_handle.h ****     current_time.sec = ms / 1000 + sec_offset;
 372:Core/Inc/ros/ros/node_handle.h ****     current_time.nsec = (ms % 1000) * 1000000UL + nsec_offset;
 373:Core/Inc/ros/ros/node_handle.h ****     normalizeSecNSec(current_time.sec, current_time.nsec);
 374:Core/Inc/ros/ros/node_handle.h ****     return current_time;
 375:Core/Inc/ros/ros/node_handle.h ****   }
 376:Core/Inc/ros/ros/node_handle.h **** 
 377:Core/Inc/ros/ros/node_handle.h ****   void setNow(const Time & new_now)
 378:Core/Inc/ros/ros/node_handle.h ****   {
 379:Core/Inc/ros/ros/node_handle.h ****     uint32_t ms = hardware_.time();
 380:Core/Inc/ros/ros/node_handle.h ****     sec_offset = new_now.sec - ms / 1000 - 1;
 381:Core/Inc/ros/ros/node_handle.h ****     nsec_offset = new_now.nsec - (ms % 1000) * 1000000UL + 1000000000UL;
 382:Core/Inc/ros/ros/node_handle.h ****     normalizeSecNSec(sec_offset, nsec_offset);
 383:Core/Inc/ros/ros/node_handle.h ****   }
 384:Core/Inc/ros/ros/node_handle.h **** 
 385:Core/Inc/ros/ros/node_handle.h ****   /********************************************************************
 386:Core/Inc/ros/ros/node_handle.h ****    * Topic Management
 387:Core/Inc/ros/ros/node_handle.h ****    */
 388:Core/Inc/ros/ros/node_handle.h **** 
 389:Core/Inc/ros/ros/node_handle.h ****   /* Register a new publisher */
 390:Core/Inc/ros/ros/node_handle.h ****   bool advertise(Publisher & p)
 391:Core/Inc/ros/ros/node_handle.h ****   {
 392:Core/Inc/ros/ros/node_handle.h ****     for (int i = 0; i < MAX_PUBLISHERS; i++)
 393:Core/Inc/ros/ros/node_handle.h ****     {
 394:Core/Inc/ros/ros/node_handle.h ****       if (publishers[i] == 0) // empty slot
 395:Core/Inc/ros/ros/node_handle.h ****       {
 396:Core/Inc/ros/ros/node_handle.h ****         publishers[i] = &p;
 397:Core/Inc/ros/ros/node_handle.h ****         p.id_ = i + 100 + MAX_SUBSCRIBERS;
 398:Core/Inc/ros/ros/node_handle.h ****         p.nh_ = this;
 399:Core/Inc/ros/ros/node_handle.h ****         return true;
 400:Core/Inc/ros/ros/node_handle.h ****       }
 401:Core/Inc/ros/ros/node_handle.h ****     }
 402:Core/Inc/ros/ros/node_handle.h ****     return false;
 403:Core/Inc/ros/ros/node_handle.h ****   }
 404:Core/Inc/ros/ros/node_handle.h **** 
 405:Core/Inc/ros/ros/node_handle.h ****   /* Register a new subscriber */
 406:Core/Inc/ros/ros/node_handle.h ****   bool subscribe(Subscriber_& s)
 407:Core/Inc/ros/ros/node_handle.h ****   {
 408:Core/Inc/ros/ros/node_handle.h ****     for (int i = 0; i < MAX_SUBSCRIBERS; i++)
ARM GAS  /tmp/ccaSmKi1.s 			page 58


 409:Core/Inc/ros/ros/node_handle.h ****     {
 410:Core/Inc/ros/ros/node_handle.h ****       if (subscribers[i] == 0) // empty slot
 411:Core/Inc/ros/ros/node_handle.h ****       {
 412:Core/Inc/ros/ros/node_handle.h ****         subscribers[i] = &s;
 413:Core/Inc/ros/ros/node_handle.h ****         s.id_ = i + 100;
 414:Core/Inc/ros/ros/node_handle.h ****         return true;
 415:Core/Inc/ros/ros/node_handle.h ****       }
 416:Core/Inc/ros/ros/node_handle.h ****     }
 417:Core/Inc/ros/ros/node_handle.h ****     return false;
 418:Core/Inc/ros/ros/node_handle.h ****   }
 419:Core/Inc/ros/ros/node_handle.h **** 
 420:Core/Inc/ros/ros/node_handle.h ****   /* Register a new Service Server */
 421:Core/Inc/ros/ros/node_handle.h ****   template<typename MReq, typename MRes, typename ObjT>
 422:Core/Inc/ros/ros/node_handle.h ****   bool advertiseService(ServiceServer<MReq, MRes, ObjT>& srv)
 423:Core/Inc/ros/ros/node_handle.h ****   {
 424:Core/Inc/ros/ros/node_handle.h ****     bool v = advertise(srv.pub);
 425:Core/Inc/ros/ros/node_handle.h ****     bool w = subscribe(srv);
 426:Core/Inc/ros/ros/node_handle.h ****     return v && w;
 427:Core/Inc/ros/ros/node_handle.h ****   }
 428:Core/Inc/ros/ros/node_handle.h **** 
 429:Core/Inc/ros/ros/node_handle.h ****   /* Register a new Service Client */
 430:Core/Inc/ros/ros/node_handle.h ****   template<typename MReq, typename MRes>
 431:Core/Inc/ros/ros/node_handle.h ****   bool serviceClient(ServiceClient<MReq, MRes>& srv)
 432:Core/Inc/ros/ros/node_handle.h ****   {
 433:Core/Inc/ros/ros/node_handle.h ****     bool v = advertise(srv.pub);
 434:Core/Inc/ros/ros/node_handle.h ****     bool w = subscribe(srv);
 435:Core/Inc/ros/ros/node_handle.h ****     return v && w;
 436:Core/Inc/ros/ros/node_handle.h ****   }
 437:Core/Inc/ros/ros/node_handle.h **** 
 438:Core/Inc/ros/ros/node_handle.h ****   void negotiateTopics()
 439:Core/Inc/ros/ros/node_handle.h ****   {
 440:Core/Inc/ros/ros/node_handle.h ****     rosserial_msgs::TopicInfo ti;
 441:Core/Inc/ros/ros/node_handle.h ****     int i;
 442:Core/Inc/ros/ros/node_handle.h ****     for (i = 0; i < MAX_PUBLISHERS; i++)
 443:Core/Inc/ros/ros/node_handle.h ****     {
 444:Core/Inc/ros/ros/node_handle.h ****       if (publishers[i] != 0) // non-empty slot
 445:Core/Inc/ros/ros/node_handle.h ****       {
 446:Core/Inc/ros/ros/node_handle.h ****         ti.topic_id = publishers[i]->id_;
 447:Core/Inc/ros/ros/node_handle.h ****         ti.topic_name = (char *) publishers[i]->topic_;
 448:Core/Inc/ros/ros/node_handle.h ****         ti.message_type = (char *) publishers[i]->msg_->getType();
 449:Core/Inc/ros/ros/node_handle.h ****         ti.md5sum = (char *) publishers[i]->msg_->getMD5();
 450:Core/Inc/ros/ros/node_handle.h ****         ti.buffer_size = OUTPUT_SIZE;
 451:Core/Inc/ros/ros/node_handle.h ****         publish(publishers[i]->getEndpointType(), &ti);
 452:Core/Inc/ros/ros/node_handle.h ****       }
 453:Core/Inc/ros/ros/node_handle.h ****     }
 454:Core/Inc/ros/ros/node_handle.h ****     for (i = 0; i < MAX_SUBSCRIBERS; i++)
 455:Core/Inc/ros/ros/node_handle.h ****     {
 456:Core/Inc/ros/ros/node_handle.h ****       if (subscribers[i] != 0) // non-empty slot
 457:Core/Inc/ros/ros/node_handle.h ****       {
 458:Core/Inc/ros/ros/node_handle.h ****         ti.topic_id = subscribers[i]->id_;
 459:Core/Inc/ros/ros/node_handle.h ****         ti.topic_name = (char *) subscribers[i]->topic_;
 460:Core/Inc/ros/ros/node_handle.h ****         ti.message_type = (char *) subscribers[i]->getMsgType();
 461:Core/Inc/ros/ros/node_handle.h ****         ti.md5sum = (char *) subscribers[i]->getMsgMD5();
 462:Core/Inc/ros/ros/node_handle.h ****         ti.buffer_size = INPUT_SIZE;
 463:Core/Inc/ros/ros/node_handle.h ****         publish(subscribers[i]->getEndpointType(), &ti);
 464:Core/Inc/ros/ros/node_handle.h ****       }
 465:Core/Inc/ros/ros/node_handle.h ****     }
ARM GAS  /tmp/ccaSmKi1.s 			page 59


 466:Core/Inc/ros/ros/node_handle.h ****     configured_ = true;
 467:Core/Inc/ros/ros/node_handle.h ****   }
 468:Core/Inc/ros/ros/node_handle.h **** 
 469:Core/Inc/ros/ros/node_handle.h ****   virtual int publish(int id, const Msg * msg) override
 1777              		.loc 9 469 15 is_stmt 1 view -0
 1778              		.cfi_startproc
 1779              		@ args = 0, pretend = 0, frame = 16
 1780              		@ frame_needed = 0, uses_anonymous_args = 0
 1781              		.loc 9 469 15 is_stmt 0 view .LVU406
 1782 0000 2DE9F043 		push	{r4, r5, r6, r7, r8, r9, lr}
 1783              	.LCFI11:
 1784              		.cfi_def_cfa_offset 28
 1785              		.cfi_offset 4, -28
 1786              		.cfi_offset 5, -24
 1787              		.cfi_offset 6, -20
 1788              		.cfi_offset 7, -16
 1789              		.cfi_offset 8, -12
 1790              		.cfi_offset 9, -8
 1791              		.cfi_offset 14, -4
 1792 0004 85B0     		sub	sp, sp, #20
 1793              	.LCFI12:
 1794              		.cfi_def_cfa_offset 48
 1795 0006 0446     		mov	r4, r0
 1796 0008 0D46     		mov	r5, r1
 1797 000a 1046     		mov	r0, r2
 1798              	.LVL124:
 470:Core/Inc/ros/ros/node_handle.h ****   {
 471:Core/Inc/ros/ros/node_handle.h ****     if (id >= 100 && !configured_)
 1799              		.loc 9 471 5 view .LVU407
 1800 000c 6329     		cmp	r1, #99
 1801 000e 04DD     		ble	.L105
 1802              		.loc 9 471 23 discriminator 1 view .LVU408
 1803 0010 94F80039 		ldrb	r3, [r4, #2304]	@ zero_extendqisi2
 1804              		.loc 9 471 19 discriminator 1 view .LVU409
 1805 0014 002B     		cmp	r3, #0
 1806 0016 00F0AA80 		beq	.L115
 1807              	.L105:
 472:Core/Inc/ros/ros/node_handle.h ****       return 0;
 473:Core/Inc/ros/ros/node_handle.h **** 
 474:Core/Inc/ros/ros/node_handle.h ****     /* serialize message */
 475:Core/Inc/ros/ros/node_handle.h ****     int l = msg->serialize(message_out + 7);
 1808              		.loc 9 475 27 view .LVU410
 1809 001a 0368     		ldr	r3, [r0]
 1810 001c 1B68     		ldr	r3, [r3]
 1811 001e 04F22B61 		addw	r1, r4, #1579
 1812              	.LVL125:
 1813              		.loc 9 475 27 view .LVU411
 1814 0022 9847     		blx	r3
 1815              	.LVL126:
 476:Core/Inc/ros/ros/node_handle.h **** 
 477:Core/Inc/ros/ros/node_handle.h ****     /* setup the header */
 478:Core/Inc/ros/ros/node_handle.h ****     message_out[0] = 0xff;
 1816              		.loc 9 478 20 view .LVU412
 1817 0024 FF23     		movs	r3, #255
 1818 0026 84F82436 		strb	r3, [r4, #1572]
 479:Core/Inc/ros/ros/node_handle.h ****     message_out[1] = PROTOCOL_VER;
 1819              		.loc 9 479 20 view .LVU413
ARM GAS  /tmp/ccaSmKi1.s 			page 60


 1820 002a FE23     		movs	r3, #254
 1821 002c 84F82536 		strb	r3, [r4, #1573]
 480:Core/Inc/ros/ros/node_handle.h ****     message_out[2] = (uint8_t)((uint16_t)l & 255);
 1822              		.loc 9 480 20 view .LVU414
 1823 0030 C3B2     		uxtb	r3, r0
 1824 0032 84F82636 		strb	r3, [r4, #1574]
 481:Core/Inc/ros/ros/node_handle.h ****     message_out[3] = (uint8_t)((uint16_t)l >> 8);
 1825              		.loc 9 481 20 view .LVU415
 1826 0036 C0F30722 		ubfx	r2, r0, #8, #8
 1827 003a 84F82726 		strb	r2, [r4, #1575]
 482:Core/Inc/ros/ros/node_handle.h ****     message_out[4] = 255 - ((message_out[2] + message_out[3]) % 256);
 1828              		.loc 9 482 63 view .LVU416
 1829 003e 1344     		add	r3, r3, r2
 1830 0040 DBB2     		uxtb	r3, r3
 1831              		.loc 9 482 26 view .LVU417
 1832 0042 DB43     		mvns	r3, r3
 1833              		.loc 9 482 20 view .LVU418
 1834 0044 84F82836 		strb	r3, [r4, #1576]
 483:Core/Inc/ros/ros/node_handle.h ****     message_out[5] = (uint8_t)((int16_t)id & 255);
 1835              		.loc 9 483 20 view .LVU419
 1836 0048 84F82956 		strb	r5, [r4, #1577]
 484:Core/Inc/ros/ros/node_handle.h ****     message_out[6] = (uint8_t)((int16_t)id >> 8);
 1837              		.loc 9 484 44 view .LVU420
 1838 004c 45F30725 		sbfx	r5, r5, #8, #8
 1839              	.LVL127:
 1840              		.loc 9 484 20 view .LVU421
 1841 0050 84F82A56 		strb	r5, [r4, #1578]
 1842              	.LVL128:
 1843              	.LBB299:
 485:Core/Inc/ros/ros/node_handle.h **** 
 486:Core/Inc/ros/ros/node_handle.h ****     /* calculate checksum */
 487:Core/Inc/ros/ros/node_handle.h ****     int chk = 0;
 488:Core/Inc/ros/ros/node_handle.h ****     for (int i = 5; i < l + 7; i++)
 1844              		.loc 9 488 14 view .LVU422
 1845 0054 0523     		movs	r3, #5
 1846              	.LBE299:
 487:Core/Inc/ros/ros/node_handle.h ****     for (int i = 5; i < l + 7; i++)
 1847              		.loc 9 487 9 view .LVU423
 1848 0056 0022     		movs	r2, #0
 1849              	.LVL129:
 1850              	.L108:
 1851              	.LBB300:
 1852              		.loc 9 488 23 is_stmt 1 discriminator 3 view .LVU424
 1853 0058 811D     		adds	r1, r0, #6
 1854 005a 9942     		cmp	r1, r3
 1855 005c 05DB     		blt	.L107
 489:Core/Inc/ros/ros/node_handle.h ****       chk += message_out[i];
 1856              		.loc 9 489 25 is_stmt 0 discriminator 2 view .LVU425
 1857 005e E118     		adds	r1, r4, r3
 1858 0060 91F82416 		ldrb	r1, [r1, #1572]	@ zero_extendqisi2
 1859              		.loc 9 489 11 discriminator 2 view .LVU426
 1860 0064 0A44     		add	r2, r2, r1
 1861              	.LVL130:
 488:Core/Inc/ros/ros/node_handle.h ****       chk += message_out[i];
 1862              		.loc 9 488 5 is_stmt 1 discriminator 2 view .LVU427
 1863 0066 0133     		adds	r3, r3, #1
 1864              	.LVL131:
ARM GAS  /tmp/ccaSmKi1.s 			page 61


 488:Core/Inc/ros/ros/node_handle.h ****       chk += message_out[i];
 1865              		.loc 9 488 5 is_stmt 0 discriminator 2 view .LVU428
 1866 0068 F6E7     		b	.L108
 1867              	.L107:
 488:Core/Inc/ros/ros/node_handle.h ****       chk += message_out[i];
 1868              		.loc 9 488 5 discriminator 2 view .LVU429
 1869              	.LBE300:
 490:Core/Inc/ros/ros/node_handle.h ****     l += 7;
 1870              		.loc 9 490 7 view .LVU430
 1871 006a C31D     		adds	r3, r0, #7
 1872              	.LVL132:
 491:Core/Inc/ros/ros/node_handle.h ****     message_out[l++] = 255 - (chk % 256);
 1873              		.loc 9 491 35 view .LVU431
 1874 006c 5142     		rsbs	r1, r2, #0
 1875 006e D2B2     		uxtb	r2, r2
 1876              	.LVL133:
 1877              		.loc 9 491 35 view .LVU432
 1878 0070 C9B2     		uxtb	r1, r1
 1879 0072 58BF     		it	pl
 1880 0074 4A42     		rsbpl	r2, r1, #0
 1881              		.loc 9 491 16 view .LVU433
 1882 0076 00F10805 		add	r5, r0, #8
 1883              	.LVL134:
 1884              		.loc 9 491 28 view .LVU434
 1885 007a D243     		mvns	r2, r2
 1886              		.loc 9 491 22 view .LVU435
 1887 007c 2344     		add	r3, r3, r4
 1888 007e 83F82426 		strb	r2, [r3, #1572]
 492:Core/Inc/ros/ros/node_handle.h **** 
 493:Core/Inc/ros/ros/node_handle.h ****     if (l <= OUTPUT_SIZE)
 1889              		.loc 9 493 5 view .LVU436
 1890 0082 B5F5007F 		cmp	r5, #512
 1891 0086 5BDC     		bgt	.L109
 494:Core/Inc/ros/ros/node_handle.h ****     {
 495:Core/Inc/ros/ros/node_handle.h ****       hardware_.write(message_out, l);
 1892              		.loc 9 495 22 view .LVU437
 1893 0088 261D     		adds	r6, r4, #4
 1894              		.loc 9 495 23 view .LVU438
 1895 008a 04F22469 		addw	r9, r4, #1572
 1896              	.LVL135:
 1897              	.LBB301:
 1898              	.LBI301:
  70:Core/Inc/ros/STM32Hardware.h ****     }
  71:Core/Inc/ros/STM32Hardware.h **** 
  72:Core/Inc/ros/STM32Hardware.h ****     STM32Hardware(UART_HandleTypeDef *huart_):
  73:Core/Inc/ros/STM32Hardware.h ****       huart(huart_), rind(0), twind(0), tfind(0){
  74:Core/Inc/ros/STM32Hardware.h ****     }
  75:Core/Inc/ros/STM32Hardware.h ****   
  76:Core/Inc/ros/STM32Hardware.h ****     void init(){
  77:Core/Inc/ros/STM32Hardware.h ****       reset_rbuf();
  78:Core/Inc/ros/STM32Hardware.h ****     }
  79:Core/Inc/ros/STM32Hardware.h **** 
  80:Core/Inc/ros/STM32Hardware.h ****     void reset_rbuf(void){
  81:Core/Inc/ros/STM32Hardware.h ****       HAL_UART_Receive_DMA(huart, rbuf, rbuflen);
  82:Core/Inc/ros/STM32Hardware.h ****     }
  83:Core/Inc/ros/STM32Hardware.h **** 
  84:Core/Inc/ros/STM32Hardware.h ****     int read(){
ARM GAS  /tmp/ccaSmKi1.s 			page 62


  85:Core/Inc/ros/STM32Hardware.h ****       int c = -1;
  86:Core/Inc/ros/STM32Hardware.h ****       if(rind != getRdmaInd()){
  87:Core/Inc/ros/STM32Hardware.h ****         c = rbuf[rind++];
  88:Core/Inc/ros/STM32Hardware.h ****         rind &= rbuflen - 1;
  89:Core/Inc/ros/STM32Hardware.h ****       }
  90:Core/Inc/ros/STM32Hardware.h ****       return c;
  91:Core/Inc/ros/STM32Hardware.h ****     }
  92:Core/Inc/ros/STM32Hardware.h **** 
  93:Core/Inc/ros/STM32Hardware.h ****     void flush(void){
  94:Core/Inc/ros/STM32Hardware.h ****       static bool mutex = false;
  95:Core/Inc/ros/STM32Hardware.h **** 
  96:Core/Inc/ros/STM32Hardware.h ****       if((huart->gState == HAL_UART_STATE_READY) && !mutex){
  97:Core/Inc/ros/STM32Hardware.h ****         mutex = true;
  98:Core/Inc/ros/STM32Hardware.h **** 
  99:Core/Inc/ros/STM32Hardware.h ****         if(twind != tfind){
 100:Core/Inc/ros/STM32Hardware.h ****           uint16_t len = tfind < twind ? twind - tfind : tbuflen - tfind;
 101:Core/Inc/ros/STM32Hardware.h ****           HAL_UART_Transmit_DMA(huart, &(tbuf[tfind]), len);
 102:Core/Inc/ros/STM32Hardware.h ****           tfind = (tfind + len) & (tbuflen - 1);
 103:Core/Inc/ros/STM32Hardware.h ****         }
 104:Core/Inc/ros/STM32Hardware.h ****         mutex = false;
 105:Core/Inc/ros/STM32Hardware.h ****       }
 106:Core/Inc/ros/STM32Hardware.h ****     }
 107:Core/Inc/ros/STM32Hardware.h **** 
 108:Core/Inc/ros/STM32Hardware.h ****     void write(uint8_t* data, int length){
 1899              		.loc 10 108 10 is_stmt 1 view .LVU439
 1900              	.LBB302:
 109:Core/Inc/ros/STM32Hardware.h ****       int n = length;
 1901              		.loc 10 109 7 view .LVU440
 110:Core/Inc/ros/STM32Hardware.h ****       n = n <= tbuflen ? n : tbuflen;
 1902              		.loc 10 110 7 view .LVU441
 1903              		.loc 10 110 9 is_stmt 0 view .LVU442
 1904 008e A846     		mov	r8, r5
 1905 0090 B5F5007F 		cmp	r5, #512
 1906 0094 A8BF     		it	ge
 1907 0096 4FF40078 		movge	r8, #512
 1908              	.LVL136:
 111:Core/Inc/ros/STM32Hardware.h **** 
 112:Core/Inc/ros/STM32Hardware.h ****       int n_tail = n <= tbuflen - twind ? n : tbuflen - twind;
 1909              		.loc 10 112 7 is_stmt 1 view .LVU443
 1910              		.loc 10 112 35 is_stmt 0 view .LVU444
 1911 009a D6F80804 		ldr	r0, [r6, #1032]
 1912              		.loc 10 112 33 view .LVU445
 1913 009e C0F50077 		rsb	r7, r0, #512
 1914              		.loc 10 112 41 view .LVU446
 1915 00a2 4745     		cmp	r7, r8
 1916 00a4 28BF     		it	cs
 1917 00a6 4746     		movcs	r7, r8
 1918              	.LVL137:
 113:Core/Inc/ros/STM32Hardware.h ****       memcpy(&(tbuf[twind]), data, n_tail);
 1919              		.loc 10 113 7 is_stmt 1 view .LVU447
 1920              		.loc 10 113 14 is_stmt 0 view .LVU448
 1921 00a8 00F50270 		add	r0, r0, #520
 1922              		.loc 10 113 13 view .LVU449
 1923 00ac 3A46     		mov	r2, r7
 1924 00ae 4946     		mov	r1, r9
 1925 00b0 3044     		add	r0, r0, r6
 1926 00b2 FFF7FEFF 		bl	memcpy
ARM GAS  /tmp/ccaSmKi1.s 			page 63


 1927              	.LVL138:
 114:Core/Inc/ros/STM32Hardware.h ****       twind = (twind + n) & (tbuflen - 1);
 1928              		.loc 10 114 7 is_stmt 1 view .LVU450
 1929              		.loc 10 114 16 is_stmt 0 view .LVU451
 1930 00b6 D6F80834 		ldr	r3, [r6, #1032]
 1931              		.loc 10 114 22 view .LVU452
 1932 00ba 4344     		add	r3, r3, r8
 1933              		.loc 10 114 27 view .LVU453
 1934 00bc C3F30803 		ubfx	r3, r3, #0, #9
 1935              		.loc 10 114 13 view .LVU454
 1936 00c0 C6F80834 		str	r3, [r6, #1032]
 115:Core/Inc/ros/STM32Hardware.h **** 
 116:Core/Inc/ros/STM32Hardware.h ****       if(n != n_tail){
 1937              		.loc 10 116 7 is_stmt 1 view .LVU455
 1938 00c4 B845     		cmp	r8, r7
 1939 00c6 09D1     		bne	.L117
 1940              	.L110:
 117:Core/Inc/ros/STM32Hardware.h ****         memcpy(tbuf, &(data[n_tail]), n - n_tail);
 118:Core/Inc/ros/STM32Hardware.h ****       }
 119:Core/Inc/ros/STM32Hardware.h **** 
 120:Core/Inc/ros/STM32Hardware.h ****       flush();
 1941              		.loc 10 120 7 view .LVU456
 1942              	.LVL139:
 1943              	.LBB303:
 1944              	.LBI303:
  93:Core/Inc/ros/STM32Hardware.h ****       static bool mutex = false;
 1945              		.loc 10 93 10 view .LVU457
 1946              	.LBB304:
  94:Core/Inc/ros/STM32Hardware.h **** 
 1947              		.loc 10 94 7 view .LVU458
  96:Core/Inc/ros/STM32Hardware.h ****         mutex = true;
 1948              		.loc 10 96 7 view .LVU459
 1949              	.LBB305:
  96:Core/Inc/ros/STM32Hardware.h ****         mutex = true;
 1950              		.loc 10 96 11 is_stmt 0 view .LVU460
 1951 00c8 6368     		ldr	r3, [r4, #4]
  96:Core/Inc/ros/STM32Hardware.h ****         mutex = true;
 1952              		.loc 10 96 18 view .LVU461
 1953 00ca 93F83930 		ldrb	r3, [r3, #57]	@ zero_extendqisi2
 1954 00ce DBB2     		uxtb	r3, r3
  96:Core/Inc/ros/STM32Hardware.h ****         mutex = true;
 1955              		.loc 10 96 50 view .LVU462
 1956 00d0 202B     		cmp	r3, #32
 1957 00d2 0CD0     		beq	.L118
 1958              	.LVL140:
 1959              	.L104:
  96:Core/Inc/ros/STM32Hardware.h ****         mutex = true;
 1960              		.loc 10 96 50 view .LVU463
 1961              	.LBE305:
 1962              	.LBE304:
 1963              	.LBE303:
 1964              	.LBE302:
 1965              	.LBE301:
 496:Core/Inc/ros/ros/node_handle.h ****       return l;
 497:Core/Inc/ros/ros/node_handle.h ****     }
 498:Core/Inc/ros/ros/node_handle.h ****     else
 499:Core/Inc/ros/ros/node_handle.h ****     {
ARM GAS  /tmp/ccaSmKi1.s 			page 64


 500:Core/Inc/ros/ros/node_handle.h ****       logerror("Message from device dropped: message larger than buffer.");
 501:Core/Inc/ros/ros/node_handle.h ****       return -1;
 502:Core/Inc/ros/ros/node_handle.h ****     }
 503:Core/Inc/ros/ros/node_handle.h ****   }
 1966              		.loc 9 503 3 view .LVU464
 1967 00d4 2846     		mov	r0, r5
 1968 00d6 05B0     		add	sp, sp, #20
 1969              	.LCFI13:
 1970              		.cfi_remember_state
 1971              		.cfi_def_cfa_offset 28
 1972              		@ sp needed
 1973 00d8 BDE8F083 		pop	{r4, r5, r6, r7, r8, r9, pc}
 1974              	.LVL141:
 1975              	.L117:
 1976              	.LCFI14:
 1977              		.cfi_restore_state
 1978              	.LBB317:
 1979              	.LBB316:
 117:Core/Inc/ros/STM32Hardware.h ****       }
 1980              		.loc 10 117 9 is_stmt 1 view .LVU465
 117:Core/Inc/ros/STM32Hardware.h ****       }
 1981              		.loc 10 117 15 is_stmt 0 view .LVU466
 1982 00dc A8EB0702 		sub	r2, r8, r7
 1983 00e0 09EB0701 		add	r1, r9, r7
 1984 00e4 06F50270 		add	r0, r6, #520
 1985 00e8 FFF7FEFF 		bl	memcpy
 1986              	.LVL142:
 1987 00ec ECE7     		b	.L110
 1988              	.LVL143:
 1989              	.L118:
 1990              	.LBB315:
 1991              	.LBB314:
 1992              	.LBB312:
  96:Core/Inc/ros/STM32Hardware.h ****         mutex = true;
 1993              		.loc 10 96 53 view .LVU467
 1994 00ee 214B     		ldr	r3, .L119
 1995 00f0 1B78     		ldrb	r3, [r3]	@ zero_extendqisi2
  96:Core/Inc/ros/STM32Hardware.h ****         mutex = true;
 1996              		.loc 10 96 50 view .LVU468
 1997 00f2 002B     		cmp	r3, #0
 1998 00f4 EED1     		bne	.L104
 1999              	.LBB306:
  97:Core/Inc/ros/STM32Hardware.h **** 
 2000              		.loc 10 97 9 is_stmt 1 view .LVU469
  97:Core/Inc/ros/STM32Hardware.h **** 
 2001              		.loc 10 97 15 is_stmt 0 view .LVU470
 2002 00f6 1F4B     		ldr	r3, .L119
 2003 00f8 0122     		movs	r2, #1
 2004 00fa 1A70     		strb	r2, [r3]
  99:Core/Inc/ros/STM32Hardware.h ****           uint16_t len = tfind < twind ? twind - tfind : tbuflen - tfind;
 2005              		.loc 10 99 9 is_stmt 1 view .LVU471
 2006              	.LBB307:
  99:Core/Inc/ros/STM32Hardware.h ****           uint16_t len = tfind < twind ? twind - tfind : tbuflen - tfind;
 2007              		.loc 10 99 12 is_stmt 0 view .LVU472
 2008 00fc D6F80874 		ldr	r7, [r6, #1032]
 2009              	.LVL144:
  99:Core/Inc/ros/STM32Hardware.h ****           uint16_t len = tfind < twind ? twind - tfind : tbuflen - tfind;
ARM GAS  /tmp/ccaSmKi1.s 			page 65


 2010              		.loc 10 99 21 view .LVU473
 2011 0100 D6F80C14 		ldr	r1, [r6, #1036]
  99:Core/Inc/ros/STM32Hardware.h ****           uint16_t len = tfind < twind ? twind - tfind : tbuflen - tfind;
 2012              		.loc 10 99 9 view .LVU474
 2013 0104 8F42     		cmp	r7, r1
 2014 0106 12D0     		beq	.L112
 2015              	.LBB308:
 100:Core/Inc/ros/STM32Hardware.h ****           HAL_UART_Transmit_DMA(huart, &(tbuf[tfind]), len);
 2016              		.loc 10 100 11 is_stmt 1 view .LVU475
 100:Core/Inc/ros/STM32Hardware.h ****           HAL_UART_Transmit_DMA(huart, &(tbuf[tfind]), len);
 2017              		.loc 10 100 20 is_stmt 0 view .LVU476
 2018 0108 15D9     		bls	.L113
 100:Core/Inc/ros/STM32Hardware.h ****           HAL_UART_Transmit_DMA(huart, &(tbuf[tfind]), len);
 2019              		.loc 10 100 48 view .LVU477
 2020 010a BFB2     		uxth	r7, r7
 2021 010c 8BB2     		uxth	r3, r1
 100:Core/Inc/ros/STM32Hardware.h ****           HAL_UART_Transmit_DMA(huart, &(tbuf[tfind]), len);
 2022              		.loc 10 100 20 view .LVU478
 2023 010e FF1A     		subs	r7, r7, r3
 2024 0110 BFB2     		uxth	r7, r7
 2025              	.L114:
 2026              	.LVL145:
 101:Core/Inc/ros/STM32Hardware.h ****           tfind = (tfind + len) & (tbuflen - 1);
 2027              		.loc 10 101 11 is_stmt 1 view .LVU479
 101:Core/Inc/ros/STM32Hardware.h ****           tfind = (tfind + len) & (tbuflen - 1);
 2028              		.loc 10 101 32 is_stmt 0 view .LVU480
 2029 0112 01F50271 		add	r1, r1, #520
 2030 0116 3A46     		mov	r2, r7
 2031 0118 3144     		add	r1, r1, r6
 2032 011a 6068     		ldr	r0, [r4, #4]
 2033 011c FFF7FEFF 		bl	HAL_UART_Transmit_DMA
 2034              	.LVL146:
 102:Core/Inc/ros/STM32Hardware.h ****         }
 2035              		.loc 10 102 11 is_stmt 1 view .LVU481
 102:Core/Inc/ros/STM32Hardware.h ****         }
 2036              		.loc 10 102 20 is_stmt 0 view .LVU482
 2037 0120 D6F80C34 		ldr	r3, [r6, #1036]
 102:Core/Inc/ros/STM32Hardware.h ****         }
 2038              		.loc 10 102 26 view .LVU483
 2039 0124 3B44     		add	r3, r3, r7
 102:Core/Inc/ros/STM32Hardware.h ****         }
 2040              		.loc 10 102 33 view .LVU484
 2041 0126 C3F30803 		ubfx	r3, r3, #0, #9
 102:Core/Inc/ros/STM32Hardware.h ****         }
 2042              		.loc 10 102 17 view .LVU485
 2043 012a C6F80C34 		str	r3, [r6, #1036]
 2044              	.LVL147:
 2045              	.L112:
 102:Core/Inc/ros/STM32Hardware.h ****         }
 2046              		.loc 10 102 17 view .LVU486
 2047              	.LBE308:
 2048              	.LBE307:
 104:Core/Inc/ros/STM32Hardware.h ****       }
 2049              		.loc 10 104 9 is_stmt 1 view .LVU487
 104:Core/Inc/ros/STM32Hardware.h ****       }
 2050              		.loc 10 104 15 is_stmt 0 view .LVU488
 2051 012e 114B     		ldr	r3, .L119
ARM GAS  /tmp/ccaSmKi1.s 			page 66


 2052 0130 0022     		movs	r2, #0
 2053 0132 1A70     		strb	r2, [r3]
 2054              	.LBE306:
 2055              	.LBE312:
 106:Core/Inc/ros/STM32Hardware.h **** 
 2056              		.loc 10 106 5 view .LVU489
 2057 0134 CEE7     		b	.L104
 2058              	.L113:
 2059              	.LBB313:
 2060              	.LBB311:
 2061              	.LBB310:
 2062              	.LBB309:
 100:Core/Inc/ros/STM32Hardware.h ****           HAL_UART_Transmit_DMA(huart, &(tbuf[tfind]), len);
 2063              		.loc 10 100 66 view .LVU490
 2064 0136 8FB2     		uxth	r7, r1
 100:Core/Inc/ros/STM32Hardware.h ****           HAL_UART_Transmit_DMA(huart, &(tbuf[tfind]), len);
 2065              		.loc 10 100 20 view .LVU491
 2066 0138 C7F50077 		rsb	r7, r7, #512
 2067 013c BFB2     		uxth	r7, r7
 2068 013e E8E7     		b	.L114
 2069              	.LVL148:
 2070              	.L109:
 100:Core/Inc/ros/STM32Hardware.h ****           HAL_UART_Transmit_DMA(huart, &(tbuf[tfind]), len);
 2071              		.loc 10 100 20 view .LVU492
 2072              	.LBE309:
 2073              	.LBE310:
 2074              	.LBE311:
 2075              	.LBE313:
 2076              	.LBE314:
 2077              	.LBE315:
 2078              	.LBE316:
 2079              	.LBE317:
 2080              	.LBB318:
 2081              	.LBI318:
 504:Core/Inc/ros/ros/node_handle.h **** 
 505:Core/Inc/ros/ros/node_handle.h ****   /********************************************************************
 506:Core/Inc/ros/ros/node_handle.h ****    * Logging
 507:Core/Inc/ros/ros/node_handle.h ****    */
 508:Core/Inc/ros/ros/node_handle.h **** 
 509:Core/Inc/ros/ros/node_handle.h **** protected:
 510:Core/Inc/ros/ros/node_handle.h ****   void log(char byte, const char * msg)
 511:Core/Inc/ros/ros/node_handle.h ****   {
 512:Core/Inc/ros/ros/node_handle.h ****     rosserial_msgs::Log l;
 513:Core/Inc/ros/ros/node_handle.h ****     l.level = byte;
 514:Core/Inc/ros/ros/node_handle.h ****     l.msg = (char*)msg;
 515:Core/Inc/ros/ros/node_handle.h ****     publish(rosserial_msgs::TopicInfo::ID_LOG, &l);
 516:Core/Inc/ros/ros/node_handle.h ****   }
 517:Core/Inc/ros/ros/node_handle.h **** 
 518:Core/Inc/ros/ros/node_handle.h **** public:
 519:Core/Inc/ros/ros/node_handle.h ****   void logdebug(const char* msg)
 520:Core/Inc/ros/ros/node_handle.h ****   {
 521:Core/Inc/ros/ros/node_handle.h ****     log(rosserial_msgs::Log::ROSDEBUG, msg);
 522:Core/Inc/ros/ros/node_handle.h ****   }
 523:Core/Inc/ros/ros/node_handle.h ****   void loginfo(const char * msg)
 524:Core/Inc/ros/ros/node_handle.h ****   {
 525:Core/Inc/ros/ros/node_handle.h ****     log(rosserial_msgs::Log::INFO, msg);
 526:Core/Inc/ros/ros/node_handle.h ****   }
ARM GAS  /tmp/ccaSmKi1.s 			page 67


 527:Core/Inc/ros/ros/node_handle.h ****   void logwarn(const char *msg)
 528:Core/Inc/ros/ros/node_handle.h ****   {
 529:Core/Inc/ros/ros/node_handle.h ****     log(rosserial_msgs::Log::WARN, msg);
 530:Core/Inc/ros/ros/node_handle.h ****   }
 531:Core/Inc/ros/ros/node_handle.h ****   void logerror(const char*msg)
 2082              		.loc 9 531 8 is_stmt 1 view .LVU493
 2083              	.LBB319:
 2084              	.LBI319:
 510:Core/Inc/ros/ros/node_handle.h ****   {
 2085              		.loc 9 510 8 view .LVU494
 2086              	.LBB320:
 2087              	.LBB321:
 2088              	.LBI321:
  25:Core/Inc/ros/rosserial_msgs/Log.h ****       level(0),
 2089              		.loc 4 25 5 view .LVU495
 2090              	.LBB322:
 2091              	.LBB323:
 2092              	.LBB324:
 2093              	.LBI324:
 2094              		.loc 11 46 7 view .LVU496
 2095              	.LBB325:
 2096 0140 0D4B     		ldr	r3, .L119+4
 2097 0142 0193     		str	r3, [sp, #4]
 2098              	.LVL149:
 2099              		.loc 11 46 7 is_stmt 0 view .LVU497
 2100              	.LBE325:
 2101              	.LBE324:
  27:Core/Inc/ros/rosserial_msgs/Log.h ****     {
 2102              		.loc 4 27 13 view .LVU498
 2103 0144 0D4B     		ldr	r3, .L119+8
 2104 0146 0193     		str	r3, [sp, #4]
 2105 0148 0023     		movs	r3, #0
 2106 014a 8DF80830 		strb	r3, [sp, #8]
 2107 014e 0C4B     		ldr	r3, .L119+12
 2108 0150 0393     		str	r3, [sp, #12]
 2109              	.LVL150:
  27:Core/Inc/ros/rosserial_msgs/Log.h ****     {
 2110              		.loc 4 27 13 view .LVU499
 2111              	.LBE323:
 2112              	.LBE322:
 2113              	.LBE321:
 513:Core/Inc/ros/ros/node_handle.h ****     l.msg = (char*)msg;
 2114              		.loc 9 513 13 view .LVU500
 2115 0152 0323     		movs	r3, #3
 2116 0154 8DF80830 		strb	r3, [sp, #8]
 514:Core/Inc/ros/ros/node_handle.h ****     publish(rosserial_msgs::TopicInfo::ID_LOG, &l);
 2117              		.loc 9 514 11 view .LVU501
 2118 0158 0A4B     		ldr	r3, .L119+16
 2119 015a 0393     		str	r3, [sp, #12]
 515:Core/Inc/ros/ros/node_handle.h ****   }
 2120              		.loc 9 515 12 view .LVU502
 2121 015c 2368     		ldr	r3, [r4]
 2122 015e 1B68     		ldr	r3, [r3]
 2123 0160 01AA     		add	r2, sp, #4
 2124 0162 0721     		movs	r1, #7
 2125 0164 2046     		mov	r0, r4
 2126 0166 9847     		blx	r3
ARM GAS  /tmp/ccaSmKi1.s 			page 68


 2127              	.LVL151:
 2128              	.LBE320:
 2129              	.LBE319:
 2130              	.LBE318:
 501:Core/Inc/ros/ros/node_handle.h ****     }
 2131              		.loc 9 501 15 view .LVU503
 2132 0168 4FF0FF35 		mov	r5, #-1
 2133              	.LVL152:
 2134              	.LBB328:
 2135              	.LBB327:
 2136              	.LBB326:
 516:Core/Inc/ros/ros/node_handle.h **** 
 2137              		.loc 9 516 3 view .LVU504
 2138 016c B2E7     		b	.L104
 2139              	.LVL153:
 2140              	.L115:
 516:Core/Inc/ros/ros/node_handle.h **** 
 2141              		.loc 9 516 3 view .LVU505
 2142              	.LBE326:
 2143              	.LBE327:
 2144              	.LBE328:
 472:Core/Inc/ros/ros/node_handle.h **** 
 2145              		.loc 9 472 14 view .LVU506
 2146 016e 0025     		movs	r5, #0
 2147 0170 B0E7     		b	.L104
 2148              	.L120:
 2149 0172 00BF     		.align	2
 2150              	.L119:
 2151 0174 00000000 		.word	_ZZN13STM32Hardware5flushEvE5mutex
 2152 0178 08000000 		.word	_ZTVN3ros3MsgE+8
 2153 017c 08000000 		.word	_ZTVN14rosserial_msgs3LogE+8
 2154 0180 00000000 		.word	.LC16
 2155 0184 04000000 		.word	.LC17
 2156              		.cfi_endproc
 2157              	.LFE574:
 2159              		.section	.text._ZNK14rosserial_msgs9TopicInfo9serializeEPh,"axG",%progbits,_ZNK14rosserial_msgs9To
 2160              		.align	1
 2161              		.weak	_ZNK14rosserial_msgs9TopicInfo9serializeEPh
 2162              		.syntax unified
 2163              		.thumb
 2164              		.thumb_func
 2165              		.fpu fpv4-sp-d16
 2167              	_ZNK14rosserial_msgs9TopicInfo9serializeEPh:
 2168              	.LVL154:
 2169              	.LFB431:
  43:Core/Inc/ros/rosserial_msgs/TopicInfo.h ****     {
 2170              		.loc 3 43 17 is_stmt 1 view -0
 2171              		.cfi_startproc
 2172              		@ args = 0, pretend = 0, frame = 0
 2173              		@ frame_needed = 0, uses_anonymous_args = 0
  43:Core/Inc/ros/rosserial_msgs/TopicInfo.h ****     {
 2174              		.loc 3 43 17 is_stmt 0 view .LVU508
 2175 0000 2DE9F041 		push	{r4, r5, r6, r7, r8, lr}
 2176              	.LCFI15:
 2177              		.cfi_def_cfa_offset 24
 2178              		.cfi_offset 4, -24
 2179              		.cfi_offset 5, -20
ARM GAS  /tmp/ccaSmKi1.s 			page 69


 2180              		.cfi_offset 6, -16
 2181              		.cfi_offset 7, -12
 2182              		.cfi_offset 8, -8
 2183              		.cfi_offset 14, -4
 2184 0004 0646     		mov	r6, r0
 2185 0006 0D46     		mov	r5, r1
  45:Core/Inc/ros/rosserial_msgs/TopicInfo.h ****       *(outbuffer + offset + 0) = (this->topic_id >> (8 * 0)) & 0xFF;
 2186              		.loc 3 45 7 is_stmt 1 view .LVU509
 2187              	.LVL155:
  46:Core/Inc/ros/rosserial_msgs/TopicInfo.h ****       *(outbuffer + offset + 1) = (this->topic_id >> (8 * 1)) & 0xFF;
 2188              		.loc 3 46 7 view .LVU510
  46:Core/Inc/ros/rosserial_msgs/TopicInfo.h ****       *(outbuffer + offset + 1) = (this->topic_id >> (8 * 1)) & 0xFF;
 2189              		.loc 3 46 42 is_stmt 0 view .LVU511
 2190 0008 8388     		ldrh	r3, [r0, #4]
  46:Core/Inc/ros/rosserial_msgs/TopicInfo.h ****       *(outbuffer + offset + 1) = (this->topic_id >> (8 * 1)) & 0xFF;
 2191              		.loc 3 46 33 view .LVU512
 2192 000a 0B70     		strb	r3, [r1]
  47:Core/Inc/ros/rosserial_msgs/TopicInfo.h ****       offset += sizeof(this->topic_id);
 2193              		.loc 3 47 7 is_stmt 1 view .LVU513
  47:Core/Inc/ros/rosserial_msgs/TopicInfo.h ****       offset += sizeof(this->topic_id);
 2194              		.loc 3 47 42 is_stmt 0 view .LVU514
 2195 000c 8388     		ldrh	r3, [r0, #4]
  47:Core/Inc/ros/rosserial_msgs/TopicInfo.h ****       offset += sizeof(this->topic_id);
 2196              		.loc 3 47 51 view .LVU515
 2197 000e 1B0A     		lsrs	r3, r3, #8
  47:Core/Inc/ros/rosserial_msgs/TopicInfo.h ****       offset += sizeof(this->topic_id);
 2198              		.loc 3 47 33 view .LVU516
 2199 0010 4B70     		strb	r3, [r1, #1]
  48:Core/Inc/ros/rosserial_msgs/TopicInfo.h ****       uint32_t length_topic_name = strlen(this->topic_name);
 2200              		.loc 3 48 7 is_stmt 1 view .LVU517
 2201              	.LVL156:
  49:Core/Inc/ros/rosserial_msgs/TopicInfo.h ****       varToArr(outbuffer + offset, length_topic_name);
 2202              		.loc 3 49 7 view .LVU518
  49:Core/Inc/ros/rosserial_msgs/TopicInfo.h ****       varToArr(outbuffer + offset, length_topic_name);
 2203              		.loc 3 49 42 is_stmt 0 view .LVU519
 2204 0012 8068     		ldr	r0, [r0, #8]
 2205              	.LVL157:
  49:Core/Inc/ros/rosserial_msgs/TopicInfo.h ****       varToArr(outbuffer + offset, length_topic_name);
 2206              		.loc 3 49 42 view .LVU520
 2207 0014 FFF7FEFF 		bl	strlen
 2208              	.LVL158:
  49:Core/Inc/ros/rosserial_msgs/TopicInfo.h ****       varToArr(outbuffer + offset, length_topic_name);
 2209              		.loc 3 49 42 view .LVU521
 2210 0018 0446     		mov	r4, r0
 2211              	.LVL159:
  50:Core/Inc/ros/rosserial_msgs/TopicInfo.h ****       offset += 4;
 2212              		.loc 3 50 7 is_stmt 1 view .LVU522
 2213              	.LBB329:
 2214              	.LBI329:
  47:Core/Inc/ros/ros/msg.h **** {
  48:Core/Inc/ros/ros/msg.h **** public:
  49:Core/Inc/ros/ros/msg.h ****   virtual int serialize(unsigned char *outbuffer) const = 0;
  50:Core/Inc/ros/ros/msg.h ****   virtual int deserialize(unsigned char *data) = 0;
  51:Core/Inc/ros/ros/msg.h ****   virtual const char * getType() = 0;
  52:Core/Inc/ros/ros/msg.h ****   virtual const char * getMD5() = 0;
  53:Core/Inc/ros/ros/msg.h **** 
  54:Core/Inc/ros/ros/msg.h ****   /**
ARM GAS  /tmp/ccaSmKi1.s 			page 70


  55:Core/Inc/ros/ros/msg.h ****    * @brief This tricky function handles promoting a 32bit float to a 64bit
  56:Core/Inc/ros/ros/msg.h ****    *        double, so that AVR can publish messages containing float64
  57:Core/Inc/ros/ros/msg.h ****    *        fields, despite AVR having no native support for double.
  58:Core/Inc/ros/ros/msg.h ****    *
  59:Core/Inc/ros/ros/msg.h ****    * @param[out] outbuffer pointer for buffer to serialize to.
  60:Core/Inc/ros/ros/msg.h ****    * @param[in] f value to serialize.
  61:Core/Inc/ros/ros/msg.h ****    *
  62:Core/Inc/ros/ros/msg.h ****    * @return number of bytes to advance the buffer pointer.
  63:Core/Inc/ros/ros/msg.h ****    *
  64:Core/Inc/ros/ros/msg.h ****    */
  65:Core/Inc/ros/ros/msg.h ****   static int serializeAvrFloat64(unsigned char* outbuffer, const float f)
  66:Core/Inc/ros/ros/msg.h ****   {
  67:Core/Inc/ros/ros/msg.h ****     int32_t val;
  68:Core/Inc/ros/ros/msg.h ****     std::memcpy(&val, &f, sizeof(val));
  69:Core/Inc/ros/ros/msg.h **** 
  70:Core/Inc/ros/ros/msg.h ****     int16_t exp = ((val >> 23) & 255);
  71:Core/Inc/ros/ros/msg.h ****     uint32_t mantissa = val & 0x7FFFFF;
  72:Core/Inc/ros/ros/msg.h **** 
  73:Core/Inc/ros/ros/msg.h ****     if (exp == 255)
  74:Core/Inc/ros/ros/msg.h ****     {
  75:Core/Inc/ros/ros/msg.h ****       exp = 2047; // Special value for NaN, infinity etc.
  76:Core/Inc/ros/ros/msg.h ****     }
  77:Core/Inc/ros/ros/msg.h ****     else if (exp != 0)
  78:Core/Inc/ros/ros/msg.h ****     {
  79:Core/Inc/ros/ros/msg.h ****       exp += 1023 - 127; // Normal case
  80:Core/Inc/ros/ros/msg.h ****     }
  81:Core/Inc/ros/ros/msg.h ****     else if (!mantissa)
  82:Core/Inc/ros/ros/msg.h ****     {
  83:Core/Inc/ros/ros/msg.h ****       exp = 0; // Zero
  84:Core/Inc/ros/ros/msg.h ****     }
  85:Core/Inc/ros/ros/msg.h ****     else
  86:Core/Inc/ros/ros/msg.h ****     {
  87:Core/Inc/ros/ros/msg.h ****       // Denormalized value in float, will fit as normalized value in double
  88:Core/Inc/ros/ros/msg.h ****       exp += 1023 - 127;
  89:Core/Inc/ros/ros/msg.h ****       mantissa <<= 1;
  90:Core/Inc/ros/ros/msg.h ****       while (!(mantissa & 0x800000))
  91:Core/Inc/ros/ros/msg.h ****       {
  92:Core/Inc/ros/ros/msg.h ****           mantissa <<= 1;
  93:Core/Inc/ros/ros/msg.h ****           exp--;
  94:Core/Inc/ros/ros/msg.h ****       }
  95:Core/Inc/ros/ros/msg.h ****       mantissa &= 0x7FFFFF;
  96:Core/Inc/ros/ros/msg.h ****     }
  97:Core/Inc/ros/ros/msg.h **** 
  98:Core/Inc/ros/ros/msg.h ****     *(outbuffer++) = 0;
  99:Core/Inc/ros/ros/msg.h ****     *(outbuffer++) = 0;
 100:Core/Inc/ros/ros/msg.h ****     *(outbuffer++) = 0;
 101:Core/Inc/ros/ros/msg.h ****     *(outbuffer++) = (mantissa << 5) & 0xff;
 102:Core/Inc/ros/ros/msg.h ****     *(outbuffer++) = (mantissa >> 3) & 0xff;
 103:Core/Inc/ros/ros/msg.h ****     *(outbuffer++) = (mantissa >> 11) & 0xff;
 104:Core/Inc/ros/ros/msg.h ****     *(outbuffer++) = ((exp << 4) & 0xF0) | ((mantissa >> 19) & 0x0F);
 105:Core/Inc/ros/ros/msg.h ****     *(outbuffer++) = (exp >> 4) & 0x7F;
 106:Core/Inc/ros/ros/msg.h **** 
 107:Core/Inc/ros/ros/msg.h ****     // Mark negative bit as necessary.
 108:Core/Inc/ros/ros/msg.h ****     if (f < 0)
 109:Core/Inc/ros/ros/msg.h ****     {
 110:Core/Inc/ros/ros/msg.h ****       *(outbuffer - 1) |= 0x80;
 111:Core/Inc/ros/ros/msg.h ****     }
ARM GAS  /tmp/ccaSmKi1.s 			page 71


 112:Core/Inc/ros/ros/msg.h **** 
 113:Core/Inc/ros/ros/msg.h ****     return 8;
 114:Core/Inc/ros/ros/msg.h ****   }
 115:Core/Inc/ros/ros/msg.h **** 
 116:Core/Inc/ros/ros/msg.h ****   /**
 117:Core/Inc/ros/ros/msg.h ****    * @brief This tricky function handles demoting a 64bit double to a
 118:Core/Inc/ros/ros/msg.h ****    *        32bit float, so that AVR can understand messages containing
 119:Core/Inc/ros/ros/msg.h ****    *        float64 fields, despite AVR having no native support for double.
 120:Core/Inc/ros/ros/msg.h ****    *
 121:Core/Inc/ros/ros/msg.h ****    * @param[in] inbuffer pointer for buffer to deserialize from.
 122:Core/Inc/ros/ros/msg.h ****    * @param[out] f pointer to place the deserialized value in.
 123:Core/Inc/ros/ros/msg.h ****    *
 124:Core/Inc/ros/ros/msg.h ****    * @return number of bytes to advance the buffer pointer.
 125:Core/Inc/ros/ros/msg.h ****    */
 126:Core/Inc/ros/ros/msg.h ****   static int deserializeAvrFloat64(const unsigned char* inbuffer, float* f)
 127:Core/Inc/ros/ros/msg.h ****   {
 128:Core/Inc/ros/ros/msg.h ****     int16_t exp;
 129:Core/Inc/ros/ros/msg.h ****     uint32_t mantissa;
 130:Core/Inc/ros/ros/msg.h **** 
 131:Core/Inc/ros/ros/msg.h ****     // Skip lowest 24 bits
 132:Core/Inc/ros/ros/msg.h ****     inbuffer += 3;
 133:Core/Inc/ros/ros/msg.h **** 
 134:Core/Inc/ros/ros/msg.h ****     // Copy truncated mantissa.
 135:Core/Inc/ros/ros/msg.h ****     mantissa = ((uint32_t)(*(inbuffer++)) >> 4 & 0x0F);
 136:Core/Inc/ros/ros/msg.h ****     mantissa |= ((uint32_t)(*(inbuffer++)) & 0xff) << 4;
 137:Core/Inc/ros/ros/msg.h ****     mantissa |= ((uint32_t)(*(inbuffer++)) & 0xff) << 12;
 138:Core/Inc/ros/ros/msg.h ****     mantissa |= ((uint32_t)(*inbuffer) & 0x0f) << 20;
 139:Core/Inc/ros/ros/msg.h **** 
 140:Core/Inc/ros/ros/msg.h ****     // Copy exponent.
 141:Core/Inc/ros/ros/msg.h ****     exp = ((uint32_t)(*(inbuffer++)) & 0xf0) >> 4;
 142:Core/Inc/ros/ros/msg.h ****     exp |= ((uint32_t)(*inbuffer) & 0x7f) << 4;
 143:Core/Inc/ros/ros/msg.h **** 
 144:Core/Inc/ros/ros/msg.h ****     if (exp == 2047)
 145:Core/Inc/ros/ros/msg.h ****     {
 146:Core/Inc/ros/ros/msg.h ****       exp = 255; // NaN, infinity etc.
 147:Core/Inc/ros/ros/msg.h ****     }
 148:Core/Inc/ros/ros/msg.h ****     else if (exp - 1023 > 127)
 149:Core/Inc/ros/ros/msg.h ****     {
 150:Core/Inc/ros/ros/msg.h ****       exp = 255;
 151:Core/Inc/ros/ros/msg.h ****       mantissa = 0; // Too large for float, convert to infinity
 152:Core/Inc/ros/ros/msg.h ****     }
 153:Core/Inc/ros/ros/msg.h ****     else if (exp - 1023 >= -126)
 154:Core/Inc/ros/ros/msg.h ****     {
 155:Core/Inc/ros/ros/msg.h ****       exp -= 1023 - 127; // Normal case
 156:Core/Inc/ros/ros/msg.h ****     }
 157:Core/Inc/ros/ros/msg.h ****     else if (exp - 1023 < -150)
 158:Core/Inc/ros/ros/msg.h ****     {
 159:Core/Inc/ros/ros/msg.h ****       exp = 0; // Too small or zero
 160:Core/Inc/ros/ros/msg.h ****     }
 161:Core/Inc/ros/ros/msg.h ****     else
 162:Core/Inc/ros/ros/msg.h ****     {
 163:Core/Inc/ros/ros/msg.h ****       // Have to convert to denormalized representation for float
 164:Core/Inc/ros/ros/msg.h ****       mantissa |= 0x1000000;
 165:Core/Inc/ros/ros/msg.h ****       mantissa >>= ((-126 + 1023) - exp);
 166:Core/Inc/ros/ros/msg.h ****       exp = 0;
 167:Core/Inc/ros/ros/msg.h ****     }
 168:Core/Inc/ros/ros/msg.h **** 
ARM GAS  /tmp/ccaSmKi1.s 			page 72


 169:Core/Inc/ros/ros/msg.h ****     // Round off mantissa
 170:Core/Inc/ros/ros/msg.h ****     if (mantissa != 0xFFFFFF)
 171:Core/Inc/ros/ros/msg.h ****       mantissa += 1;
 172:Core/Inc/ros/ros/msg.h **** 
 173:Core/Inc/ros/ros/msg.h ****     mantissa >>= 1;
 174:Core/Inc/ros/ros/msg.h **** 
 175:Core/Inc/ros/ros/msg.h ****     // Put mantissa and exponent into place
 176:Core/Inc/ros/ros/msg.h ****     uint32_t val = mantissa;
 177:Core/Inc/ros/ros/msg.h ****     val |= static_cast<uint32_t>(exp) << 23;
 178:Core/Inc/ros/ros/msg.h **** 
 179:Core/Inc/ros/ros/msg.h ****     // Copy negative sign.
 180:Core/Inc/ros/ros/msg.h ****     val |= (static_cast<uint32_t>(*(inbuffer++)) & 0x80) << 24;
 181:Core/Inc/ros/ros/msg.h **** 
 182:Core/Inc/ros/ros/msg.h ****     std::memcpy(f, &val, sizeof(val));
 183:Core/Inc/ros/ros/msg.h ****     return 8;
 184:Core/Inc/ros/ros/msg.h ****   }
 185:Core/Inc/ros/ros/msg.h **** 
 186:Core/Inc/ros/ros/msg.h ****   // Copy data from variable into a byte array
 187:Core/Inc/ros/ros/msg.h ****   template<typename A, typename V>
 188:Core/Inc/ros/ros/msg.h ****   static void varToArr(A arr, const V var)
 2215              		.loc 11 188 15 view .LVU523
 2216              	.LBB330:
 189:Core/Inc/ros/ros/msg.h ****   {
 190:Core/Inc/ros/ros/msg.h ****     for (size_t i = 0; i < sizeof(V); i++)
 2217              		.loc 11 190 17 is_stmt 0 view .LVU524
 2218 001a 0023     		movs	r3, #0
 2219 001c 05E0     		b	.L123
 2220              	.LVL160:
 2221              	.L129:
 191:Core/Inc/ros/ros/msg.h ****       arr[i] = (var >> (8 * i));
 2222              		.loc 11 191 27 view .LVU525
 2223 001e DA00     		lsls	r2, r3, #3
 2224              		.loc 11 191 21 view .LVU526
 2225 0020 24FA02F2 		lsr	r2, r4, r2
 2226              		.loc 11 191 10 view .LVU527
 2227 0024 991C     		adds	r1, r3, #2
 2228              		.loc 11 191 14 view .LVU528
 2229 0026 6A54     		strb	r2, [r5, r1]
 190:Core/Inc/ros/ros/msg.h ****       arr[i] = (var >> (8 * i));
 2230              		.loc 11 190 5 is_stmt 1 view .LVU529
 2231 0028 0133     		adds	r3, r3, #1
 2232              	.LVL161:
 2233              	.L123:
 190:Core/Inc/ros/ros/msg.h ****       arr[i] = (var >> (8 * i));
 2234              		.loc 11 190 26 view .LVU530
 2235 002a 032B     		cmp	r3, #3
 2236 002c F7D9     		bls	.L129
 2237              	.LVL162:
 190:Core/Inc/ros/ros/msg.h ****       arr[i] = (var >> (8 * i));
 2238              		.loc 11 190 26 is_stmt 0 view .LVU531
 2239              	.LBE330:
 2240              	.LBE329:
  51:Core/Inc/ros/rosserial_msgs/TopicInfo.h ****       memcpy(outbuffer + offset, this->topic_name, length_topic_name);
 2241              		.loc 3 51 7 is_stmt 1 view .LVU532
  52:Core/Inc/ros/rosserial_msgs/TopicInfo.h ****       offset += length_topic_name;
 2242              		.loc 3 52 7 view .LVU533
  52:Core/Inc/ros/rosserial_msgs/TopicInfo.h ****       offset += length_topic_name;
ARM GAS  /tmp/ccaSmKi1.s 			page 73


 2243              		.loc 3 52 13 is_stmt 0 view .LVU534
 2244 002e 2246     		mov	r2, r4
 2245 0030 B168     		ldr	r1, [r6, #8]
 2246 0032 A81D     		adds	r0, r5, #6
 2247              	.LVL163:
  52:Core/Inc/ros/rosserial_msgs/TopicInfo.h ****       offset += length_topic_name;
 2248              		.loc 3 52 13 view .LVU535
 2249 0034 FFF7FEFF 		bl	memcpy
 2250              	.LVL164:
  53:Core/Inc/ros/rosserial_msgs/TopicInfo.h ****       uint32_t length_message_type = strlen(this->message_type);
 2251              		.loc 3 53 7 is_stmt 1 view .LVU536
  53:Core/Inc/ros/rosserial_msgs/TopicInfo.h ****       uint32_t length_message_type = strlen(this->message_type);
 2252              		.loc 3 53 14 is_stmt 0 view .LVU537
 2253 0038 04F10608 		add	r8, r4, #6
 2254              	.LVL165:
  54:Core/Inc/ros/rosserial_msgs/TopicInfo.h ****       varToArr(outbuffer + offset, length_message_type);
 2255              		.loc 3 54 7 is_stmt 1 view .LVU538
  54:Core/Inc/ros/rosserial_msgs/TopicInfo.h ****       varToArr(outbuffer + offset, length_message_type);
 2256              		.loc 3 54 44 is_stmt 0 view .LVU539
 2257 003c F068     		ldr	r0, [r6, #12]
 2258 003e FFF7FEFF 		bl	strlen
 2259              	.LVL166:
 2260 0042 0746     		mov	r7, r0
 2261              	.LVL167:
  55:Core/Inc/ros/rosserial_msgs/TopicInfo.h ****       offset += 4;
 2262              		.loc 3 55 7 is_stmt 1 view .LVU540
 2263              	.LBB331:
 2264              	.LBI331:
 188:Core/Inc/ros/ros/msg.h ****   {
 2265              		.loc 11 188 15 view .LVU541
 2266              	.LBB332:
 190:Core/Inc/ros/ros/msg.h ****       arr[i] = (var >> (8 * i));
 2267              		.loc 11 190 17 is_stmt 0 view .LVU542
 2268 0044 0023     		movs	r3, #0
 2269 0046 06E0     		b	.L125
 2270              	.LVL168:
 2271              	.L130:
 2272              		.loc 11 191 27 view .LVU543
 2273 0048 D900     		lsls	r1, r3, #3
 2274              		.loc 11 191 21 view .LVU544
 2275 004a 27FA01F1 		lsr	r1, r7, r1
 2276              		.loc 11 191 10 view .LVU545
 2277 004e 08EB0302 		add	r2, r8, r3
 2278              		.loc 11 191 14 view .LVU546
 2279 0052 A954     		strb	r1, [r5, r2]
 190:Core/Inc/ros/ros/msg.h ****       arr[i] = (var >> (8 * i));
 2280              		.loc 11 190 5 is_stmt 1 view .LVU547
 2281 0054 0133     		adds	r3, r3, #1
 2282              	.LVL169:
 2283              	.L125:
 190:Core/Inc/ros/ros/msg.h ****       arr[i] = (var >> (8 * i));
 2284              		.loc 11 190 26 view .LVU548
 2285 0056 032B     		cmp	r3, #3
 2286 0058 F6D9     		bls	.L130
 2287              	.LVL170:
 190:Core/Inc/ros/ros/msg.h ****       arr[i] = (var >> (8 * i));
 2288              		.loc 11 190 26 is_stmt 0 view .LVU549
ARM GAS  /tmp/ccaSmKi1.s 			page 74


 2289              	.LBE332:
 2290              	.LBE331:
  56:Core/Inc/ros/rosserial_msgs/TopicInfo.h ****       memcpy(outbuffer + offset, this->message_type, length_message_type);
 2291              		.loc 3 56 7 is_stmt 1 view .LVU550
 2292 005a 0A34     		adds	r4, r4, #10
 2293              	.LVL171:
  57:Core/Inc/ros/rosserial_msgs/TopicInfo.h ****       offset += length_message_type;
 2294              		.loc 3 57 7 view .LVU551
  57:Core/Inc/ros/rosserial_msgs/TopicInfo.h ****       offset += length_message_type;
 2295              		.loc 3 57 13 is_stmt 0 view .LVU552
 2296 005c 3A46     		mov	r2, r7
 2297 005e F168     		ldr	r1, [r6, #12]
 2298 0060 2819     		adds	r0, r5, r4
 2299              	.LVL172:
  57:Core/Inc/ros/rosserial_msgs/TopicInfo.h ****       offset += length_message_type;
 2300              		.loc 3 57 13 view .LVU553
 2301 0062 FFF7FEFF 		bl	memcpy
 2302              	.LVL173:
  58:Core/Inc/ros/rosserial_msgs/TopicInfo.h ****       uint32_t length_md5sum = strlen(this->md5sum);
 2303              		.loc 3 58 7 is_stmt 1 view .LVU554
  58:Core/Inc/ros/rosserial_msgs/TopicInfo.h ****       uint32_t length_md5sum = strlen(this->md5sum);
 2304              		.loc 3 58 14 is_stmt 0 view .LVU555
 2305 0066 3C44     		add	r4, r4, r7
 2306              	.LVL174:
  59:Core/Inc/ros/rosserial_msgs/TopicInfo.h ****       varToArr(outbuffer + offset, length_md5sum);
 2307              		.loc 3 59 7 is_stmt 1 view .LVU556
  59:Core/Inc/ros/rosserial_msgs/TopicInfo.h ****       varToArr(outbuffer + offset, length_md5sum);
 2308              		.loc 3 59 38 is_stmt 0 view .LVU557
 2309 0068 3069     		ldr	r0, [r6, #16]
 2310 006a FFF7FEFF 		bl	strlen
 2311              	.LVL175:
 2312 006e 0746     		mov	r7, r0
 2313              	.LVL176:
  60:Core/Inc/ros/rosserial_msgs/TopicInfo.h ****       offset += 4;
 2314              		.loc 3 60 7 is_stmt 1 view .LVU558
 2315              	.LBB333:
 2316              	.LBI333:
 188:Core/Inc/ros/ros/msg.h ****   {
 2317              		.loc 11 188 15 view .LVU559
 2318              	.LBB334:
 190:Core/Inc/ros/ros/msg.h ****       arr[i] = (var >> (8 * i));
 2319              		.loc 11 190 17 is_stmt 0 view .LVU560
 2320 0070 0023     		movs	r3, #0
 2321 0072 05E0     		b	.L127
 2322              	.LVL177:
 2323              	.L131:
 2324              		.loc 11 191 27 view .LVU561
 2325 0074 D900     		lsls	r1, r3, #3
 2326              		.loc 11 191 21 view .LVU562
 2327 0076 27FA01F1 		lsr	r1, r7, r1
 2328              		.loc 11 191 10 view .LVU563
 2329 007a E218     		adds	r2, r4, r3
 2330              		.loc 11 191 14 view .LVU564
 2331 007c A954     		strb	r1, [r5, r2]
 190:Core/Inc/ros/ros/msg.h ****       arr[i] = (var >> (8 * i));
 2332              		.loc 11 190 5 is_stmt 1 view .LVU565
 2333 007e 0133     		adds	r3, r3, #1
ARM GAS  /tmp/ccaSmKi1.s 			page 75


 2334              	.LVL178:
 2335              	.L127:
 190:Core/Inc/ros/ros/msg.h ****       arr[i] = (var >> (8 * i));
 2336              		.loc 11 190 26 view .LVU566
 2337 0080 032B     		cmp	r3, #3
 2338 0082 F7D9     		bls	.L131
 2339              	.LVL179:
 190:Core/Inc/ros/ros/msg.h ****       arr[i] = (var >> (8 * i));
 2340              		.loc 11 190 26 is_stmt 0 view .LVU567
 2341              	.LBE334:
 2342              	.LBE333:
  61:Core/Inc/ros/rosserial_msgs/TopicInfo.h ****       memcpy(outbuffer + offset, this->md5sum, length_md5sum);
 2343              		.loc 3 61 7 is_stmt 1 view .LVU568
  61:Core/Inc/ros/rosserial_msgs/TopicInfo.h ****       memcpy(outbuffer + offset, this->md5sum, length_md5sum);
 2344              		.loc 3 61 14 is_stmt 0 view .LVU569
 2345 0084 0434     		adds	r4, r4, #4
 2346              	.LVL180:
  62:Core/Inc/ros/rosserial_msgs/TopicInfo.h ****       offset += length_md5sum;
 2347              		.loc 3 62 7 is_stmt 1 view .LVU570
  62:Core/Inc/ros/rosserial_msgs/TopicInfo.h ****       offset += length_md5sum;
 2348              		.loc 3 62 13 is_stmt 0 view .LVU571
 2349 0086 3A46     		mov	r2, r7
 2350 0088 3169     		ldr	r1, [r6, #16]
 2351 008a 2819     		adds	r0, r5, r4
 2352              	.LVL181:
  62:Core/Inc/ros/rosserial_msgs/TopicInfo.h ****       offset += length_md5sum;
 2353              		.loc 3 62 13 view .LVU572
 2354 008c FFF7FEFF 		bl	memcpy
 2355              	.LVL182:
  63:Core/Inc/ros/rosserial_msgs/TopicInfo.h ****       union {
 2356              		.loc 3 63 7 is_stmt 1 view .LVU573
  63:Core/Inc/ros/rosserial_msgs/TopicInfo.h ****       union {
 2357              		.loc 3 63 14 is_stmt 0 view .LVU574
 2358 0090 E019     		adds	r0, r4, r7
 2359              	.LVL183:
  64:Core/Inc/ros/rosserial_msgs/TopicInfo.h ****         int32_t real;
 2360              		.loc 3 64 7 is_stmt 1 view .LVU575
  68:Core/Inc/ros/rosserial_msgs/TopicInfo.h ****       *(outbuffer + offset + 0) = (u_buffer_size.base >> (8 * 0)) & 0xFF;
 2361              		.loc 3 68 7 view .LVU576
  68:Core/Inc/ros/rosserial_msgs/TopicInfo.h ****       *(outbuffer + offset + 0) = (u_buffer_size.base >> (8 * 0)) & 0xFF;
 2362              		.loc 3 68 34 is_stmt 0 view .LVU577
 2363 0092 7369     		ldr	r3, [r6, #20]
  69:Core/Inc/ros/rosserial_msgs/TopicInfo.h ****       *(outbuffer + offset + 1) = (u_buffer_size.base >> (8 * 1)) & 0xFF;
 2364              		.loc 3 69 7 is_stmt 1 view .LVU578
  69:Core/Inc/ros/rosserial_msgs/TopicInfo.h ****       *(outbuffer + offset + 1) = (u_buffer_size.base >> (8 * 1)) & 0xFF;
 2365              		.loc 3 69 33 is_stmt 0 view .LVU579
 2366 0094 2B54     		strb	r3, [r5, r0]
  70:Core/Inc/ros/rosserial_msgs/TopicInfo.h ****       *(outbuffer + offset + 2) = (u_buffer_size.base >> (8 * 2)) & 0xFF;
 2367              		.loc 3 70 7 is_stmt 1 view .LVU580
  70:Core/Inc/ros/rosserial_msgs/TopicInfo.h ****       *(outbuffer + offset + 2) = (u_buffer_size.base >> (8 * 2)) & 0xFF;
 2368              		.loc 3 70 55 is_stmt 0 view .LVU581
 2369 0096 190A     		lsrs	r1, r3, #8
  70:Core/Inc/ros/rosserial_msgs/TopicInfo.h ****       *(outbuffer + offset + 2) = (u_buffer_size.base >> (8 * 2)) & 0xFF;
 2370              		.loc 3 70 28 view .LVU582
 2371 0098 421C     		adds	r2, r0, #1
  70:Core/Inc/ros/rosserial_msgs/TopicInfo.h ****       *(outbuffer + offset + 2) = (u_buffer_size.base >> (8 * 2)) & 0xFF;
 2372              		.loc 3 70 33 view .LVU583
ARM GAS  /tmp/ccaSmKi1.s 			page 76


 2373 009a A954     		strb	r1, [r5, r2]
  71:Core/Inc/ros/rosserial_msgs/TopicInfo.h ****       *(outbuffer + offset + 3) = (u_buffer_size.base >> (8 * 3)) & 0xFF;
 2374              		.loc 3 71 7 is_stmt 1 view .LVU584
  71:Core/Inc/ros/rosserial_msgs/TopicInfo.h ****       *(outbuffer + offset + 3) = (u_buffer_size.base >> (8 * 3)) & 0xFF;
 2375              		.loc 3 71 55 is_stmt 0 view .LVU585
 2376 009c 190C     		lsrs	r1, r3, #16
  71:Core/Inc/ros/rosserial_msgs/TopicInfo.h ****       *(outbuffer + offset + 3) = (u_buffer_size.base >> (8 * 3)) & 0xFF;
 2377              		.loc 3 71 28 view .LVU586
 2378 009e 821C     		adds	r2, r0, #2
  71:Core/Inc/ros/rosserial_msgs/TopicInfo.h ****       *(outbuffer + offset + 3) = (u_buffer_size.base >> (8 * 3)) & 0xFF;
 2379              		.loc 3 71 33 view .LVU587
 2380 00a0 A954     		strb	r1, [r5, r2]
  72:Core/Inc/ros/rosserial_msgs/TopicInfo.h ****       offset += sizeof(this->buffer_size);
 2381              		.loc 3 72 7 is_stmt 1 view .LVU588
  72:Core/Inc/ros/rosserial_msgs/TopicInfo.h ****       offset += sizeof(this->buffer_size);
 2382              		.loc 3 72 55 is_stmt 0 view .LVU589
 2383 00a2 1B0E     		lsrs	r3, r3, #24
  72:Core/Inc/ros/rosserial_msgs/TopicInfo.h ****       offset += sizeof(this->buffer_size);
 2384              		.loc 3 72 28 view .LVU590
 2385 00a4 C21C     		adds	r2, r0, #3
  72:Core/Inc/ros/rosserial_msgs/TopicInfo.h ****       offset += sizeof(this->buffer_size);
 2386              		.loc 3 72 33 view .LVU591
 2387 00a6 AB54     		strb	r3, [r5, r2]
  73:Core/Inc/ros/rosserial_msgs/TopicInfo.h ****       return offset;
 2388              		.loc 3 73 7 is_stmt 1 view .LVU592
 2389              	.LVL184:
  74:Core/Inc/ros/rosserial_msgs/TopicInfo.h ****     }
 2390              		.loc 3 74 7 view .LVU593
  75:Core/Inc/ros/rosserial_msgs/TopicInfo.h **** 
 2391              		.loc 3 75 5 is_stmt 0 view .LVU594
 2392 00a8 0430     		adds	r0, r0, #4
 2393              	.LVL185:
  75:Core/Inc/ros/rosserial_msgs/TopicInfo.h **** 
 2394              		.loc 3 75 5 view .LVU595
 2395 00aa BDE8F081 		pop	{r4, r5, r6, r7, r8, pc}
  75:Core/Inc/ros/rosserial_msgs/TopicInfo.h **** 
 2396              		.loc 3 75 5 view .LVU596
 2397              		.cfi_endproc
 2398              	.LFE431:
 2400              		.section	.text._ZNK14rosserial_msgs3Log9serializeEPh,"axG",%progbits,_ZNK14rosserial_msgs3Log9seri
 2401              		.align	1
 2402              		.weak	_ZNK14rosserial_msgs3Log9serializeEPh
 2403              		.syntax unified
 2404              		.thumb
 2405              		.thumb_func
 2406              		.fpu fpv4-sp-d16
 2408              	_ZNK14rosserial_msgs3Log9serializeEPh:
 2409              	.LVL186:
 2410              	.LFB438:
  31:Core/Inc/ros/rosserial_msgs/Log.h ****     {
 2411              		.loc 4 31 17 is_stmt 1 view -0
 2412              		.cfi_startproc
 2413              		@ args = 0, pretend = 0, frame = 0
 2414              		@ frame_needed = 0, uses_anonymous_args = 0
  31:Core/Inc/ros/rosserial_msgs/Log.h ****     {
 2415              		.loc 4 31 17 is_stmt 0 view .LVU598
 2416 0000 70B5     		push	{r4, r5, r6, lr}
ARM GAS  /tmp/ccaSmKi1.s 			page 77


 2417              	.LCFI16:
 2418              		.cfi_def_cfa_offset 16
 2419              		.cfi_offset 4, -16
 2420              		.cfi_offset 5, -12
 2421              		.cfi_offset 6, -8
 2422              		.cfi_offset 14, -4
 2423 0002 0646     		mov	r6, r0
 2424 0004 0D46     		mov	r5, r1
  33:Core/Inc/ros/rosserial_msgs/Log.h ****       *(outbuffer + offset + 0) = (this->level >> (8 * 0)) & 0xFF;
 2425              		.loc 4 33 7 is_stmt 1 view .LVU599
 2426              	.LVL187:
  34:Core/Inc/ros/rosserial_msgs/Log.h ****       offset += sizeof(this->level);
 2427              		.loc 4 34 7 view .LVU600
  34:Core/Inc/ros/rosserial_msgs/Log.h ****       offset += sizeof(this->level);
 2428              		.loc 4 34 42 is_stmt 0 view .LVU601
 2429 0006 0379     		ldrb	r3, [r0, #4]	@ zero_extendqisi2
  34:Core/Inc/ros/rosserial_msgs/Log.h ****       offset += sizeof(this->level);
 2430              		.loc 4 34 33 view .LVU602
 2431 0008 0B70     		strb	r3, [r1]
  35:Core/Inc/ros/rosserial_msgs/Log.h ****       uint32_t length_msg = strlen(this->msg);
 2432              		.loc 4 35 7 is_stmt 1 view .LVU603
 2433              	.LVL188:
  36:Core/Inc/ros/rosserial_msgs/Log.h ****       varToArr(outbuffer + offset, length_msg);
 2434              		.loc 4 36 7 view .LVU604
  36:Core/Inc/ros/rosserial_msgs/Log.h ****       varToArr(outbuffer + offset, length_msg);
 2435              		.loc 4 36 35 is_stmt 0 view .LVU605
 2436 000a 8068     		ldr	r0, [r0, #8]
 2437              	.LVL189:
  36:Core/Inc/ros/rosserial_msgs/Log.h ****       varToArr(outbuffer + offset, length_msg);
 2438              		.loc 4 36 35 view .LVU606
 2439 000c FFF7FEFF 		bl	strlen
 2440              	.LVL190:
  36:Core/Inc/ros/rosserial_msgs/Log.h ****       varToArr(outbuffer + offset, length_msg);
 2441              		.loc 4 36 35 view .LVU607
 2442 0010 0446     		mov	r4, r0
 2443              	.LVL191:
  37:Core/Inc/ros/rosserial_msgs/Log.h ****       offset += 4;
 2444              		.loc 4 37 7 is_stmt 1 view .LVU608
 2445              	.LBB335:
 2446              	.LBI335:
 188:Core/Inc/ros/ros/msg.h ****   {
 2447              		.loc 11 188 15 view .LVU609
 2448              	.LBB336:
 190:Core/Inc/ros/ros/msg.h ****       arr[i] = (var >> (8 * i));
 2449              		.loc 11 190 17 is_stmt 0 view .LVU610
 2450 0012 0023     		movs	r3, #0
 2451 0014 06E0     		b	.L134
 2452              	.LVL192:
 2453              	.L136:
 2454              		.loc 11 191 27 view .LVU611
 2455 0016 4FEAC30C 		lsl	ip, r3, #3
 2456              		.loc 11 191 21 view .LVU612
 2457 001a 24FA0CFC 		lsr	ip, r4, ip
 2458 001e 0133     		adds	r3, r3, #1
 2459              	.LVL193:
 2460              		.loc 11 191 14 view .LVU613
 2461 0020 05F803C0 		strb	ip, [r5, r3]
ARM GAS  /tmp/ccaSmKi1.s 			page 78


 190:Core/Inc/ros/ros/msg.h ****       arr[i] = (var >> (8 * i));
 2462              		.loc 11 190 5 is_stmt 1 view .LVU614
 2463              	.LVL194:
 2464              	.L134:
 190:Core/Inc/ros/ros/msg.h ****       arr[i] = (var >> (8 * i));
 2465              		.loc 11 190 26 view .LVU615
 2466 0024 032B     		cmp	r3, #3
 2467 0026 F6D9     		bls	.L136
 2468              	.LVL195:
 190:Core/Inc/ros/ros/msg.h ****       arr[i] = (var >> (8 * i));
 2469              		.loc 11 190 26 is_stmt 0 view .LVU616
 2470              	.LBE336:
 2471              	.LBE335:
  38:Core/Inc/ros/rosserial_msgs/Log.h ****       memcpy(outbuffer + offset, this->msg, length_msg);
 2472              		.loc 4 38 7 is_stmt 1 view .LVU617
  39:Core/Inc/ros/rosserial_msgs/Log.h ****       offset += length_msg;
 2473              		.loc 4 39 7 view .LVU618
  39:Core/Inc/ros/rosserial_msgs/Log.h ****       offset += length_msg;
 2474              		.loc 4 39 13 is_stmt 0 view .LVU619
 2475 0028 2246     		mov	r2, r4
 2476 002a B168     		ldr	r1, [r6, #8]
 2477 002c 681D     		adds	r0, r5, #5
 2478              	.LVL196:
  39:Core/Inc/ros/rosserial_msgs/Log.h ****       offset += length_msg;
 2479              		.loc 4 39 13 view .LVU620
 2480 002e FFF7FEFF 		bl	memcpy
 2481              	.LVL197:
  40:Core/Inc/ros/rosserial_msgs/Log.h ****       return offset;
 2482              		.loc 4 40 7 is_stmt 1 view .LVU621
  41:Core/Inc/ros/rosserial_msgs/Log.h ****     }
 2483              		.loc 4 41 7 view .LVU622
  42:Core/Inc/ros/rosserial_msgs/Log.h **** 
 2484              		.loc 4 42 5 is_stmt 0 view .LVU623
 2485 0032 601D     		adds	r0, r4, #5
 2486              	.LVL198:
  42:Core/Inc/ros/rosserial_msgs/Log.h **** 
 2487              		.loc 4 42 5 view .LVU624
 2488 0034 70BD     		pop	{r4, r5, r6, pc}
  42:Core/Inc/ros/rosserial_msgs/Log.h **** 
 2489              		.loc 4 42 5 view .LVU625
 2490              		.cfi_endproc
 2491              	.LFE438:
 2493              		.section	.text._ZNK14rosserial_msgs20RequestParamResponse9serializeEPh,"axG",%progbits,_ZNK14rosse
 2494              		.align	1
 2495              		.weak	_ZNK14rosserial_msgs20RequestParamResponse9serializeEPh
 2496              		.syntax unified
 2497              		.thumb
 2498              		.thumb_func
 2499              		.fpu fpv4-sp-d16
 2501              	_ZNK14rosserial_msgs20RequestParamResponse9serializeEPh:
 2502              	.LVL199:
 2503              	.LFB452:
  78:Core/Inc/ros/rosserial_msgs/RequestParam.h ****     {
 2504              		.loc 5 78 17 is_stmt 1 view -0
 2505              		.cfi_startproc
 2506              		@ args = 0, pretend = 0, frame = 0
 2507              		@ frame_needed = 0, uses_anonymous_args = 0
ARM GAS  /tmp/ccaSmKi1.s 			page 79


  78:Core/Inc/ros/rosserial_msgs/RequestParam.h ****     {
 2508              		.loc 5 78 17 is_stmt 0 view .LVU627
 2509 0000 2DE9F843 		push	{r3, r4, r5, r6, r7, r8, r9, lr}
 2510              	.LCFI17:
 2511              		.cfi_def_cfa_offset 32
 2512              		.cfi_offset 3, -32
 2513              		.cfi_offset 4, -28
 2514              		.cfi_offset 5, -24
 2515              		.cfi_offset 6, -20
 2516              		.cfi_offset 7, -16
 2517              		.cfi_offset 8, -12
 2518              		.cfi_offset 9, -8
 2519              		.cfi_offset 14, -4
 2520 0004 0646     		mov	r6, r0
 2521 0006 0D46     		mov	r5, r1
  80:Core/Inc/ros/rosserial_msgs/RequestParam.h ****       *(outbuffer + offset + 0) = (this->ints_length >> (8 * 0)) & 0xFF;
 2522              		.loc 5 80 7 is_stmt 1 view .LVU628
 2523              	.LVL200:
  81:Core/Inc/ros/rosserial_msgs/RequestParam.h ****       *(outbuffer + offset + 1) = (this->ints_length >> (8 * 1)) & 0xFF;
 2524              		.loc 5 81 7 view .LVU629
  81:Core/Inc/ros/rosserial_msgs/RequestParam.h ****       *(outbuffer + offset + 1) = (this->ints_length >> (8 * 1)) & 0xFF;
 2525              		.loc 5 81 42 is_stmt 0 view .LVU630
 2526 0008 4368     		ldr	r3, [r0, #4]
  81:Core/Inc/ros/rosserial_msgs/RequestParam.h ****       *(outbuffer + offset + 1) = (this->ints_length >> (8 * 1)) & 0xFF;
 2527              		.loc 5 81 33 view .LVU631
 2528 000a 0B70     		strb	r3, [r1]
  82:Core/Inc/ros/rosserial_msgs/RequestParam.h ****       *(outbuffer + offset + 2) = (this->ints_length >> (8 * 2)) & 0xFF;
 2529              		.loc 5 82 7 is_stmt 1 view .LVU632
  82:Core/Inc/ros/rosserial_msgs/RequestParam.h ****       *(outbuffer + offset + 2) = (this->ints_length >> (8 * 2)) & 0xFF;
 2530              		.loc 5 82 42 is_stmt 0 view .LVU633
 2531 000c 4368     		ldr	r3, [r0, #4]
  82:Core/Inc/ros/rosserial_msgs/RequestParam.h ****       *(outbuffer + offset + 2) = (this->ints_length >> (8 * 2)) & 0xFF;
 2532              		.loc 5 82 54 view .LVU634
 2533 000e 1B0A     		lsrs	r3, r3, #8
  82:Core/Inc/ros/rosserial_msgs/RequestParam.h ****       *(outbuffer + offset + 2) = (this->ints_length >> (8 * 2)) & 0xFF;
 2534              		.loc 5 82 33 view .LVU635
 2535 0010 4B70     		strb	r3, [r1, #1]
  83:Core/Inc/ros/rosserial_msgs/RequestParam.h ****       *(outbuffer + offset + 3) = (this->ints_length >> (8 * 3)) & 0xFF;
 2536              		.loc 5 83 7 is_stmt 1 view .LVU636
  83:Core/Inc/ros/rosserial_msgs/RequestParam.h ****       *(outbuffer + offset + 3) = (this->ints_length >> (8 * 3)) & 0xFF;
 2537              		.loc 5 83 54 is_stmt 0 view .LVU637
 2538 0012 C388     		ldrh	r3, [r0, #6]
  83:Core/Inc/ros/rosserial_msgs/RequestParam.h ****       *(outbuffer + offset + 3) = (this->ints_length >> (8 * 3)) & 0xFF;
 2539              		.loc 5 83 33 view .LVU638
 2540 0014 8B70     		strb	r3, [r1, #2]
  84:Core/Inc/ros/rosserial_msgs/RequestParam.h ****       offset += sizeof(this->ints_length);
 2541              		.loc 5 84 7 is_stmt 1 view .LVU639
  84:Core/Inc/ros/rosserial_msgs/RequestParam.h ****       offset += sizeof(this->ints_length);
 2542              		.loc 5 84 54 is_stmt 0 view .LVU640
 2543 0016 C379     		ldrb	r3, [r0, #7]	@ zero_extendqisi2
  84:Core/Inc/ros/rosserial_msgs/RequestParam.h ****       offset += sizeof(this->ints_length);
 2544              		.loc 5 84 33 view .LVU641
 2545 0018 CB70     		strb	r3, [r1, #3]
  85:Core/Inc/ros/rosserial_msgs/RequestParam.h ****       for( uint32_t i = 0; i < ints_length; i++){
 2546              		.loc 5 85 7 is_stmt 1 view .LVU642
 2547              	.LVL201:
  86:Core/Inc/ros/rosserial_msgs/RequestParam.h ****       union {
ARM GAS  /tmp/ccaSmKi1.s 			page 80


 2548              		.loc 5 86 7 view .LVU643
 2549              	.LBB337:
  86:Core/Inc/ros/rosserial_msgs/RequestParam.h ****       union {
 2550              		.loc 5 86 21 is_stmt 0 view .LVU644
 2551 001a 0022     		movs	r2, #0
 2552              	.LBE337:
  85:Core/Inc/ros/rosserial_msgs/RequestParam.h ****       for( uint32_t i = 0; i < ints_length; i++){
 2553              		.loc 5 85 14 view .LVU645
 2554 001c 0424     		movs	r4, #4
 2555              	.LVL202:
 2556              	.L139:
 2557              	.LBB339:
  86:Core/Inc/ros/rosserial_msgs/RequestParam.h ****       union {
 2558              		.loc 5 86 30 is_stmt 1 discriminator 3 view .LVU646
  86:Core/Inc/ros/rosserial_msgs/RequestParam.h ****       union {
 2559              		.loc 5 86 32 is_stmt 0 discriminator 3 view .LVU647
 2560 001e 7368     		ldr	r3, [r6, #4]
  86:Core/Inc/ros/rosserial_msgs/RequestParam.h ****       union {
 2561              		.loc 5 86 30 discriminator 3 view .LVU648
 2562 0020 9342     		cmp	r3, r2
 2563 0022 0FD9     		bls	.L138
 2564              	.LBB338:
  87:Core/Inc/ros/rosserial_msgs/RequestParam.h ****         int32_t real;
 2565              		.loc 5 87 7 is_stmt 1 discriminator 2 view .LVU649
  91:Core/Inc/ros/rosserial_msgs/RequestParam.h ****       *(outbuffer + offset + 0) = (u_intsi.base >> (8 * 0)) & 0xFF;
 2566              		.loc 5 91 7 discriminator 2 view .LVU650
  91:Core/Inc/ros/rosserial_msgs/RequestParam.h ****       *(outbuffer + offset + 0) = (u_intsi.base >> (8 * 0)) & 0xFF;
 2567              		.loc 5 91 28 is_stmt 0 discriminator 2 view .LVU651
 2568 0024 F368     		ldr	r3, [r6, #12]
  91:Core/Inc/ros/rosserial_msgs/RequestParam.h ****       *(outbuffer + offset + 0) = (u_intsi.base >> (8 * 0)) & 0xFF;
 2569              		.loc 5 91 34 discriminator 2 view .LVU652
 2570 0026 53F82230 		ldr	r3, [r3, r2, lsl #2]
  92:Core/Inc/ros/rosserial_msgs/RequestParam.h ****       *(outbuffer + offset + 1) = (u_intsi.base >> (8 * 1)) & 0xFF;
 2571              		.loc 5 92 7 is_stmt 1 discriminator 2 view .LVU653
  92:Core/Inc/ros/rosserial_msgs/RequestParam.h ****       *(outbuffer + offset + 1) = (u_intsi.base >> (8 * 1)) & 0xFF;
 2572              		.loc 5 92 33 is_stmt 0 discriminator 2 view .LVU654
 2573 002a 2B55     		strb	r3, [r5, r4]
  93:Core/Inc/ros/rosserial_msgs/RequestParam.h ****       *(outbuffer + offset + 2) = (u_intsi.base >> (8 * 2)) & 0xFF;
 2574              		.loc 5 93 7 is_stmt 1 discriminator 2 view .LVU655
  93:Core/Inc/ros/rosserial_msgs/RequestParam.h ****       *(outbuffer + offset + 2) = (u_intsi.base >> (8 * 2)) & 0xFF;
 2575              		.loc 5 93 49 is_stmt 0 discriminator 2 view .LVU656
 2576 002c 180A     		lsrs	r0, r3, #8
  93:Core/Inc/ros/rosserial_msgs/RequestParam.h ****       *(outbuffer + offset + 2) = (u_intsi.base >> (8 * 2)) & 0xFF;
 2577              		.loc 5 93 28 discriminator 2 view .LVU657
 2578 002e 611C     		adds	r1, r4, #1
  93:Core/Inc/ros/rosserial_msgs/RequestParam.h ****       *(outbuffer + offset + 2) = (u_intsi.base >> (8 * 2)) & 0xFF;
 2579              		.loc 5 93 33 discriminator 2 view .LVU658
 2580 0030 6854     		strb	r0, [r5, r1]
  94:Core/Inc/ros/rosserial_msgs/RequestParam.h ****       *(outbuffer + offset + 3) = (u_intsi.base >> (8 * 3)) & 0xFF;
 2581              		.loc 5 94 7 is_stmt 1 discriminator 2 view .LVU659
  94:Core/Inc/ros/rosserial_msgs/RequestParam.h ****       *(outbuffer + offset + 3) = (u_intsi.base >> (8 * 3)) & 0xFF;
 2582              		.loc 5 94 49 is_stmt 0 discriminator 2 view .LVU660
 2583 0032 180C     		lsrs	r0, r3, #16
  94:Core/Inc/ros/rosserial_msgs/RequestParam.h ****       *(outbuffer + offset + 3) = (u_intsi.base >> (8 * 3)) & 0xFF;
 2584              		.loc 5 94 28 discriminator 2 view .LVU661
 2585 0034 A11C     		adds	r1, r4, #2
  94:Core/Inc/ros/rosserial_msgs/RequestParam.h ****       *(outbuffer + offset + 3) = (u_intsi.base >> (8 * 3)) & 0xFF;
ARM GAS  /tmp/ccaSmKi1.s 			page 81


 2586              		.loc 5 94 33 discriminator 2 view .LVU662
 2587 0036 6854     		strb	r0, [r5, r1]
  95:Core/Inc/ros/rosserial_msgs/RequestParam.h ****       offset += sizeof(this->ints[i]);
 2588              		.loc 5 95 7 is_stmt 1 discriminator 2 view .LVU663
  95:Core/Inc/ros/rosserial_msgs/RequestParam.h ****       offset += sizeof(this->ints[i]);
 2589              		.loc 5 95 49 is_stmt 0 discriminator 2 view .LVU664
 2590 0038 1B0E     		lsrs	r3, r3, #24
  95:Core/Inc/ros/rosserial_msgs/RequestParam.h ****       offset += sizeof(this->ints[i]);
 2591              		.loc 5 95 28 discriminator 2 view .LVU665
 2592 003a E11C     		adds	r1, r4, #3
  95:Core/Inc/ros/rosserial_msgs/RequestParam.h ****       offset += sizeof(this->ints[i]);
 2593              		.loc 5 95 33 discriminator 2 view .LVU666
 2594 003c 6B54     		strb	r3, [r5, r1]
  96:Core/Inc/ros/rosserial_msgs/RequestParam.h ****       }
 2595              		.loc 5 96 7 is_stmt 1 discriminator 2 view .LVU667
  96:Core/Inc/ros/rosserial_msgs/RequestParam.h ****       }
 2596              		.loc 5 96 14 is_stmt 0 discriminator 2 view .LVU668
 2597 003e 0434     		adds	r4, r4, #4
 2598              	.LVL203:
  96:Core/Inc/ros/rosserial_msgs/RequestParam.h ****       }
 2599              		.loc 5 96 14 discriminator 2 view .LVU669
 2600              	.LBE338:
  86:Core/Inc/ros/rosserial_msgs/RequestParam.h ****       union {
 2601              		.loc 5 86 7 is_stmt 1 discriminator 2 view .LVU670
 2602 0040 0132     		adds	r2, r2, #1
 2603              	.LVL204:
  86:Core/Inc/ros/rosserial_msgs/RequestParam.h ****       union {
 2604              		.loc 5 86 7 is_stmt 0 discriminator 2 view .LVU671
 2605 0042 ECE7     		b	.L139
 2606              	.L138:
  86:Core/Inc/ros/rosserial_msgs/RequestParam.h ****       union {
 2607              		.loc 5 86 7 discriminator 2 view .LVU672
 2608              	.LBE339:
  98:Core/Inc/ros/rosserial_msgs/RequestParam.h ****       *(outbuffer + offset + 1) = (this->floats_length >> (8 * 1)) & 0xFF;
 2609              		.loc 5 98 7 is_stmt 1 view .LVU673
  98:Core/Inc/ros/rosserial_msgs/RequestParam.h ****       *(outbuffer + offset + 1) = (this->floats_length >> (8 * 1)) & 0xFF;
 2610              		.loc 5 98 42 is_stmt 0 view .LVU674
 2611 0044 3369     		ldr	r3, [r6, #16]
  98:Core/Inc/ros/rosserial_msgs/RequestParam.h ****       *(outbuffer + offset + 1) = (this->floats_length >> (8 * 1)) & 0xFF;
 2612              		.loc 5 98 33 view .LVU675
 2613 0046 2B55     		strb	r3, [r5, r4]
  99:Core/Inc/ros/rosserial_msgs/RequestParam.h ****       *(outbuffer + offset + 2) = (this->floats_length >> (8 * 2)) & 0xFF;
 2614              		.loc 5 99 7 is_stmt 1 view .LVU676
  99:Core/Inc/ros/rosserial_msgs/RequestParam.h ****       *(outbuffer + offset + 2) = (this->floats_length >> (8 * 2)) & 0xFF;
 2615              		.loc 5 99 42 is_stmt 0 view .LVU677
 2616 0048 3369     		ldr	r3, [r6, #16]
  99:Core/Inc/ros/rosserial_msgs/RequestParam.h ****       *(outbuffer + offset + 2) = (this->floats_length >> (8 * 2)) & 0xFF;
 2617              		.loc 5 99 56 view .LVU678
 2618 004a 1B0A     		lsrs	r3, r3, #8
  99:Core/Inc/ros/rosserial_msgs/RequestParam.h ****       *(outbuffer + offset + 2) = (this->floats_length >> (8 * 2)) & 0xFF;
 2619              		.loc 5 99 28 view .LVU679
 2620 004c 621C     		adds	r2, r4, #1
 2621              	.LVL205:
  99:Core/Inc/ros/rosserial_msgs/RequestParam.h ****       *(outbuffer + offset + 2) = (this->floats_length >> (8 * 2)) & 0xFF;
 2622              		.loc 5 99 33 view .LVU680
 2623 004e AB54     		strb	r3, [r5, r2]
 100:Core/Inc/ros/rosserial_msgs/RequestParam.h ****       *(outbuffer + offset + 3) = (this->floats_length >> (8 * 3)) & 0xFF;
ARM GAS  /tmp/ccaSmKi1.s 			page 82


 2624              		.loc 5 100 7 is_stmt 1 view .LVU681
 100:Core/Inc/ros/rosserial_msgs/RequestParam.h ****       *(outbuffer + offset + 3) = (this->floats_length >> (8 * 3)) & 0xFF;
 2625              		.loc 5 100 56 is_stmt 0 view .LVU682
 2626 0050 728A     		ldrh	r2, [r6, #18]
 100:Core/Inc/ros/rosserial_msgs/RequestParam.h ****       *(outbuffer + offset + 3) = (this->floats_length >> (8 * 3)) & 0xFF;
 2627              		.loc 5 100 28 view .LVU683
 2628 0052 A31C     		adds	r3, r4, #2
 100:Core/Inc/ros/rosserial_msgs/RequestParam.h ****       *(outbuffer + offset + 3) = (this->floats_length >> (8 * 3)) & 0xFF;
 2629              		.loc 5 100 33 view .LVU684
 2630 0054 EA54     		strb	r2, [r5, r3]
 101:Core/Inc/ros/rosserial_msgs/RequestParam.h ****       offset += sizeof(this->floats_length);
 2631              		.loc 5 101 7 is_stmt 1 view .LVU685
 101:Core/Inc/ros/rosserial_msgs/RequestParam.h ****       offset += sizeof(this->floats_length);
 2632              		.loc 5 101 56 is_stmt 0 view .LVU686
 2633 0056 F27C     		ldrb	r2, [r6, #19]	@ zero_extendqisi2
 101:Core/Inc/ros/rosserial_msgs/RequestParam.h ****       offset += sizeof(this->floats_length);
 2634              		.loc 5 101 28 view .LVU687
 2635 0058 E31C     		adds	r3, r4, #3
 101:Core/Inc/ros/rosserial_msgs/RequestParam.h ****       offset += sizeof(this->floats_length);
 2636              		.loc 5 101 33 view .LVU688
 2637 005a EA54     		strb	r2, [r5, r3]
 102:Core/Inc/ros/rosserial_msgs/RequestParam.h ****       for( uint32_t i = 0; i < floats_length; i++){
 2638              		.loc 5 102 7 is_stmt 1 view .LVU689
 102:Core/Inc/ros/rosserial_msgs/RequestParam.h ****       for( uint32_t i = 0; i < floats_length; i++){
 2639              		.loc 5 102 14 is_stmt 0 view .LVU690
 2640 005c 0434     		adds	r4, r4, #4
 2641              	.LVL206:
 103:Core/Inc/ros/rosserial_msgs/RequestParam.h ****       union {
 2642              		.loc 5 103 7 is_stmt 1 view .LVU691
 2643              	.LBB340:
 103:Core/Inc/ros/rosserial_msgs/RequestParam.h ****       union {
 2644              		.loc 5 103 21 is_stmt 0 view .LVU692
 2645 005e 0022     		movs	r2, #0
 2646              	.LVL207:
 2647              	.L141:
 103:Core/Inc/ros/rosserial_msgs/RequestParam.h ****       union {
 2648              		.loc 5 103 30 is_stmt 1 discriminator 3 view .LVU693
 103:Core/Inc/ros/rosserial_msgs/RequestParam.h ****       union {
 2649              		.loc 5 103 32 is_stmt 0 discriminator 3 view .LVU694
 2650 0060 3369     		ldr	r3, [r6, #16]
 103:Core/Inc/ros/rosserial_msgs/RequestParam.h ****       union {
 2651              		.loc 5 103 30 discriminator 3 view .LVU695
 2652 0062 9342     		cmp	r3, r2
 2653 0064 0FD9     		bls	.L140
 2654              	.LBB341:
 104:Core/Inc/ros/rosserial_msgs/RequestParam.h ****         float real;
 2655              		.loc 5 104 7 is_stmt 1 discriminator 2 view .LVU696
 108:Core/Inc/ros/rosserial_msgs/RequestParam.h ****       *(outbuffer + offset + 0) = (u_floatsi.base >> (8 * 0)) & 0xFF;
 2656              		.loc 5 108 7 discriminator 2 view .LVU697
 108:Core/Inc/ros/rosserial_msgs/RequestParam.h ****       *(outbuffer + offset + 0) = (u_floatsi.base >> (8 * 0)) & 0xFF;
 2657              		.loc 5 108 30 is_stmt 0 discriminator 2 view .LVU698
 2658 0066 B369     		ldr	r3, [r6, #24]
 109:Core/Inc/ros/rosserial_msgs/RequestParam.h ****       *(outbuffer + offset + 1) = (u_floatsi.base >> (8 * 1)) & 0xFF;
 2659              		.loc 5 109 7 is_stmt 1 discriminator 2 view .LVU699
 2660 0068 53F82230 		ldr	r3, [r3, r2, lsl #2]
 109:Core/Inc/ros/rosserial_msgs/RequestParam.h ****       *(outbuffer + offset + 1) = (u_floatsi.base >> (8 * 1)) & 0xFF;
 2661              		.loc 5 109 33 is_stmt 0 discriminator 2 view .LVU700
ARM GAS  /tmp/ccaSmKi1.s 			page 83


 2662 006c 2B55     		strb	r3, [r5, r4]
 110:Core/Inc/ros/rosserial_msgs/RequestParam.h ****       *(outbuffer + offset + 2) = (u_floatsi.base >> (8 * 2)) & 0xFF;
 2663              		.loc 5 110 7 is_stmt 1 discriminator 2 view .LVU701
 110:Core/Inc/ros/rosserial_msgs/RequestParam.h ****       *(outbuffer + offset + 2) = (u_floatsi.base >> (8 * 2)) & 0xFF;
 2664              		.loc 5 110 51 is_stmt 0 discriminator 2 view .LVU702
 2665 006e 180A     		lsrs	r0, r3, #8
 110:Core/Inc/ros/rosserial_msgs/RequestParam.h ****       *(outbuffer + offset + 2) = (u_floatsi.base >> (8 * 2)) & 0xFF;
 2666              		.loc 5 110 28 discriminator 2 view .LVU703
 2667 0070 611C     		adds	r1, r4, #1
 110:Core/Inc/ros/rosserial_msgs/RequestParam.h ****       *(outbuffer + offset + 2) = (u_floatsi.base >> (8 * 2)) & 0xFF;
 2668              		.loc 5 110 33 discriminator 2 view .LVU704
 2669 0072 6854     		strb	r0, [r5, r1]
 111:Core/Inc/ros/rosserial_msgs/RequestParam.h ****       *(outbuffer + offset + 3) = (u_floatsi.base >> (8 * 3)) & 0xFF;
 2670              		.loc 5 111 7 is_stmt 1 discriminator 2 view .LVU705
 111:Core/Inc/ros/rosserial_msgs/RequestParam.h ****       *(outbuffer + offset + 3) = (u_floatsi.base >> (8 * 3)) & 0xFF;
 2671              		.loc 5 111 51 is_stmt 0 discriminator 2 view .LVU706
 2672 0074 180C     		lsrs	r0, r3, #16
 111:Core/Inc/ros/rosserial_msgs/RequestParam.h ****       *(outbuffer + offset + 3) = (u_floatsi.base >> (8 * 3)) & 0xFF;
 2673              		.loc 5 111 28 discriminator 2 view .LVU707
 2674 0076 A11C     		adds	r1, r4, #2
 111:Core/Inc/ros/rosserial_msgs/RequestParam.h ****       *(outbuffer + offset + 3) = (u_floatsi.base >> (8 * 3)) & 0xFF;
 2675              		.loc 5 111 33 discriminator 2 view .LVU708
 2676 0078 6854     		strb	r0, [r5, r1]
 112:Core/Inc/ros/rosserial_msgs/RequestParam.h ****       offset += sizeof(this->floats[i]);
 2677              		.loc 5 112 7 is_stmt 1 discriminator 2 view .LVU709
 112:Core/Inc/ros/rosserial_msgs/RequestParam.h ****       offset += sizeof(this->floats[i]);
 2678              		.loc 5 112 51 is_stmt 0 discriminator 2 view .LVU710
 2679 007a 1B0E     		lsrs	r3, r3, #24
 112:Core/Inc/ros/rosserial_msgs/RequestParam.h ****       offset += sizeof(this->floats[i]);
 2680              		.loc 5 112 28 discriminator 2 view .LVU711
 2681 007c E11C     		adds	r1, r4, #3
 112:Core/Inc/ros/rosserial_msgs/RequestParam.h ****       offset += sizeof(this->floats[i]);
 2682              		.loc 5 112 33 discriminator 2 view .LVU712
 2683 007e 6B54     		strb	r3, [r5, r1]
 113:Core/Inc/ros/rosserial_msgs/RequestParam.h ****       }
 2684              		.loc 5 113 7 is_stmt 1 discriminator 2 view .LVU713
 113:Core/Inc/ros/rosserial_msgs/RequestParam.h ****       }
 2685              		.loc 5 113 14 is_stmt 0 discriminator 2 view .LVU714
 2686 0080 0434     		adds	r4, r4, #4
 2687              	.LVL208:
 113:Core/Inc/ros/rosserial_msgs/RequestParam.h ****       }
 2688              		.loc 5 113 14 discriminator 2 view .LVU715
 2689              	.LBE341:
 103:Core/Inc/ros/rosserial_msgs/RequestParam.h ****       union {
 2690              		.loc 5 103 7 is_stmt 1 discriminator 2 view .LVU716
 2691 0082 0132     		adds	r2, r2, #1
 2692              	.LVL209:
 103:Core/Inc/ros/rosserial_msgs/RequestParam.h ****       union {
 2693              		.loc 5 103 7 is_stmt 0 discriminator 2 view .LVU717
 2694 0084 ECE7     		b	.L141
 2695              	.L140:
 103:Core/Inc/ros/rosserial_msgs/RequestParam.h ****       union {
 2696              		.loc 5 103 7 discriminator 2 view .LVU718
 2697              	.LBE340:
 115:Core/Inc/ros/rosserial_msgs/RequestParam.h ****       *(outbuffer + offset + 1) = (this->strings_length >> (8 * 1)) & 0xFF;
 2698              		.loc 5 115 7 is_stmt 1 view .LVU719
 115:Core/Inc/ros/rosserial_msgs/RequestParam.h ****       *(outbuffer + offset + 1) = (this->strings_length >> (8 * 1)) & 0xFF;
ARM GAS  /tmp/ccaSmKi1.s 			page 84


 2699              		.loc 5 115 42 is_stmt 0 view .LVU720
 2700 0086 F369     		ldr	r3, [r6, #28]
 115:Core/Inc/ros/rosserial_msgs/RequestParam.h ****       *(outbuffer + offset + 1) = (this->strings_length >> (8 * 1)) & 0xFF;
 2701              		.loc 5 115 33 view .LVU721
 2702 0088 2B55     		strb	r3, [r5, r4]
 116:Core/Inc/ros/rosserial_msgs/RequestParam.h ****       *(outbuffer + offset + 2) = (this->strings_length >> (8 * 2)) & 0xFF;
 2703              		.loc 5 116 7 is_stmt 1 view .LVU722
 116:Core/Inc/ros/rosserial_msgs/RequestParam.h ****       *(outbuffer + offset + 2) = (this->strings_length >> (8 * 2)) & 0xFF;
 2704              		.loc 5 116 42 is_stmt 0 view .LVU723
 2705 008a F369     		ldr	r3, [r6, #28]
 116:Core/Inc/ros/rosserial_msgs/RequestParam.h ****       *(outbuffer + offset + 2) = (this->strings_length >> (8 * 2)) & 0xFF;
 2706              		.loc 5 116 57 view .LVU724
 2707 008c 1B0A     		lsrs	r3, r3, #8
 116:Core/Inc/ros/rosserial_msgs/RequestParam.h ****       *(outbuffer + offset + 2) = (this->strings_length >> (8 * 2)) & 0xFF;
 2708              		.loc 5 116 28 view .LVU725
 2709 008e 621C     		adds	r2, r4, #1
 2710              	.LVL210:
 116:Core/Inc/ros/rosserial_msgs/RequestParam.h ****       *(outbuffer + offset + 2) = (this->strings_length >> (8 * 2)) & 0xFF;
 2711              		.loc 5 116 33 view .LVU726
 2712 0090 AB54     		strb	r3, [r5, r2]
 117:Core/Inc/ros/rosserial_msgs/RequestParam.h ****       *(outbuffer + offset + 3) = (this->strings_length >> (8 * 3)) & 0xFF;
 2713              		.loc 5 117 7 is_stmt 1 view .LVU727
 117:Core/Inc/ros/rosserial_msgs/RequestParam.h ****       *(outbuffer + offset + 3) = (this->strings_length >> (8 * 3)) & 0xFF;
 2714              		.loc 5 117 57 is_stmt 0 view .LVU728
 2715 0092 F28B     		ldrh	r2, [r6, #30]
 117:Core/Inc/ros/rosserial_msgs/RequestParam.h ****       *(outbuffer + offset + 3) = (this->strings_length >> (8 * 3)) & 0xFF;
 2716              		.loc 5 117 28 view .LVU729
 2717 0094 A31C     		adds	r3, r4, #2
 117:Core/Inc/ros/rosserial_msgs/RequestParam.h ****       *(outbuffer + offset + 3) = (this->strings_length >> (8 * 3)) & 0xFF;
 2718              		.loc 5 117 33 view .LVU730
 2719 0096 EA54     		strb	r2, [r5, r3]
 118:Core/Inc/ros/rosserial_msgs/RequestParam.h ****       offset += sizeof(this->strings_length);
 2720              		.loc 5 118 7 is_stmt 1 view .LVU731
 118:Core/Inc/ros/rosserial_msgs/RequestParam.h ****       offset += sizeof(this->strings_length);
 2721              		.loc 5 118 57 is_stmt 0 view .LVU732
 2722 0098 F27F     		ldrb	r2, [r6, #31]	@ zero_extendqisi2
 118:Core/Inc/ros/rosserial_msgs/RequestParam.h ****       offset += sizeof(this->strings_length);
 2723              		.loc 5 118 28 view .LVU733
 2724 009a E31C     		adds	r3, r4, #3
 118:Core/Inc/ros/rosserial_msgs/RequestParam.h ****       offset += sizeof(this->strings_length);
 2725              		.loc 5 118 33 view .LVU734
 2726 009c EA54     		strb	r2, [r5, r3]
 119:Core/Inc/ros/rosserial_msgs/RequestParam.h ****       for( uint32_t i = 0; i < strings_length; i++){
 2727              		.loc 5 119 7 is_stmt 1 view .LVU735
 119:Core/Inc/ros/rosserial_msgs/RequestParam.h ****       for( uint32_t i = 0; i < strings_length; i++){
 2728              		.loc 5 119 14 is_stmt 0 view .LVU736
 2729 009e 0434     		adds	r4, r4, #4
 2730              	.LVL211:
 120:Core/Inc/ros/rosserial_msgs/RequestParam.h ****       uint32_t length_stringsi = strlen(this->strings[i]);
 2731              		.loc 5 120 7 is_stmt 1 view .LVU737
 2732              	.LBB342:
 120:Core/Inc/ros/rosserial_msgs/RequestParam.h ****       uint32_t length_stringsi = strlen(this->strings[i]);
 2733              		.loc 5 120 21 is_stmt 0 view .LVU738
 2734 00a0 4FF00008 		mov	r8, #0
 2735 00a4 14E0     		b	.L145
 2736              	.LVL212:
 2737              	.L147:
ARM GAS  /tmp/ccaSmKi1.s 			page 85


 2738              	.LBB343:
 2739              	.LBB344:
 2740              	.LBB345:
 2741              		.loc 11 191 27 view .LVU739
 2742 00a6 4FEAC30C 		lsl	ip, r3, #3
 2743              		.loc 11 191 21 view .LVU740
 2744 00aa 27FA0CFC 		lsr	ip, r7, ip
 2745              		.loc 11 191 10 view .LVU741
 2746 00ae CA18     		adds	r2, r1, r3
 2747              		.loc 11 191 14 view .LVU742
 2748 00b0 05F802C0 		strb	ip, [r5, r2]
 190:Core/Inc/ros/ros/msg.h ****       arr[i] = (var >> (8 * i));
 2749              		.loc 11 190 5 is_stmt 1 view .LVU743
 2750 00b4 0133     		adds	r3, r3, #1
 2751              	.LVL213:
 2752              	.L144:
 190:Core/Inc/ros/ros/msg.h ****       arr[i] = (var >> (8 * i));
 2753              		.loc 11 190 26 view .LVU744
 2754 00b6 032B     		cmp	r3, #3
 2755 00b8 F5D9     		bls	.L147
 2756              	.LVL214:
 190:Core/Inc/ros/ros/msg.h ****       arr[i] = (var >> (8 * i));
 2757              		.loc 11 190 26 is_stmt 0 view .LVU745
 2758              	.LBE345:
 2759              	.LBE344:
 123:Core/Inc/ros/rosserial_msgs/RequestParam.h ****       memcpy(outbuffer + offset, this->strings[i], length_stringsi);
 2760              		.loc 5 123 7 is_stmt 1 discriminator 2 view .LVU746
 123:Core/Inc/ros/rosserial_msgs/RequestParam.h ****       memcpy(outbuffer + offset, this->strings[i], length_stringsi);
 2761              		.loc 5 123 14 is_stmt 0 discriminator 2 view .LVU747
 2762 00ba 0434     		adds	r4, r4, #4
 2763              	.LVL215:
 124:Core/Inc/ros/rosserial_msgs/RequestParam.h ****       offset += length_stringsi;
 2764              		.loc 5 124 7 is_stmt 1 discriminator 2 view .LVU748
 124:Core/Inc/ros/rosserial_msgs/RequestParam.h ****       offset += length_stringsi;
 2765              		.loc 5 124 40 is_stmt 0 discriminator 2 view .LVU749
 2766 00bc 736A     		ldr	r3, [r6, #36]
 124:Core/Inc/ros/rosserial_msgs/RequestParam.h ****       offset += length_stringsi;
 2767              		.loc 5 124 13 discriminator 2 view .LVU750
 2768 00be 3A46     		mov	r2, r7
 2769 00c0 53F80910 		ldr	r1, [r3, r9]
 2770 00c4 2819     		adds	r0, r5, r4
 2771              	.LVL216:
 124:Core/Inc/ros/rosserial_msgs/RequestParam.h ****       offset += length_stringsi;
 2772              		.loc 5 124 13 discriminator 2 view .LVU751
 2773 00c6 FFF7FEFF 		bl	memcpy
 2774              	.LVL217:
 125:Core/Inc/ros/rosserial_msgs/RequestParam.h ****       }
 2775              		.loc 5 125 7 is_stmt 1 discriminator 2 view .LVU752
 125:Core/Inc/ros/rosserial_msgs/RequestParam.h ****       }
 2776              		.loc 5 125 14 is_stmt 0 discriminator 2 view .LVU753
 2777 00ca 3C44     		add	r4, r4, r7
 2778              	.LVL218:
 125:Core/Inc/ros/rosserial_msgs/RequestParam.h ****       }
 2779              		.loc 5 125 14 discriminator 2 view .LVU754
 2780              	.LBE343:
 120:Core/Inc/ros/rosserial_msgs/RequestParam.h ****       uint32_t length_stringsi = strlen(this->strings[i]);
 2781              		.loc 5 120 7 is_stmt 1 discriminator 2 view .LVU755
ARM GAS  /tmp/ccaSmKi1.s 			page 86


 2782 00cc 08F10108 		add	r8, r8, #1
 2783              	.LVL219:
 2784              	.L145:
 120:Core/Inc/ros/rosserial_msgs/RequestParam.h ****       uint32_t length_stringsi = strlen(this->strings[i]);
 2785              		.loc 5 120 30 discriminator 3 view .LVU756
 120:Core/Inc/ros/rosserial_msgs/RequestParam.h ****       uint32_t length_stringsi = strlen(this->strings[i]);
 2786              		.loc 5 120 32 is_stmt 0 discriminator 3 view .LVU757
 2787 00d0 F369     		ldr	r3, [r6, #28]
 120:Core/Inc/ros/rosserial_msgs/RequestParam.h ****       uint32_t length_stringsi = strlen(this->strings[i]);
 2788              		.loc 5 120 30 discriminator 3 view .LVU758
 2789 00d2 4345     		cmp	r3, r8
 2790 00d4 0AD9     		bls	.L137
 2791              	.LBB348:
 121:Core/Inc/ros/rosserial_msgs/RequestParam.h ****       varToArr(outbuffer + offset, length_stringsi);
 2792              		.loc 5 121 7 is_stmt 1 discriminator 2 view .LVU759
 121:Core/Inc/ros/rosserial_msgs/RequestParam.h ****       varToArr(outbuffer + offset, length_stringsi);
 2793              		.loc 5 121 47 is_stmt 0 discriminator 2 view .LVU760
 2794 00d6 736A     		ldr	r3, [r6, #36]
 121:Core/Inc/ros/rosserial_msgs/RequestParam.h ****       varToArr(outbuffer + offset, length_stringsi);
 2795              		.loc 5 121 56 discriminator 2 view .LVU761
 2796 00d8 4FEA8809 		lsl	r9, r8, #2
 121:Core/Inc/ros/rosserial_msgs/RequestParam.h ****       varToArr(outbuffer + offset, length_stringsi);
 2797              		.loc 5 121 40 discriminator 2 view .LVU762
 2798 00dc 53F82800 		ldr	r0, [r3, r8, lsl #2]
 2799 00e0 FFF7FEFF 		bl	strlen
 2800              	.LVL220:
 2801 00e4 0746     		mov	r7, r0
 2802              	.LVL221:
 122:Core/Inc/ros/rosserial_msgs/RequestParam.h ****       offset += 4;
 2803              		.loc 5 122 7 is_stmt 1 discriminator 2 view .LVU763
 122:Core/Inc/ros/rosserial_msgs/RequestParam.h ****       offset += 4;
 2804              		.loc 5 122 28 is_stmt 0 discriminator 2 view .LVU764
 2805 00e6 2146     		mov	r1, r4
 2806              	.LVL222:
 2807              	.LBB347:
 2808              	.LBI344:
 188:Core/Inc/ros/ros/msg.h ****   {
 2809              		.loc 11 188 15 is_stmt 1 discriminator 2 view .LVU765
 2810              	.LBB346:
 190:Core/Inc/ros/ros/msg.h ****       arr[i] = (var >> (8 * i));
 2811              		.loc 11 190 17 is_stmt 0 discriminator 2 view .LVU766
 2812 00e8 0023     		movs	r3, #0
 2813 00ea E4E7     		b	.L144
 2814              	.LVL223:
 2815              	.L137:
 190:Core/Inc/ros/ros/msg.h ****       arr[i] = (var >> (8 * i));
 2816              		.loc 11 190 17 discriminator 2 view .LVU767
 2817              	.LBE346:
 2818              	.LBE347:
 2819              	.LBE348:
 2820              	.LBE342:
 128:Core/Inc/ros/rosserial_msgs/RequestParam.h **** 
 2821              		.loc 5 128 5 view .LVU768
 2822 00ec 2046     		mov	r0, r4
 2823 00ee BDE8F883 		pop	{r3, r4, r5, r6, r7, r8, r9, pc}
 128:Core/Inc/ros/rosserial_msgs/RequestParam.h **** 
 2824              		.loc 5 128 5 view .LVU769
ARM GAS  /tmp/ccaSmKi1.s 			page 87


 2825              		.cfi_endproc
 2826              	.LFE452:
 2828              		.section	.text._ZN14rosserial_msgs20RequestParamResponse11deserializeEPh,"axG",%progbits,_ZN14ross
 2829              		.align	1
 2830              		.weak	_ZN14rosserial_msgs20RequestParamResponse11deserializeEPh
 2831              		.syntax unified
 2832              		.thumb
 2833              		.thumb_func
 2834              		.fpu fpv4-sp-d16
 2836              	_ZN14rosserial_msgs20RequestParamResponse11deserializeEPh:
 2837              	.LVL224:
 2838              	.LFB453:
 130:Core/Inc/ros/rosserial_msgs/RequestParam.h ****     {
 2839              		.loc 5 130 17 is_stmt 1 view -0
 2840              		.cfi_startproc
 2841              		@ args = 0, pretend = 0, frame = 0
 2842              		@ frame_needed = 0, uses_anonymous_args = 0
 130:Core/Inc/ros/rosserial_msgs/RequestParam.h ****     {
 2843              		.loc 5 130 17 is_stmt 0 view .LVU771
 2844 0000 F8B5     		push	{r3, r4, r5, r6, r7, lr}
 2845              	.LCFI18:
 2846              		.cfi_def_cfa_offset 24
 2847              		.cfi_offset 3, -24
 2848              		.cfi_offset 4, -20
 2849              		.cfi_offset 5, -16
 2850              		.cfi_offset 6, -12
 2851              		.cfi_offset 7, -8
 2852              		.cfi_offset 14, -4
 2853 0002 0546     		mov	r5, r0
 2854 0004 0C46     		mov	r4, r1
 132:Core/Inc/ros/rosserial_msgs/RequestParam.h ****       uint32_t ints_lengthT = ((uint32_t) (*(inbuffer + offset))); 
 2855              		.loc 5 132 7 is_stmt 1 view .LVU772
 2856              	.LVL225:
 133:Core/Inc/ros/rosserial_msgs/RequestParam.h ****       ints_lengthT |= ((uint32_t) (*(inbuffer + offset + 1))) << (8 * 1); 
 2857              		.loc 5 133 7 view .LVU773
 133:Core/Inc/ros/rosserial_msgs/RequestParam.h ****       ints_lengthT |= ((uint32_t) (*(inbuffer + offset + 1))) << (8 * 1); 
 2858              		.loc 5 133 44 is_stmt 0 view .LVU774
 2859 0006 0E78     		ldrb	r6, [r1]	@ zero_extendqisi2
 2860              	.LVL226:
 134:Core/Inc/ros/rosserial_msgs/RequestParam.h ****       ints_lengthT |= ((uint32_t) (*(inbuffer + offset + 2))) << (8 * 2); 
 2861              		.loc 5 134 7 is_stmt 1 view .LVU775
 134:Core/Inc/ros/rosserial_msgs/RequestParam.h ****       ints_lengthT |= ((uint32_t) (*(inbuffer + offset + 2))) << (8 * 2); 
 2862              		.loc 5 134 36 is_stmt 0 view .LVU776
 2863 0008 4B78     		ldrb	r3, [r1, #1]	@ zero_extendqisi2
 134:Core/Inc/ros/rosserial_msgs/RequestParam.h ****       ints_lengthT |= ((uint32_t) (*(inbuffer + offset + 2))) << (8 * 2); 
 2864              		.loc 5 134 20 view .LVU777
 2865 000a 46EA0326 		orr	r6, r6, r3, lsl #8
 2866              	.LVL227:
 135:Core/Inc/ros/rosserial_msgs/RequestParam.h ****       ints_lengthT |= ((uint32_t) (*(inbuffer + offset + 3))) << (8 * 3); 
 2867              		.loc 5 135 7 is_stmt 1 view .LVU778
 135:Core/Inc/ros/rosserial_msgs/RequestParam.h ****       ints_lengthT |= ((uint32_t) (*(inbuffer + offset + 3))) << (8 * 3); 
 2868              		.loc 5 135 36 is_stmt 0 view .LVU779
 2869 000e 8B78     		ldrb	r3, [r1, #2]	@ zero_extendqisi2
 135:Core/Inc/ros/rosserial_msgs/RequestParam.h ****       ints_lengthT |= ((uint32_t) (*(inbuffer + offset + 3))) << (8 * 3); 
 2870              		.loc 5 135 20 view .LVU780
 2871 0010 46EA0346 		orr	r6, r6, r3, lsl #16
 2872              	.LVL228:
ARM GAS  /tmp/ccaSmKi1.s 			page 88


 136:Core/Inc/ros/rosserial_msgs/RequestParam.h ****       offset += sizeof(this->ints_length);
 2873              		.loc 5 136 7 is_stmt 1 view .LVU781
 136:Core/Inc/ros/rosserial_msgs/RequestParam.h ****       offset += sizeof(this->ints_length);
 2874              		.loc 5 136 36 is_stmt 0 view .LVU782
 2875 0014 CB78     		ldrb	r3, [r1, #3]	@ zero_extendqisi2
 136:Core/Inc/ros/rosserial_msgs/RequestParam.h ****       offset += sizeof(this->ints_length);
 2876              		.loc 5 136 20 view .LVU783
 2877 0016 46EA0366 		orr	r6, r6, r3, lsl #24
 2878              	.LVL229:
 137:Core/Inc/ros/rosserial_msgs/RequestParam.h ****       if(ints_lengthT > ints_length)
 2879              		.loc 5 137 7 is_stmt 1 view .LVU784
 138:Core/Inc/ros/rosserial_msgs/RequestParam.h ****         this->ints = (int32_t*)realloc(this->ints, ints_lengthT * sizeof(int32_t));
 2880              		.loc 5 138 7 view .LVU785
 138:Core/Inc/ros/rosserial_msgs/RequestParam.h ****         this->ints = (int32_t*)realloc(this->ints, ints_lengthT * sizeof(int32_t));
 2881              		.loc 5 138 25 is_stmt 0 view .LVU786
 2882 001a 4368     		ldr	r3, [r0, #4]
 138:Core/Inc/ros/rosserial_msgs/RequestParam.h ****         this->ints = (int32_t*)realloc(this->ints, ints_lengthT * sizeof(int32_t));
 2883              		.loc 5 138 7 view .LVU787
 2884 001c B342     		cmp	r3, r6
 2885 001e 19D3     		bcc	.L163
 2886              	.LVL230:
 2887              	.L149:
 140:Core/Inc/ros/rosserial_msgs/RequestParam.h ****       for( uint32_t i = 0; i < ints_length; i++){
 2888              		.loc 5 140 7 is_stmt 1 view .LVU788
 140:Core/Inc/ros/rosserial_msgs/RequestParam.h ****       for( uint32_t i = 0; i < ints_length; i++){
 2889              		.loc 5 140 19 is_stmt 0 view .LVU789
 2890 0020 6E60     		str	r6, [r5, #4]
 141:Core/Inc/ros/rosserial_msgs/RequestParam.h ****       union {
 2891              		.loc 5 141 7 is_stmt 1 view .LVU790
 2892              	.LVL231:
 2893              	.LBB359:
 141:Core/Inc/ros/rosserial_msgs/RequestParam.h ****       union {
 2894              		.loc 5 141 21 is_stmt 0 view .LVU791
 2895 0022 0022     		movs	r2, #0
 2896              	.LBE359:
 137:Core/Inc/ros/rosserial_msgs/RequestParam.h ****       if(ints_lengthT > ints_length)
 2897              		.loc 5 137 14 view .LVU792
 2898 0024 0426     		movs	r6, #4
 2899              	.LVL232:
 2900              	.L151:
 2901              	.LBB361:
 141:Core/Inc/ros/rosserial_msgs/RequestParam.h ****       union {
 2902              		.loc 5 141 30 is_stmt 1 discriminator 3 view .LVU793
 141:Core/Inc/ros/rosserial_msgs/RequestParam.h ****       union {
 2903              		.loc 5 141 32 is_stmt 0 discriminator 3 view .LVU794
 2904 0026 6B68     		ldr	r3, [r5, #4]
 141:Core/Inc/ros/rosserial_msgs/RequestParam.h ****       union {
 2905              		.loc 5 141 30 discriminator 3 view .LVU795
 2906 0028 9342     		cmp	r3, r2
 2907 002a 19D9     		bls	.L150
 2908              	.LBB360:
 142:Core/Inc/ros/rosserial_msgs/RequestParam.h ****         int32_t real;
 2909              		.loc 5 142 7 is_stmt 1 discriminator 2 view .LVU796
 146:Core/Inc/ros/rosserial_msgs/RequestParam.h ****       u_st_ints.base |= ((uint32_t) (*(inbuffer + offset + 0))) << (8 * 0);
 2910              		.loc 5 146 7 discriminator 2 view .LVU797
 147:Core/Inc/ros/rosserial_msgs/RequestParam.h ****       u_st_ints.base |= ((uint32_t) (*(inbuffer + offset + 1))) << (8 * 1);
 2911              		.loc 5 147 7 discriminator 2 view .LVU798
ARM GAS  /tmp/ccaSmKi1.s 			page 89


 147:Core/Inc/ros/rosserial_msgs/RequestParam.h ****       u_st_ints.base |= ((uint32_t) (*(inbuffer + offset + 1))) << (8 * 1);
 2912              		.loc 5 147 38 is_stmt 0 discriminator 2 view .LVU799
 2913 002c A35D     		ldrb	r3, [r4, r6]	@ zero_extendqisi2
 148:Core/Inc/ros/rosserial_msgs/RequestParam.h ****       u_st_ints.base |= ((uint32_t) (*(inbuffer + offset + 2))) << (8 * 2);
 2914              		.loc 5 148 7 is_stmt 1 discriminator 2 view .LVU800
 148:Core/Inc/ros/rosserial_msgs/RequestParam.h ****       u_st_ints.base |= ((uint32_t) (*(inbuffer + offset + 2))) << (8 * 2);
 2915              		.loc 5 148 58 is_stmt 0 discriminator 2 view .LVU801
 2916 002e 711C     		adds	r1, r6, #1
 148:Core/Inc/ros/rosserial_msgs/RequestParam.h ****       u_st_ints.base |= ((uint32_t) (*(inbuffer + offset + 2))) << (8 * 2);
 2917              		.loc 5 148 38 discriminator 2 view .LVU802
 2918 0030 615C     		ldrb	r1, [r4, r1]	@ zero_extendqisi2
 148:Core/Inc/ros/rosserial_msgs/RequestParam.h ****       u_st_ints.base |= ((uint32_t) (*(inbuffer + offset + 2))) << (8 * 2);
 2919              		.loc 5 148 22 discriminator 2 view .LVU803
 2920 0032 43EA0123 		orr	r3, r3, r1, lsl #8
 149:Core/Inc/ros/rosserial_msgs/RequestParam.h ****       u_st_ints.base |= ((uint32_t) (*(inbuffer + offset + 3))) << (8 * 3);
 2921              		.loc 5 149 7 is_stmt 1 discriminator 2 view .LVU804
 149:Core/Inc/ros/rosserial_msgs/RequestParam.h ****       u_st_ints.base |= ((uint32_t) (*(inbuffer + offset + 3))) << (8 * 3);
 2922              		.loc 5 149 58 is_stmt 0 discriminator 2 view .LVU805
 2923 0036 B11C     		adds	r1, r6, #2
 149:Core/Inc/ros/rosserial_msgs/RequestParam.h ****       u_st_ints.base |= ((uint32_t) (*(inbuffer + offset + 3))) << (8 * 3);
 2924              		.loc 5 149 38 discriminator 2 view .LVU806
 2925 0038 615C     		ldrb	r1, [r4, r1]	@ zero_extendqisi2
 149:Core/Inc/ros/rosserial_msgs/RequestParam.h ****       u_st_ints.base |= ((uint32_t) (*(inbuffer + offset + 3))) << (8 * 3);
 2926              		.loc 5 149 22 discriminator 2 view .LVU807
 2927 003a 43EA0143 		orr	r3, r3, r1, lsl #16
 150:Core/Inc/ros/rosserial_msgs/RequestParam.h ****       this->st_ints = u_st_ints.real;
 2928              		.loc 5 150 7 is_stmt 1 discriminator 2 view .LVU808
 150:Core/Inc/ros/rosserial_msgs/RequestParam.h ****       this->st_ints = u_st_ints.real;
 2929              		.loc 5 150 58 is_stmt 0 discriminator 2 view .LVU809
 2930 003e F11C     		adds	r1, r6, #3
 150:Core/Inc/ros/rosserial_msgs/RequestParam.h ****       this->st_ints = u_st_ints.real;
 2931              		.loc 5 150 38 discriminator 2 view .LVU810
 2932 0040 615C     		ldrb	r1, [r4, r1]	@ zero_extendqisi2
 150:Core/Inc/ros/rosserial_msgs/RequestParam.h ****       this->st_ints = u_st_ints.real;
 2933              		.loc 5 150 22 discriminator 2 view .LVU811
 2934 0042 43EA0163 		orr	r3, r3, r1, lsl #24
 151:Core/Inc/ros/rosserial_msgs/RequestParam.h ****       offset += sizeof(this->st_ints);
 2935              		.loc 5 151 7 is_stmt 1 discriminator 2 view .LVU812
 151:Core/Inc/ros/rosserial_msgs/RequestParam.h ****       offset += sizeof(this->st_ints);
 2936              		.loc 5 151 21 is_stmt 0 discriminator 2 view .LVU813
 2937 0046 AB60     		str	r3, [r5, #8]
 152:Core/Inc/ros/rosserial_msgs/RequestParam.h ****         memcpy( &(this->ints[i]), &(this->st_ints), sizeof(int32_t));
 2938              		.loc 5 152 7 is_stmt 1 discriminator 2 view .LVU814
 152:Core/Inc/ros/rosserial_msgs/RequestParam.h ****         memcpy( &(this->ints[i]), &(this->st_ints), sizeof(int32_t));
 2939              		.loc 5 152 14 is_stmt 0 discriminator 2 view .LVU815
 2940 0048 0436     		adds	r6, r6, #4
 2941              	.LVL233:
 153:Core/Inc/ros/rosserial_msgs/RequestParam.h ****       }
 2942              		.loc 5 153 9 is_stmt 1 discriminator 2 view .LVU816
 153:Core/Inc/ros/rosserial_msgs/RequestParam.h ****       }
 2943              		.loc 5 153 25 is_stmt 0 discriminator 2 view .LVU817
 2944 004a E968     		ldr	r1, [r5, #12]
 153:Core/Inc/ros/rosserial_msgs/RequestParam.h ****       }
 2945              		.loc 5 153 15 discriminator 2 view .LVU818
 2946 004c 41F82230 		str	r3, [r1, r2, lsl #2]	@ unaligned
 2947              	.LBE360:
 141:Core/Inc/ros/rosserial_msgs/RequestParam.h ****       union {
ARM GAS  /tmp/ccaSmKi1.s 			page 90


 2948              		.loc 5 141 7 is_stmt 1 discriminator 2 view .LVU819
 2949 0050 0132     		adds	r2, r2, #1
 2950              	.LVL234:
 141:Core/Inc/ros/rosserial_msgs/RequestParam.h ****       union {
 2951              		.loc 5 141 7 is_stmt 0 discriminator 2 view .LVU820
 2952 0052 E8E7     		b	.L151
 2953              	.LVL235:
 2954              	.L163:
 141:Core/Inc/ros/rosserial_msgs/RequestParam.h ****       union {
 2955              		.loc 5 141 7 discriminator 2 view .LVU821
 2956              	.LBE361:
 139:Core/Inc/ros/rosserial_msgs/RequestParam.h ****       ints_length = ints_lengthT;
 2957              		.loc 5 139 9 is_stmt 1 view .LVU822
 139:Core/Inc/ros/rosserial_msgs/RequestParam.h ****       ints_length = ints_lengthT;
 2958              		.loc 5 139 39 is_stmt 0 view .LVU823
 2959 0054 B100     		lsls	r1, r6, #2
 2960              	.LVL236:
 139:Core/Inc/ros/rosserial_msgs/RequestParam.h ****       ints_length = ints_lengthT;
 2961              		.loc 5 139 39 view .LVU824
 2962 0056 C068     		ldr	r0, [r0, #12]
 2963              	.LVL237:
 139:Core/Inc/ros/rosserial_msgs/RequestParam.h ****       ints_length = ints_lengthT;
 2964              		.loc 5 139 39 view .LVU825
 2965 0058 FFF7FEFF 		bl	realloc
 2966              	.LVL238:
 139:Core/Inc/ros/rosserial_msgs/RequestParam.h ****       ints_length = ints_lengthT;
 2967              		.loc 5 139 20 view .LVU826
 2968 005c E860     		str	r0, [r5, #12]
 2969 005e DFE7     		b	.L149
 2970              	.LVL239:
 2971              	.L150:
 155:Core/Inc/ros/rosserial_msgs/RequestParam.h ****       floats_lengthT |= ((uint32_t) (*(inbuffer + offset + 1))) << (8 * 1); 
 2972              		.loc 5 155 7 is_stmt 1 view .LVU827
 155:Core/Inc/ros/rosserial_msgs/RequestParam.h ****       floats_lengthT |= ((uint32_t) (*(inbuffer + offset + 1))) << (8 * 1); 
 2973              		.loc 5 155 46 is_stmt 0 view .LVU828
 2974 0060 A75D     		ldrb	r7, [r4, r6]	@ zero_extendqisi2
 2975              	.LVL240:
 156:Core/Inc/ros/rosserial_msgs/RequestParam.h ****       floats_lengthT |= ((uint32_t) (*(inbuffer + offset + 2))) << (8 * 2); 
 2976              		.loc 5 156 7 is_stmt 1 view .LVU829
 156:Core/Inc/ros/rosserial_msgs/RequestParam.h ****       floats_lengthT |= ((uint32_t) (*(inbuffer + offset + 2))) << (8 * 2); 
 2977              		.loc 5 156 58 is_stmt 0 view .LVU830
 2978 0062 731C     		adds	r3, r6, #1
 156:Core/Inc/ros/rosserial_msgs/RequestParam.h ****       floats_lengthT |= ((uint32_t) (*(inbuffer + offset + 2))) << (8 * 2); 
 2979              		.loc 5 156 38 view .LVU831
 2980 0064 E35C     		ldrb	r3, [r4, r3]	@ zero_extendqisi2
 156:Core/Inc/ros/rosserial_msgs/RequestParam.h ****       floats_lengthT |= ((uint32_t) (*(inbuffer + offset + 2))) << (8 * 2); 
 2981              		.loc 5 156 22 view .LVU832
 2982 0066 47EA0327 		orr	r7, r7, r3, lsl #8
 2983              	.LVL241:
 157:Core/Inc/ros/rosserial_msgs/RequestParam.h ****       floats_lengthT |= ((uint32_t) (*(inbuffer + offset + 3))) << (8 * 3); 
 2984              		.loc 5 157 7 is_stmt 1 view .LVU833
 157:Core/Inc/ros/rosserial_msgs/RequestParam.h ****       floats_lengthT |= ((uint32_t) (*(inbuffer + offset + 3))) << (8 * 3); 
 2985              		.loc 5 157 58 is_stmt 0 view .LVU834
 2986 006a B31C     		adds	r3, r6, #2
 157:Core/Inc/ros/rosserial_msgs/RequestParam.h ****       floats_lengthT |= ((uint32_t) (*(inbuffer + offset + 3))) << (8 * 3); 
 2987              		.loc 5 157 38 view .LVU835
 2988 006c E35C     		ldrb	r3, [r4, r3]	@ zero_extendqisi2
ARM GAS  /tmp/ccaSmKi1.s 			page 91


 157:Core/Inc/ros/rosserial_msgs/RequestParam.h ****       floats_lengthT |= ((uint32_t) (*(inbuffer + offset + 3))) << (8 * 3); 
 2989              		.loc 5 157 22 view .LVU836
 2990 006e 47EA0347 		orr	r7, r7, r3, lsl #16
 2991              	.LVL242:
 158:Core/Inc/ros/rosserial_msgs/RequestParam.h ****       offset += sizeof(this->floats_length);
 2992              		.loc 5 158 7 is_stmt 1 view .LVU837
 158:Core/Inc/ros/rosserial_msgs/RequestParam.h ****       offset += sizeof(this->floats_length);
 2993              		.loc 5 158 58 is_stmt 0 view .LVU838
 2994 0072 F31C     		adds	r3, r6, #3
 158:Core/Inc/ros/rosserial_msgs/RequestParam.h ****       offset += sizeof(this->floats_length);
 2995              		.loc 5 158 38 view .LVU839
 2996 0074 E35C     		ldrb	r3, [r4, r3]	@ zero_extendqisi2
 158:Core/Inc/ros/rosserial_msgs/RequestParam.h ****       offset += sizeof(this->floats_length);
 2997              		.loc 5 158 22 view .LVU840
 2998 0076 47EA0367 		orr	r7, r7, r3, lsl #24
 2999              	.LVL243:
 159:Core/Inc/ros/rosserial_msgs/RequestParam.h ****       if(floats_lengthT > floats_length)
 3000              		.loc 5 159 7 is_stmt 1 view .LVU841
 159:Core/Inc/ros/rosserial_msgs/RequestParam.h ****       if(floats_lengthT > floats_length)
 3001              		.loc 5 159 14 is_stmt 0 view .LVU842
 3002 007a 0436     		adds	r6, r6, #4
 3003              	.LVL244:
 160:Core/Inc/ros/rosserial_msgs/RequestParam.h ****         this->floats = (float*)realloc(this->floats, floats_lengthT * sizeof(float));
 3004              		.loc 5 160 7 is_stmt 1 view .LVU843
 160:Core/Inc/ros/rosserial_msgs/RequestParam.h ****         this->floats = (float*)realloc(this->floats, floats_lengthT * sizeof(float));
 3005              		.loc 5 160 27 is_stmt 0 view .LVU844
 3006 007c 2B69     		ldr	r3, [r5, #16]
 160:Core/Inc/ros/rosserial_msgs/RequestParam.h ****         this->floats = (float*)realloc(this->floats, floats_lengthT * sizeof(float));
 3007              		.loc 5 160 7 view .LVU845
 3008 007e BB42     		cmp	r3, r7
 3009 0080 18D3     		bcc	.L164
 3010              	.LVL245:
 3011              	.L152:
 162:Core/Inc/ros/rosserial_msgs/RequestParam.h ****       for( uint32_t i = 0; i < floats_length; i++){
 3012              		.loc 5 162 7 is_stmt 1 view .LVU846
 162:Core/Inc/ros/rosserial_msgs/RequestParam.h ****       for( uint32_t i = 0; i < floats_length; i++){
 3013              		.loc 5 162 21 is_stmt 0 view .LVU847
 3014 0082 2F61     		str	r7, [r5, #16]
 163:Core/Inc/ros/rosserial_msgs/RequestParam.h ****       union {
 3015              		.loc 5 163 7 is_stmt 1 view .LVU848
 3016              	.LVL246:
 3017              	.LBB362:
 163:Core/Inc/ros/rosserial_msgs/RequestParam.h ****       union {
 3018              		.loc 5 163 21 is_stmt 0 view .LVU849
 3019 0084 0022     		movs	r2, #0
 3020              	.LVL247:
 3021              	.L154:
 163:Core/Inc/ros/rosserial_msgs/RequestParam.h ****       union {
 3022              		.loc 5 163 30 is_stmt 1 discriminator 3 view .LVU850
 163:Core/Inc/ros/rosserial_msgs/RequestParam.h ****       union {
 3023              		.loc 5 163 32 is_stmt 0 discriminator 3 view .LVU851
 3024 0086 2B69     		ldr	r3, [r5, #16]
 163:Core/Inc/ros/rosserial_msgs/RequestParam.h ****       union {
 3025              		.loc 5 163 30 discriminator 3 view .LVU852
 3026 0088 9342     		cmp	r3, r2
 3027 008a 19D9     		bls	.L153
 3028              	.LBB363:
ARM GAS  /tmp/ccaSmKi1.s 			page 92


 164:Core/Inc/ros/rosserial_msgs/RequestParam.h ****         float real;
 3029              		.loc 5 164 7 is_stmt 1 discriminator 2 view .LVU853
 168:Core/Inc/ros/rosserial_msgs/RequestParam.h ****       u_st_floats.base |= ((uint32_t) (*(inbuffer + offset + 0))) << (8 * 0);
 3030              		.loc 5 168 7 discriminator 2 view .LVU854
 169:Core/Inc/ros/rosserial_msgs/RequestParam.h ****       u_st_floats.base |= ((uint32_t) (*(inbuffer + offset + 1))) << (8 * 1);
 3031              		.loc 5 169 7 discriminator 2 view .LVU855
 169:Core/Inc/ros/rosserial_msgs/RequestParam.h ****       u_st_floats.base |= ((uint32_t) (*(inbuffer + offset + 1))) << (8 * 1);
 3032              		.loc 5 169 40 is_stmt 0 discriminator 2 view .LVU856
 3033 008c A35D     		ldrb	r3, [r4, r6]	@ zero_extendqisi2
 170:Core/Inc/ros/rosserial_msgs/RequestParam.h ****       u_st_floats.base |= ((uint32_t) (*(inbuffer + offset + 2))) << (8 * 2);
 3034              		.loc 5 170 7 is_stmt 1 discriminator 2 view .LVU857
 170:Core/Inc/ros/rosserial_msgs/RequestParam.h ****       u_st_floats.base |= ((uint32_t) (*(inbuffer + offset + 2))) << (8 * 2);
 3035              		.loc 5 170 60 is_stmt 0 discriminator 2 view .LVU858
 3036 008e 711C     		adds	r1, r6, #1
 170:Core/Inc/ros/rosserial_msgs/RequestParam.h ****       u_st_floats.base |= ((uint32_t) (*(inbuffer + offset + 2))) << (8 * 2);
 3037              		.loc 5 170 40 discriminator 2 view .LVU859
 3038 0090 615C     		ldrb	r1, [r4, r1]	@ zero_extendqisi2
 170:Core/Inc/ros/rosserial_msgs/RequestParam.h ****       u_st_floats.base |= ((uint32_t) (*(inbuffer + offset + 2))) << (8 * 2);
 3039              		.loc 5 170 24 discriminator 2 view .LVU860
 3040 0092 43EA0123 		orr	r3, r3, r1, lsl #8
 171:Core/Inc/ros/rosserial_msgs/RequestParam.h ****       u_st_floats.base |= ((uint32_t) (*(inbuffer + offset + 3))) << (8 * 3);
 3041              		.loc 5 171 7 is_stmt 1 discriminator 2 view .LVU861
 171:Core/Inc/ros/rosserial_msgs/RequestParam.h ****       u_st_floats.base |= ((uint32_t) (*(inbuffer + offset + 3))) << (8 * 3);
 3042              		.loc 5 171 60 is_stmt 0 discriminator 2 view .LVU862
 3043 0096 B11C     		adds	r1, r6, #2
 171:Core/Inc/ros/rosserial_msgs/RequestParam.h ****       u_st_floats.base |= ((uint32_t) (*(inbuffer + offset + 3))) << (8 * 3);
 3044              		.loc 5 171 40 discriminator 2 view .LVU863
 3045 0098 615C     		ldrb	r1, [r4, r1]	@ zero_extendqisi2
 171:Core/Inc/ros/rosserial_msgs/RequestParam.h ****       u_st_floats.base |= ((uint32_t) (*(inbuffer + offset + 3))) << (8 * 3);
 3046              		.loc 5 171 24 discriminator 2 view .LVU864
 3047 009a 43EA0143 		orr	r3, r3, r1, lsl #16
 172:Core/Inc/ros/rosserial_msgs/RequestParam.h ****       this->st_floats = u_st_floats.real;
 3048              		.loc 5 172 7 is_stmt 1 discriminator 2 view .LVU865
 172:Core/Inc/ros/rosserial_msgs/RequestParam.h ****       this->st_floats = u_st_floats.real;
 3049              		.loc 5 172 60 is_stmt 0 discriminator 2 view .LVU866
 3050 009e F11C     		adds	r1, r6, #3
 172:Core/Inc/ros/rosserial_msgs/RequestParam.h ****       this->st_floats = u_st_floats.real;
 3051              		.loc 5 172 40 discriminator 2 view .LVU867
 3052 00a0 615C     		ldrb	r1, [r4, r1]	@ zero_extendqisi2
 172:Core/Inc/ros/rosserial_msgs/RequestParam.h ****       this->st_floats = u_st_floats.real;
 3053              		.loc 5 172 24 discriminator 2 view .LVU868
 3054 00a2 43EA0163 		orr	r3, r3, r1, lsl #24
 173:Core/Inc/ros/rosserial_msgs/RequestParam.h ****       offset += sizeof(this->st_floats);
 3055              		.loc 5 173 7 is_stmt 1 discriminator 2 view .LVU869
 173:Core/Inc/ros/rosserial_msgs/RequestParam.h ****       offset += sizeof(this->st_floats);
 3056              		.loc 5 173 23 is_stmt 0 discriminator 2 view .LVU870
 3057 00a6 6B61     		str	r3, [r5, #20]	@ float
 174:Core/Inc/ros/rosserial_msgs/RequestParam.h ****         memcpy( &(this->floats[i]), &(this->st_floats), sizeof(float));
 3058              		.loc 5 174 7 is_stmt 1 discriminator 2 view .LVU871
 174:Core/Inc/ros/rosserial_msgs/RequestParam.h ****         memcpy( &(this->floats[i]), &(this->st_floats), sizeof(float));
 3059              		.loc 5 174 14 is_stmt 0 discriminator 2 view .LVU872
 3060 00a8 0436     		adds	r6, r6, #4
 3061              	.LVL248:
 175:Core/Inc/ros/rosserial_msgs/RequestParam.h ****       }
 3062              		.loc 5 175 9 is_stmt 1 discriminator 2 view .LVU873
 175:Core/Inc/ros/rosserial_msgs/RequestParam.h ****       }
 3063              		.loc 5 175 25 is_stmt 0 discriminator 2 view .LVU874
ARM GAS  /tmp/ccaSmKi1.s 			page 93


 3064 00aa A969     		ldr	r1, [r5, #24]
 175:Core/Inc/ros/rosserial_msgs/RequestParam.h ****       }
 3065              		.loc 5 175 15 discriminator 2 view .LVU875
 3066 00ac 41F82230 		str	r3, [r1, r2, lsl #2]	@ unaligned
 3067              	.LBE363:
 163:Core/Inc/ros/rosserial_msgs/RequestParam.h ****       union {
 3068              		.loc 5 163 7 is_stmt 1 discriminator 2 view .LVU876
 3069 00b0 0132     		adds	r2, r2, #1
 3070              	.LVL249:
 163:Core/Inc/ros/rosserial_msgs/RequestParam.h ****       union {
 3071              		.loc 5 163 7 is_stmt 0 discriminator 2 view .LVU877
 3072 00b2 E8E7     		b	.L154
 3073              	.LVL250:
 3074              	.L164:
 163:Core/Inc/ros/rosserial_msgs/RequestParam.h ****       union {
 3075              		.loc 5 163 7 discriminator 2 view .LVU878
 3076              	.LBE362:
 161:Core/Inc/ros/rosserial_msgs/RequestParam.h ****       floats_length = floats_lengthT;
 3077              		.loc 5 161 9 is_stmt 1 view .LVU879
 161:Core/Inc/ros/rosserial_msgs/RequestParam.h ****       floats_length = floats_lengthT;
 3078              		.loc 5 161 39 is_stmt 0 view .LVU880
 3079 00b4 B900     		lsls	r1, r7, #2
 3080 00b6 A869     		ldr	r0, [r5, #24]
 3081 00b8 FFF7FEFF 		bl	realloc
 3082              	.LVL251:
 161:Core/Inc/ros/rosserial_msgs/RequestParam.h ****       floats_length = floats_lengthT;
 3083              		.loc 5 161 22 view .LVU881
 3084 00bc A861     		str	r0, [r5, #24]
 3085 00be E0E7     		b	.L152
 3086              	.LVL252:
 3087              	.L153:
 177:Core/Inc/ros/rosserial_msgs/RequestParam.h ****       strings_lengthT |= ((uint32_t) (*(inbuffer + offset + 1))) << (8 * 1); 
 3088              		.loc 5 177 7 is_stmt 1 view .LVU882
 177:Core/Inc/ros/rosserial_msgs/RequestParam.h ****       strings_lengthT |= ((uint32_t) (*(inbuffer + offset + 1))) << (8 * 1); 
 3089              		.loc 5 177 47 is_stmt 0 view .LVU883
 3090 00c0 A75D     		ldrb	r7, [r4, r6]	@ zero_extendqisi2
 3091              	.LVL253:
 178:Core/Inc/ros/rosserial_msgs/RequestParam.h ****       strings_lengthT |= ((uint32_t) (*(inbuffer + offset + 2))) << (8 * 2); 
 3092              		.loc 5 178 7 is_stmt 1 view .LVU884
 178:Core/Inc/ros/rosserial_msgs/RequestParam.h ****       strings_lengthT |= ((uint32_t) (*(inbuffer + offset + 2))) << (8 * 2); 
 3093              		.loc 5 178 59 is_stmt 0 view .LVU885
 3094 00c2 731C     		adds	r3, r6, #1
 178:Core/Inc/ros/rosserial_msgs/RequestParam.h ****       strings_lengthT |= ((uint32_t) (*(inbuffer + offset + 2))) << (8 * 2); 
 3095              		.loc 5 178 39 view .LVU886
 3096 00c4 E35C     		ldrb	r3, [r4, r3]	@ zero_extendqisi2
 178:Core/Inc/ros/rosserial_msgs/RequestParam.h ****       strings_lengthT |= ((uint32_t) (*(inbuffer + offset + 2))) << (8 * 2); 
 3097              		.loc 5 178 23 view .LVU887
 3098 00c6 47EA0327 		orr	r7, r7, r3, lsl #8
 3099              	.LVL254:
 179:Core/Inc/ros/rosserial_msgs/RequestParam.h ****       strings_lengthT |= ((uint32_t) (*(inbuffer + offset + 3))) << (8 * 3); 
 3100              		.loc 5 179 7 is_stmt 1 view .LVU888
 179:Core/Inc/ros/rosserial_msgs/RequestParam.h ****       strings_lengthT |= ((uint32_t) (*(inbuffer + offset + 3))) << (8 * 3); 
 3101              		.loc 5 179 59 is_stmt 0 view .LVU889
 3102 00ca B31C     		adds	r3, r6, #2
 179:Core/Inc/ros/rosserial_msgs/RequestParam.h ****       strings_lengthT |= ((uint32_t) (*(inbuffer + offset + 3))) << (8 * 3); 
 3103              		.loc 5 179 39 view .LVU890
 3104 00cc E35C     		ldrb	r3, [r4, r3]	@ zero_extendqisi2
ARM GAS  /tmp/ccaSmKi1.s 			page 94


 179:Core/Inc/ros/rosserial_msgs/RequestParam.h ****       strings_lengthT |= ((uint32_t) (*(inbuffer + offset + 3))) << (8 * 3); 
 3105              		.loc 5 179 23 view .LVU891
 3106 00ce 47EA0347 		orr	r7, r7, r3, lsl #16
 3107              	.LVL255:
 180:Core/Inc/ros/rosserial_msgs/RequestParam.h ****       offset += sizeof(this->strings_length);
 3108              		.loc 5 180 7 is_stmt 1 view .LVU892
 180:Core/Inc/ros/rosserial_msgs/RequestParam.h ****       offset += sizeof(this->strings_length);
 3109              		.loc 5 180 59 is_stmt 0 view .LVU893
 3110 00d2 F31C     		adds	r3, r6, #3
 180:Core/Inc/ros/rosserial_msgs/RequestParam.h ****       offset += sizeof(this->strings_length);
 3111              		.loc 5 180 39 view .LVU894
 3112 00d4 E35C     		ldrb	r3, [r4, r3]	@ zero_extendqisi2
 180:Core/Inc/ros/rosserial_msgs/RequestParam.h ****       offset += sizeof(this->strings_length);
 3113              		.loc 5 180 23 view .LVU895
 3114 00d6 47EA0367 		orr	r7, r7, r3, lsl #24
 3115              	.LVL256:
 181:Core/Inc/ros/rosserial_msgs/RequestParam.h ****       if(strings_lengthT > strings_length)
 3116              		.loc 5 181 7 is_stmt 1 view .LVU896
 181:Core/Inc/ros/rosserial_msgs/RequestParam.h ****       if(strings_lengthT > strings_length)
 3117              		.loc 5 181 14 is_stmt 0 view .LVU897
 3118 00da 0436     		adds	r6, r6, #4
 3119              	.LVL257:
 182:Core/Inc/ros/rosserial_msgs/RequestParam.h ****         this->strings = (char**)realloc(this->strings, strings_lengthT * sizeof(char*));
 3120              		.loc 5 182 7 is_stmt 1 view .LVU898
 182:Core/Inc/ros/rosserial_msgs/RequestParam.h ****         this->strings = (char**)realloc(this->strings, strings_lengthT * sizeof(char*));
 3121              		.loc 5 182 28 is_stmt 0 view .LVU899
 3122 00dc EB69     		ldr	r3, [r5, #28]
 182:Core/Inc/ros/rosserial_msgs/RequestParam.h ****         this->strings = (char**)realloc(this->strings, strings_lengthT * sizeof(char*));
 3123              		.loc 5 182 7 view .LVU900
 3124 00de BB42     		cmp	r3, r7
 3125 00e0 03D3     		bcc	.L165
 3126              	.LVL258:
 3127              	.L155:
 184:Core/Inc/ros/rosserial_msgs/RequestParam.h ****       for( uint32_t i = 0; i < strings_length; i++){
 3128              		.loc 5 184 7 is_stmt 1 view .LVU901
 184:Core/Inc/ros/rosserial_msgs/RequestParam.h ****       for( uint32_t i = 0; i < strings_length; i++){
 3129              		.loc 5 184 22 is_stmt 0 view .LVU902
 3130 00e2 EF61     		str	r7, [r5, #28]
 185:Core/Inc/ros/rosserial_msgs/RequestParam.h ****       uint32_t length_st_strings;
 3131              		.loc 5 185 7 is_stmt 1 view .LVU903
 3132              	.LVL259:
 3133              	.LBB364:
 185:Core/Inc/ros/rosserial_msgs/RequestParam.h ****       uint32_t length_st_strings;
 3134              		.loc 5 185 21 is_stmt 0 view .LVU904
 3135 00e4 4FF0000E 		mov	lr, #0
 3136 00e8 1DE0     		b	.L161
 3137              	.LVL260:
 3138              	.L165:
 185:Core/Inc/ros/rosserial_msgs/RequestParam.h ****       uint32_t length_st_strings;
 3139              		.loc 5 185 21 view .LVU905
 3140              	.LBE364:
 183:Core/Inc/ros/rosserial_msgs/RequestParam.h ****       strings_length = strings_lengthT;
 3141              		.loc 5 183 9 is_stmt 1 view .LVU906
 183:Core/Inc/ros/rosserial_msgs/RequestParam.h ****       strings_length = strings_lengthT;
 3142              		.loc 5 183 40 is_stmt 0 view .LVU907
 3143 00ea B900     		lsls	r1, r7, #2
 3144 00ec 686A     		ldr	r0, [r5, #36]
ARM GAS  /tmp/ccaSmKi1.s 			page 95


 3145 00ee FFF7FEFF 		bl	realloc
 3146              	.LVL261:
 183:Core/Inc/ros/rosserial_msgs/RequestParam.h ****       strings_length = strings_lengthT;
 3147              		.loc 5 183 23 view .LVU908
 3148 00f2 6862     		str	r0, [r5, #36]
 3149 00f4 F5E7     		b	.L155
 3150              	.LVL262:
 3151              	.L157:
 3152              	.LBB371:
 3153              	.LBB365:
 188:Core/Inc/ros/rosserial_msgs/RequestParam.h ****       for(unsigned int k= offset; k< offset+length_st_strings; ++k){
 3154              		.loc 5 188 7 is_stmt 1 view .LVU909
 188:Core/Inc/ros/rosserial_msgs/RequestParam.h ****       for(unsigned int k= offset; k< offset+length_st_strings; ++k){
 3155              		.loc 5 188 14 is_stmt 0 view .LVU910
 3156 00f6 0436     		adds	r6, r6, #4
 3157              	.LVL263:
 189:Core/Inc/ros/rosserial_msgs/RequestParam.h ****           inbuffer[k-1]=inbuffer[k];
 3158              		.loc 5 189 7 is_stmt 1 view .LVU911
 3159              	.LBB366:
 189:Core/Inc/ros/rosserial_msgs/RequestParam.h ****           inbuffer[k-1]=inbuffer[k];
 3160              		.loc 5 189 24 is_stmt 0 view .LVU912
 3161 00f8 3346     		mov	r3, r6
 3162 00fa 03E0     		b	.L160
 3163              	.LVL264:
 3164              	.L166:
 190:Core/Inc/ros/rosserial_msgs/RequestParam.h ****       }
 3165              		.loc 5 190 11 is_stmt 1 discriminator 2 view .LVU913
 190:Core/Inc/ros/rosserial_msgs/RequestParam.h ****       }
 3166              		.loc 5 190 23 is_stmt 0 discriminator 2 view .LVU914
 3167 00fc 5A1E     		subs	r2, r3, #1
 190:Core/Inc/ros/rosserial_msgs/RequestParam.h ****       }
 3168              		.loc 5 190 35 discriminator 2 view .LVU915
 3169 00fe E05C     		ldrb	r0, [r4, r3]	@ zero_extendqisi2
 190:Core/Inc/ros/rosserial_msgs/RequestParam.h ****       }
 3170              		.loc 5 190 24 discriminator 2 view .LVU916
 3171 0100 A054     		strb	r0, [r4, r2]
 189:Core/Inc/ros/rosserial_msgs/RequestParam.h ****           inbuffer[k-1]=inbuffer[k];
 3172              		.loc 5 189 7 is_stmt 1 discriminator 2 view .LVU917
 3173 0102 0133     		adds	r3, r3, #1
 3174              	.LVL265:
 3175              	.L160:
 189:Core/Inc/ros/rosserial_msgs/RequestParam.h ****           inbuffer[k-1]=inbuffer[k];
 3176              		.loc 5 189 36 discriminator 3 view .LVU918
 189:Core/Inc/ros/rosserial_msgs/RequestParam.h ****           inbuffer[k-1]=inbuffer[k];
 3177              		.loc 5 189 44 is_stmt 0 discriminator 3 view .LVU919
 3178 0104 7218     		adds	r2, r6, r1
 189:Core/Inc/ros/rosserial_msgs/RequestParam.h ****           inbuffer[k-1]=inbuffer[k];
 3179              		.loc 5 189 36 discriminator 3 view .LVU920
 3180 0106 9A42     		cmp	r2, r3
 3181 0108 F8D8     		bhi	.L166
 189:Core/Inc/ros/rosserial_msgs/RequestParam.h ****           inbuffer[k-1]=inbuffer[k];
 3182              		.loc 5 189 36 discriminator 3 view .LVU921
 3183              	.LBE366:
 192:Core/Inc/ros/rosserial_msgs/RequestParam.h ****       this->st_strings = (char *)(inbuffer + offset-1);
 3184              		.loc 5 192 7 is_stmt 1 discriminator 2 view .LVU922
 192:Core/Inc/ros/rosserial_msgs/RequestParam.h ****       this->st_strings = (char *)(inbuffer + offset-1);
 3185              		.loc 5 192 42 is_stmt 0 discriminator 2 view .LVU923
ARM GAS  /tmp/ccaSmKi1.s 			page 96


 3186 010a 013A     		subs	r2, r2, #1
 192:Core/Inc/ros/rosserial_msgs/RequestParam.h ****       this->st_strings = (char *)(inbuffer + offset-1);
 3187              		.loc 5 192 43 discriminator 2 view .LVU924
 3188 010c 0023     		movs	r3, #0
 3189              	.LVL266:
 192:Core/Inc/ros/rosserial_msgs/RequestParam.h ****       this->st_strings = (char *)(inbuffer + offset-1);
 3190              		.loc 5 192 43 discriminator 2 view .LVU925
 3191 010e A354     		strb	r3, [r4, r2]
 193:Core/Inc/ros/rosserial_msgs/RequestParam.h ****       offset += length_st_strings;
 3192              		.loc 5 193 7 is_stmt 1 discriminator 2 view .LVU926
 193:Core/Inc/ros/rosserial_msgs/RequestParam.h ****       offset += length_st_strings;
 3193              		.loc 5 193 52 is_stmt 0 discriminator 2 view .LVU927
 3194 0110 0CF1030C 		add	ip, ip, #3
 3195 0114 04EB0C03 		add	r3, r4, ip
 193:Core/Inc/ros/rosserial_msgs/RequestParam.h ****       offset += length_st_strings;
 3196              		.loc 5 193 24 discriminator 2 view .LVU928
 3197 0118 2B62     		str	r3, [r5, #32]
 194:Core/Inc/ros/rosserial_msgs/RequestParam.h ****         memcpy( &(this->strings[i]), &(this->st_strings), sizeof(char*));
 3198              		.loc 5 194 7 is_stmt 1 discriminator 2 view .LVU929
 194:Core/Inc/ros/rosserial_msgs/RequestParam.h ****         memcpy( &(this->strings[i]), &(this->st_strings), sizeof(char*));
 3199              		.loc 5 194 14 is_stmt 0 discriminator 2 view .LVU930
 3200 011a 0E44     		add	r6, r6, r1
 3201              	.LVL267:
 195:Core/Inc/ros/rosserial_msgs/RequestParam.h ****       }
 3202              		.loc 5 195 9 is_stmt 1 discriminator 2 view .LVU931
 195:Core/Inc/ros/rosserial_msgs/RequestParam.h ****       }
 3203              		.loc 5 195 25 is_stmt 0 discriminator 2 view .LVU932
 3204 011c 6A6A     		ldr	r2, [r5, #36]
 195:Core/Inc/ros/rosserial_msgs/RequestParam.h ****       }
 3205              		.loc 5 195 15 discriminator 2 view .LVU933
 3206 011e 42F82E30 		str	r3, [r2, lr, lsl #2]	@ unaligned
 3207              	.LVL268:
 195:Core/Inc/ros/rosserial_msgs/RequestParam.h ****       }
 3208              		.loc 5 195 15 discriminator 2 view .LVU934
 3209              	.LBE365:
 185:Core/Inc/ros/rosserial_msgs/RequestParam.h ****       uint32_t length_st_strings;
 3210              		.loc 5 185 7 is_stmt 1 discriminator 2 view .LVU935
 3211 0122 0EF1010E 		add	lr, lr, #1
 3212              	.LVL269:
 3213              	.L161:
 185:Core/Inc/ros/rosserial_msgs/RequestParam.h ****       uint32_t length_st_strings;
 3214              		.loc 5 185 30 discriminator 1 view .LVU936
 185:Core/Inc/ros/rosserial_msgs/RequestParam.h ****       uint32_t length_st_strings;
 3215              		.loc 5 185 32 is_stmt 0 discriminator 1 view .LVU937
 3216 0126 EB69     		ldr	r3, [r5, #28]
 185:Core/Inc/ros/rosserial_msgs/RequestParam.h ****       uint32_t length_st_strings;
 3217              		.loc 5 185 30 discriminator 1 view .LVU938
 3218 0128 7345     		cmp	r3, lr
 3219 012a 0BD9     		bls	.L148
 3220              	.LBB370:
 186:Core/Inc/ros/rosserial_msgs/RequestParam.h ****       arrToVar(length_st_strings, (inbuffer + offset));
 3221              		.loc 5 186 7 is_stmt 1 view .LVU939
 187:Core/Inc/ros/rosserial_msgs/RequestParam.h ****       offset += 4;
 3222              		.loc 5 187 7 view .LVU940
 187:Core/Inc/ros/rosserial_msgs/RequestParam.h ****       offset += 4;
 3223              		.loc 5 187 47 is_stmt 0 view .LVU941
 3224 012c B446     		mov	ip, r6
ARM GAS  /tmp/ccaSmKi1.s 			page 97


 187:Core/Inc/ros/rosserial_msgs/RequestParam.h ****       offset += 4;
 3225              		.loc 5 187 15 view .LVU942
 3226 012e A719     		adds	r7, r4, r6
 3227              	.LVL270:
 3228              	.LBB367:
 3229              	.LBI367:
 192:Core/Inc/ros/ros/msg.h ****   }
 193:Core/Inc/ros/ros/msg.h **** 
 194:Core/Inc/ros/ros/msg.h ****   // Copy data from a byte array into variable
 195:Core/Inc/ros/ros/msg.h ****   template<typename V, typename A>
 196:Core/Inc/ros/ros/msg.h ****   static void arrToVar(V& var, const A arr)
 3230              		.loc 11 196 15 is_stmt 1 view .LVU943
 3231              	.LBB368:
 197:Core/Inc/ros/ros/msg.h ****   {
 198:Core/Inc/ros/ros/msg.h ****     var = 0;
 3232              		.loc 11 198 9 is_stmt 0 view .LVU944
 3233 0130 0021     		movs	r1, #0
 3234              	.LBB369:
 199:Core/Inc/ros/ros/msg.h ****     for (size_t i = 0; i < sizeof(V); i++)
 3235              		.loc 11 199 17 view .LVU945
 3236 0132 0B46     		mov	r3, r1
 3237              	.LVL271:
 3238              	.L158:
 3239              		.loc 11 199 26 is_stmt 1 view .LVU946
 3240 0134 032B     		cmp	r3, #3
 3241 0136 DED8     		bhi	.L157
 200:Core/Inc/ros/ros/msg.h ****       var |= (arr[i] << (8 * i));
 3242              		.loc 11 200 18 is_stmt 0 view .LVU947
 3243 0138 FA5C     		ldrb	r2, [r7, r3]	@ zero_extendqisi2
 3244              		.loc 11 200 28 view .LVU948
 3245 013a D800     		lsls	r0, r3, #3
 3246              		.loc 11 200 22 view .LVU949
 3247 013c 8240     		lsls	r2, r2, r0
 3248              		.loc 11 200 11 view .LVU950
 3249 013e 1143     		orrs	r1, r1, r2
 3250              	.LVL272:
 199:Core/Inc/ros/ros/msg.h ****     for (size_t i = 0; i < sizeof(V); i++)
 3251              		.loc 11 199 5 is_stmt 1 view .LVU951
 3252 0140 0133     		adds	r3, r3, #1
 3253              	.LVL273:
 199:Core/Inc/ros/ros/msg.h ****     for (size_t i = 0; i < sizeof(V); i++)
 3254              		.loc 11 199 5 is_stmt 0 view .LVU952
 3255 0142 F7E7     		b	.L158
 3256              	.LVL274:
 3257              	.L148:
 199:Core/Inc/ros/ros/msg.h ****     for (size_t i = 0; i < sizeof(V); i++)
 3258              		.loc 11 199 5 view .LVU953
 3259              	.LBE369:
 3260              	.LBE368:
 3261              	.LBE367:
 3262              	.LBE370:
 3263              	.LBE371:
 198:Core/Inc/ros/rosserial_msgs/RequestParam.h **** 
 3264              		.loc 5 198 5 view .LVU954
 3265 0144 3046     		mov	r0, r6
 3266 0146 F8BD     		pop	{r3, r4, r5, r6, r7, pc}
 198:Core/Inc/ros/rosserial_msgs/RequestParam.h **** 
ARM GAS  /tmp/ccaSmKi1.s 			page 98


 3267              		.loc 5 198 5 view .LVU955
 3268              		.cfi_endproc
 3269              	.LFE453:
 3271              		.section	.text._ZN14rosserial_msgs3Log11deserializeEPh,"axG",%progbits,_ZN14rosserial_msgs3Log11de
 3272              		.align	1
 3273              		.weak	_ZN14rosserial_msgs3Log11deserializeEPh
 3274              		.syntax unified
 3275              		.thumb
 3276              		.thumb_func
 3277              		.fpu fpv4-sp-d16
 3279              	_ZN14rosserial_msgs3Log11deserializeEPh:
 3280              	.LVL275:
 3281              	.LFB439:
  44:Core/Inc/ros/rosserial_msgs/Log.h ****     {
 3282              		.loc 4 44 17 is_stmt 1 view -0
 3283              		.cfi_startproc
 3284              		@ args = 0, pretend = 0, frame = 0
 3285              		@ frame_needed = 0, uses_anonymous_args = 0
  44:Core/Inc/ros/rosserial_msgs/Log.h ****     {
 3286              		.loc 4 44 17 is_stmt 0 view .LVU957
 3287 0000 10B5     		push	{r4, lr}
 3288              	.LCFI19:
 3289              		.cfi_def_cfa_offset 8
 3290              		.cfi_offset 4, -8
 3291              		.cfi_offset 14, -4
  46:Core/Inc/ros/rosserial_msgs/Log.h ****       this->level =  ((uint8_t) (*(inbuffer + offset)));
 3292              		.loc 4 46 7 is_stmt 1 view .LVU958
 3293              	.LVL276:
  47:Core/Inc/ros/rosserial_msgs/Log.h ****       offset += sizeof(this->level);
 3294              		.loc 4 47 7 view .LVU959
  47:Core/Inc/ros/rosserial_msgs/Log.h ****       offset += sizeof(this->level);
 3295              		.loc 4 47 34 is_stmt 0 view .LVU960
 3296 0002 0C46     		mov	r4, r1
 3297 0004 14F8013B 		ldrb	r3, [r4], #1	@ zero_extendqisi2
  47:Core/Inc/ros/rosserial_msgs/Log.h ****       offset += sizeof(this->level);
 3298              		.loc 4 47 19 view .LVU961
 3299 0008 0371     		strb	r3, [r0, #4]
  48:Core/Inc/ros/rosserial_msgs/Log.h ****       uint32_t length_msg;
 3300              		.loc 4 48 7 is_stmt 1 view .LVU962
 3301              	.LVL277:
  49:Core/Inc/ros/rosserial_msgs/Log.h ****       arrToVar(length_msg, (inbuffer + offset));
 3302              		.loc 4 49 7 view .LVU963
  50:Core/Inc/ros/rosserial_msgs/Log.h ****       offset += 4;
 3303              		.loc 4 50 7 view .LVU964
 3304              	.LBB376:
 3305              	.LBI376:
 196:Core/Inc/ros/ros/msg.h ****   {
 3306              		.loc 11 196 15 view .LVU965
 3307              	.LBB377:
 198:Core/Inc/ros/ros/msg.h ****     for (size_t i = 0; i < sizeof(V); i++)
 3308              		.loc 11 198 9 is_stmt 0 view .LVU966
 3309 000a 0022     		movs	r2, #0
 3310              	.LBB378:
 199:Core/Inc/ros/ros/msg.h ****       var |= (arr[i] << (8 * i));
 3311              		.loc 11 199 17 view .LVU967
 3312 000c 1346     		mov	r3, r2
 3313              	.LVL278:
ARM GAS  /tmp/ccaSmKi1.s 			page 99


 3314              	.L169:
 199:Core/Inc/ros/ros/msg.h ****       var |= (arr[i] << (8 * i));
 3315              		.loc 11 199 26 is_stmt 1 view .LVU968
 3316 000e 032B     		cmp	r3, #3
 3317 0010 09D8     		bhi	.L171
 3318              		.loc 11 200 18 is_stmt 0 view .LVU969
 3319 0012 14F803C0 		ldrb	ip, [r4, r3]	@ zero_extendqisi2
 3320              		.loc 11 200 28 view .LVU970
 3321 0016 4FEAC30E 		lsl	lr, r3, #3
 3322              		.loc 11 200 22 view .LVU971
 3323 001a 0CFA0EFC 		lsl	ip, ip, lr
 3324              		.loc 11 200 11 view .LVU972
 3325 001e 42EA0C02 		orr	r2, r2, ip
 3326              	.LVL279:
 199:Core/Inc/ros/ros/msg.h ****       var |= (arr[i] << (8 * i));
 3327              		.loc 11 199 5 is_stmt 1 view .LVU973
 3328 0022 0133     		adds	r3, r3, #1
 3329              	.LVL280:
 199:Core/Inc/ros/ros/msg.h ****       var |= (arr[i] << (8 * i));
 3330              		.loc 11 199 5 is_stmt 0 view .LVU974
 3331 0024 F3E7     		b	.L169
 3332              	.L171:
 199:Core/Inc/ros/ros/msg.h ****       var |= (arr[i] << (8 * i));
 3333              		.loc 11 199 5 view .LVU975
 3334              	.LBE378:
 3335              	.LBE377:
 3336              	.LBE376:
 3337              	.LBB379:
  52:Core/Inc/ros/rosserial_msgs/Log.h ****           inbuffer[k-1]=inbuffer[k];
 3338              		.loc 4 52 24 view .LVU976
 3339 0026 0523     		movs	r3, #5
 3340              	.LVL281:
  52:Core/Inc/ros/rosserial_msgs/Log.h ****           inbuffer[k-1]=inbuffer[k];
 3341              		.loc 4 52 24 view .LVU977
 3342 0028 06E0     		b	.L168
 3343              	.LVL282:
 3344              	.L173:
  53:Core/Inc/ros/rosserial_msgs/Log.h ****       }
 3345              		.loc 4 53 11 is_stmt 1 discriminator 2 view .LVU978
  53:Core/Inc/ros/rosserial_msgs/Log.h ****       }
 3346              		.loc 4 53 23 is_stmt 0 discriminator 2 view .LVU979
 3347 002a 03F1FF3C 		add	ip, r3, #-1
  53:Core/Inc/ros/rosserial_msgs/Log.h ****       }
 3348              		.loc 4 53 35 discriminator 2 view .LVU980
 3349 002e 11F803E0 		ldrb	lr, [r1, r3]	@ zero_extendqisi2
  53:Core/Inc/ros/rosserial_msgs/Log.h ****       }
 3350              		.loc 4 53 24 discriminator 2 view .LVU981
 3351 0032 01F80CE0 		strb	lr, [r1, ip]
  52:Core/Inc/ros/rosserial_msgs/Log.h ****           inbuffer[k-1]=inbuffer[k];
 3352              		.loc 4 52 7 is_stmt 1 discriminator 2 view .LVU982
 3353 0036 0133     		adds	r3, r3, #1
 3354              	.LVL283:
 3355              	.L168:
  52:Core/Inc/ros/rosserial_msgs/Log.h ****           inbuffer[k-1]=inbuffer[k];
 3356              		.loc 4 52 36 discriminator 3 view .LVU983
  52:Core/Inc/ros/rosserial_msgs/Log.h ****           inbuffer[k-1]=inbuffer[k];
 3357              		.loc 4 52 44 is_stmt 0 discriminator 3 view .LVU984
ARM GAS  /tmp/ccaSmKi1.s 			page 100


 3358 0038 02F1050C 		add	ip, r2, #5
  52:Core/Inc/ros/rosserial_msgs/Log.h ****           inbuffer[k-1]=inbuffer[k];
 3359              		.loc 4 52 36 discriminator 3 view .LVU985
 3360 003c 9C45     		cmp	ip, r3
 3361 003e F4D8     		bhi	.L173
 3362              	.LBE379:
  55:Core/Inc/ros/rosserial_msgs/Log.h ****       this->msg = (char *)(inbuffer + offset-1);
 3363              		.loc 4 55 7 is_stmt 1 view .LVU986
  55:Core/Inc/ros/rosserial_msgs/Log.h ****       this->msg = (char *)(inbuffer + offset-1);
 3364              		.loc 4 55 35 is_stmt 0 view .LVU987
 3365 0040 131D     		adds	r3, r2, #4
 3366              	.LVL284:
  55:Core/Inc/ros/rosserial_msgs/Log.h ****       this->msg = (char *)(inbuffer + offset-1);
 3367              		.loc 4 55 36 view .LVU988
 3368 0042 0024     		movs	r4, #0
 3369 0044 CC54     		strb	r4, [r1, r3]
  56:Core/Inc/ros/rosserial_msgs/Log.h ****       offset += length_msg;
 3370              		.loc 4 56 7 is_stmt 1 view .LVU989
  56:Core/Inc/ros/rosserial_msgs/Log.h ****       offset += length_msg;
 3371              		.loc 4 56 45 is_stmt 0 view .LVU990
 3372 0046 0431     		adds	r1, r1, #4
 3373              	.LVL285:
  56:Core/Inc/ros/rosserial_msgs/Log.h ****       offset += length_msg;
 3374              		.loc 4 56 17 view .LVU991
 3375 0048 8160     		str	r1, [r0, #8]
  57:Core/Inc/ros/rosserial_msgs/Log.h ****      return offset;
 3376              		.loc 4 57 7 is_stmt 1 view .LVU992
 3377              	.LVL286:
  58:Core/Inc/ros/rosserial_msgs/Log.h ****     }
 3378              		.loc 4 58 6 view .LVU993
  59:Core/Inc/ros/rosserial_msgs/Log.h **** 
 3379              		.loc 4 59 5 is_stmt 0 view .LVU994
 3380 004a 501D     		adds	r0, r2, #5
 3381              	.LVL287:
  59:Core/Inc/ros/rosserial_msgs/Log.h **** 
 3382              		.loc 4 59 5 view .LVU995
 3383 004c 10BD     		pop	{r4, pc}
 3384              		.cfi_endproc
 3385              	.LFE439:
 3387              		.section	.text._ZN14rosserial_msgs9TopicInfo11deserializeEPh,"axG",%progbits,_ZN14rosserial_msgs9T
 3388              		.align	1
 3389              		.weak	_ZN14rosserial_msgs9TopicInfo11deserializeEPh
 3390              		.syntax unified
 3391              		.thumb
 3392              		.thumb_func
 3393              		.fpu fpv4-sp-d16
 3395              	_ZN14rosserial_msgs9TopicInfo11deserializeEPh:
 3396              	.LVL288:
 3397              	.LFB432:
  77:Core/Inc/ros/rosserial_msgs/TopicInfo.h ****     {
 3398              		.loc 3 77 17 is_stmt 1 view -0
 3399              		.cfi_startproc
 3400              		@ args = 0, pretend = 0, frame = 0
 3401              		@ frame_needed = 0, uses_anonymous_args = 0
  77:Core/Inc/ros/rosserial_msgs/TopicInfo.h ****     {
 3402              		.loc 3 77 17 is_stmt 0 view .LVU997
 3403 0000 30B5     		push	{r4, r5, lr}
ARM GAS  /tmp/ccaSmKi1.s 			page 101


 3404              	.LCFI20:
 3405              		.cfi_def_cfa_offset 12
 3406              		.cfi_offset 4, -12
 3407              		.cfi_offset 5, -8
 3408              		.cfi_offset 14, -4
  79:Core/Inc/ros/rosserial_msgs/TopicInfo.h ****       this->topic_id =  ((uint16_t) (*(inbuffer + offset)));
 3409              		.loc 3 79 7 is_stmt 1 view .LVU998
 3410              	.LVL289:
  80:Core/Inc/ros/rosserial_msgs/TopicInfo.h ****       this->topic_id |= ((uint16_t) (*(inbuffer + offset + 1))) << (8 * 1);
 3411              		.loc 3 80 7 view .LVU999
  80:Core/Inc/ros/rosserial_msgs/TopicInfo.h ****       this->topic_id |= ((uint16_t) (*(inbuffer + offset + 1))) << (8 * 1);
 3412              		.loc 3 80 26 is_stmt 0 view .LVU1000
 3413 0002 0B78     		ldrb	r3, [r1]	@ zero_extendqisi2
  80:Core/Inc/ros/rosserial_msgs/TopicInfo.h ****       this->topic_id |= ((uint16_t) (*(inbuffer + offset + 1))) << (8 * 1);
 3414              		.loc 3 80 22 view .LVU1001
 3415 0004 8380     		strh	r3, [r0, #4]	@ movhi
  81:Core/Inc/ros/rosserial_msgs/TopicInfo.h ****       offset += sizeof(this->topic_id);
 3416              		.loc 3 81 7 is_stmt 1 view .LVU1002
  81:Core/Inc/ros/rosserial_msgs/TopicInfo.h ****       offset += sizeof(this->topic_id);
 3417              		.loc 3 81 38 is_stmt 0 view .LVU1003
 3418 0006 4A78     		ldrb	r2, [r1, #1]	@ zero_extendqisi2
  81:Core/Inc/ros/rosserial_msgs/TopicInfo.h ****       offset += sizeof(this->topic_id);
 3419              		.loc 3 81 22 view .LVU1004
 3420 0008 43EA0223 		orr	r3, r3, r2, lsl #8
 3421 000c 8380     		strh	r3, [r0, #4]	@ movhi
  82:Core/Inc/ros/rosserial_msgs/TopicInfo.h ****       uint32_t length_topic_name;
 3422              		.loc 3 82 7 is_stmt 1 view .LVU1005
 3423              	.LVL290:
  83:Core/Inc/ros/rosserial_msgs/TopicInfo.h ****       arrToVar(length_topic_name, (inbuffer + offset));
 3424              		.loc 3 83 7 view .LVU1006
  84:Core/Inc/ros/rosserial_msgs/TopicInfo.h ****       offset += 4;
 3425              		.loc 3 84 7 view .LVU1007
  84:Core/Inc/ros/rosserial_msgs/TopicInfo.h ****       offset += 4;
 3426              		.loc 3 84 15 is_stmt 0 view .LVU1008
 3427 000e 01F1020C 		add	ip, r1, #2
 3428              	.LVL291:
 3429              	.LBB392:
 3430              	.LBI392:
 196:Core/Inc/ros/ros/msg.h ****   {
 3431              		.loc 11 196 15 is_stmt 1 view .LVU1009
 3432              	.LBB393:
 198:Core/Inc/ros/ros/msg.h ****     for (size_t i = 0; i < sizeof(V); i++)
 3433              		.loc 11 198 9 is_stmt 0 view .LVU1010
 3434 0012 0022     		movs	r2, #0
 3435              	.LBB394:
 199:Core/Inc/ros/ros/msg.h ****       var |= (arr[i] << (8 * i));
 3436              		.loc 11 199 17 view .LVU1011
 3437 0014 1346     		mov	r3, r2
 3438              	.LVL292:
 3439              	.L176:
 199:Core/Inc/ros/ros/msg.h ****       var |= (arr[i] << (8 * i));
 3440              		.loc 11 199 26 is_stmt 1 view .LVU1012
 3441 0016 032B     		cmp	r3, #3
 3442 0018 06D8     		bhi	.L186
 3443              		.loc 11 200 18 is_stmt 0 view .LVU1013
 3444 001a 1CF80340 		ldrb	r4, [ip, r3]	@ zero_extendqisi2
 3445              		.loc 11 200 28 view .LVU1014
ARM GAS  /tmp/ccaSmKi1.s 			page 102


 3446 001e DD00     		lsls	r5, r3, #3
 3447              		.loc 11 200 22 view .LVU1015
 3448 0020 AC40     		lsls	r4, r4, r5
 3449              		.loc 11 200 11 view .LVU1016
 3450 0022 2243     		orrs	r2, r2, r4
 3451              	.LVL293:
 199:Core/Inc/ros/ros/msg.h ****       var |= (arr[i] << (8 * i));
 3452              		.loc 11 199 5 is_stmt 1 view .LVU1017
 3453 0024 0133     		adds	r3, r3, #1
 3454              	.LVL294:
 199:Core/Inc/ros/ros/msg.h ****       var |= (arr[i] << (8 * i));
 3455              		.loc 11 199 5 is_stmt 0 view .LVU1018
 3456 0026 F6E7     		b	.L176
 3457              	.L186:
 199:Core/Inc/ros/ros/msg.h ****       var |= (arr[i] << (8 * i));
 3458              		.loc 11 199 5 view .LVU1019
 3459              	.LBE394:
 3460              	.LBE393:
 3461              	.LBE392:
 3462              	.LBB395:
  86:Core/Inc/ros/rosserial_msgs/TopicInfo.h ****           inbuffer[k-1]=inbuffer[k];
 3463              		.loc 3 86 24 view .LVU1020
 3464 0028 0623     		movs	r3, #6
 3465              	.LVL295:
  86:Core/Inc/ros/rosserial_msgs/TopicInfo.h ****           inbuffer[k-1]=inbuffer[k];
 3466              		.loc 3 86 24 view .LVU1021
 3467 002a 05E0     		b	.L175
 3468              	.LVL296:
 3469              	.L188:
  87:Core/Inc/ros/rosserial_msgs/TopicInfo.h ****       }
 3470              		.loc 3 87 11 is_stmt 1 discriminator 2 view .LVU1022
  87:Core/Inc/ros/rosserial_msgs/TopicInfo.h ****       }
 3471              		.loc 3 87 23 is_stmt 0 discriminator 2 view .LVU1023
 3472 002c 5C1E     		subs	r4, r3, #1
  87:Core/Inc/ros/rosserial_msgs/TopicInfo.h ****       }
 3473              		.loc 3 87 35 discriminator 2 view .LVU1024
 3474 002e 11F803C0 		ldrb	ip, [r1, r3]	@ zero_extendqisi2
  87:Core/Inc/ros/rosserial_msgs/TopicInfo.h ****       }
 3475              		.loc 3 87 24 discriminator 2 view .LVU1025
 3476 0032 01F804C0 		strb	ip, [r1, r4]
  86:Core/Inc/ros/rosserial_msgs/TopicInfo.h ****           inbuffer[k-1]=inbuffer[k];
 3477              		.loc 3 86 7 is_stmt 1 discriminator 2 view .LVU1026
 3478 0036 0133     		adds	r3, r3, #1
 3479              	.LVL297:
 3480              	.L175:
  86:Core/Inc/ros/rosserial_msgs/TopicInfo.h ****           inbuffer[k-1]=inbuffer[k];
 3481              		.loc 3 86 36 discriminator 3 view .LVU1027
  86:Core/Inc/ros/rosserial_msgs/TopicInfo.h ****           inbuffer[k-1]=inbuffer[k];
 3482              		.loc 3 86 44 is_stmt 0 discriminator 3 view .LVU1028
 3483 0038 02F1060C 		add	ip, r2, #6
  86:Core/Inc/ros/rosserial_msgs/TopicInfo.h ****           inbuffer[k-1]=inbuffer[k];
 3484              		.loc 3 86 36 discriminator 3 view .LVU1029
 3485 003c 9C45     		cmp	ip, r3
 3486 003e F5D8     		bhi	.L188
 3487              	.LBE395:
  89:Core/Inc/ros/rosserial_msgs/TopicInfo.h ****       this->topic_name = (char *)(inbuffer + offset-1);
 3488              		.loc 3 89 7 is_stmt 1 view .LVU1030
ARM GAS  /tmp/ccaSmKi1.s 			page 103


  89:Core/Inc/ros/rosserial_msgs/TopicInfo.h ****       this->topic_name = (char *)(inbuffer + offset-1);
 3489              		.loc 3 89 42 is_stmt 0 view .LVU1031
 3490 0040 541D     		adds	r4, r2, #5
  89:Core/Inc/ros/rosserial_msgs/TopicInfo.h ****       this->topic_name = (char *)(inbuffer + offset-1);
 3491              		.loc 3 89 43 view .LVU1032
 3492 0042 0023     		movs	r3, #0
 3493              	.LVL298:
  89:Core/Inc/ros/rosserial_msgs/TopicInfo.h ****       this->topic_name = (char *)(inbuffer + offset-1);
 3494              		.loc 3 89 43 view .LVU1033
 3495 0044 0B55     		strb	r3, [r1, r4]
  90:Core/Inc/ros/rosserial_msgs/TopicInfo.h ****       offset += length_topic_name;
 3496              		.loc 3 90 7 is_stmt 1 view .LVU1034
  90:Core/Inc/ros/rosserial_msgs/TopicInfo.h ****       offset += length_topic_name;
 3497              		.loc 3 90 52 is_stmt 0 view .LVU1035
 3498 0046 4C1D     		adds	r4, r1, #5
  90:Core/Inc/ros/rosserial_msgs/TopicInfo.h ****       offset += length_topic_name;
 3499              		.loc 3 90 24 view .LVU1036
 3500 0048 8460     		str	r4, [r0, #8]
  91:Core/Inc/ros/rosserial_msgs/TopicInfo.h ****       uint32_t length_message_type;
 3501              		.loc 3 91 7 is_stmt 1 view .LVU1037
  91:Core/Inc/ros/rosserial_msgs/TopicInfo.h ****       uint32_t length_message_type;
 3502              		.loc 3 91 14 is_stmt 0 view .LVU1038
 3503 004a 02F1060C 		add	ip, r2, #6
 3504              	.LVL299:
  92:Core/Inc/ros/rosserial_msgs/TopicInfo.h ****       arrToVar(length_message_type, (inbuffer + offset));
 3505              		.loc 3 92 7 is_stmt 1 view .LVU1039
  93:Core/Inc/ros/rosserial_msgs/TopicInfo.h ****       offset += 4;
 3506              		.loc 3 93 7 view .LVU1040
  93:Core/Inc/ros/rosserial_msgs/TopicInfo.h ****       offset += 4;
 3507              		.loc 3 93 15 is_stmt 0 view .LVU1041
 3508 004e 8C44     		add	ip, ip, r1
 3509              	.LVL300:
 3510              	.LBB396:
 3511              	.LBI396:
 196:Core/Inc/ros/ros/msg.h ****   {
 3512              		.loc 11 196 15 is_stmt 1 view .LVU1042
 3513              	.LBB397:
 198:Core/Inc/ros/ros/msg.h ****     for (size_t i = 0; i < sizeof(V); i++)
 3514              		.loc 11 198 9 is_stmt 0 view .LVU1043
 3515 0050 9E46     		mov	lr, r3
 3516              	.LVL301:
 3517              	.L179:
 3518              	.LBB398:
 199:Core/Inc/ros/ros/msg.h ****       var |= (arr[i] << (8 * i));
 3519              		.loc 11 199 26 is_stmt 1 view .LVU1044
 3520 0052 032B     		cmp	r3, #3
 3521 0054 07D8     		bhi	.L178
 3522              		.loc 11 200 18 is_stmt 0 view .LVU1045
 3523 0056 1CF80340 		ldrb	r4, [ip, r3]	@ zero_extendqisi2
 3524              		.loc 11 200 28 view .LVU1046
 3525 005a DD00     		lsls	r5, r3, #3
 3526              		.loc 11 200 22 view .LVU1047
 3527 005c AC40     		lsls	r4, r4, r5
 3528              		.loc 11 200 11 view .LVU1048
 3529 005e 4EEA040E 		orr	lr, lr, r4
 3530              	.LVL302:
 199:Core/Inc/ros/ros/msg.h ****       var |= (arr[i] << (8 * i));
ARM GAS  /tmp/ccaSmKi1.s 			page 104


 3531              		.loc 11 199 5 is_stmt 1 view .LVU1049
 3532 0062 0133     		adds	r3, r3, #1
 3533              	.LVL303:
 199:Core/Inc/ros/ros/msg.h ****       var |= (arr[i] << (8 * i));
 3534              		.loc 11 199 5 is_stmt 0 view .LVU1050
 3535 0064 F5E7     		b	.L179
 3536              	.L178:
 3537              	.LVL304:
 199:Core/Inc/ros/ros/msg.h ****       var |= (arr[i] << (8 * i));
 3538              		.loc 11 199 5 view .LVU1051
 3539              	.LBE398:
 3540              	.LBE397:
 3541              	.LBE396:
  94:Core/Inc/ros/rosserial_msgs/TopicInfo.h ****       for(unsigned int k= offset; k< offset+length_message_type; ++k){
 3542              		.loc 3 94 7 is_stmt 1 view .LVU1052
 3543 0066 02F10A05 		add	r5, r2, #10
 3544              	.LVL305:
  95:Core/Inc/ros/rosserial_msgs/TopicInfo.h ****           inbuffer[k-1]=inbuffer[k];
 3545              		.loc 3 95 7 view .LVU1053
 3546              	.LBB399:
  95:Core/Inc/ros/rosserial_msgs/TopicInfo.h ****           inbuffer[k-1]=inbuffer[k];
 3547              		.loc 3 95 24 is_stmt 0 view .LVU1054
 3548 006a 2B46     		mov	r3, r5
 3549 006c 05E0     		b	.L181
 3550              	.LVL306:
 3551              	.L189:
  96:Core/Inc/ros/rosserial_msgs/TopicInfo.h ****       }
 3552              		.loc 3 96 11 is_stmt 1 discriminator 2 view .LVU1055
  96:Core/Inc/ros/rosserial_msgs/TopicInfo.h ****       }
 3553              		.loc 3 96 23 is_stmt 0 discriminator 2 view .LVU1056
 3554 006e 03F1FF3C 		add	ip, r3, #-1
  96:Core/Inc/ros/rosserial_msgs/TopicInfo.h ****       }
 3555              		.loc 3 96 35 discriminator 2 view .LVU1057
 3556 0072 CC5C     		ldrb	r4, [r1, r3]	@ zero_extendqisi2
  96:Core/Inc/ros/rosserial_msgs/TopicInfo.h ****       }
 3557              		.loc 3 96 24 discriminator 2 view .LVU1058
 3558 0074 01F80C40 		strb	r4, [r1, ip]
  95:Core/Inc/ros/rosserial_msgs/TopicInfo.h ****           inbuffer[k-1]=inbuffer[k];
 3559              		.loc 3 95 7 is_stmt 1 discriminator 2 view .LVU1059
 3560 0078 0133     		adds	r3, r3, #1
 3561              	.LVL307:
 3562              	.L181:
  95:Core/Inc/ros/rosserial_msgs/TopicInfo.h ****           inbuffer[k-1]=inbuffer[k];
 3563              		.loc 3 95 36 discriminator 3 view .LVU1060
  95:Core/Inc/ros/rosserial_msgs/TopicInfo.h ****           inbuffer[k-1]=inbuffer[k];
 3564              		.loc 3 95 44 is_stmt 0 discriminator 3 view .LVU1061
 3565 007a 05EB0E0C 		add	ip, r5, lr
  95:Core/Inc/ros/rosserial_msgs/TopicInfo.h ****           inbuffer[k-1]=inbuffer[k];
 3566              		.loc 3 95 36 discriminator 3 view .LVU1062
 3567 007e 9C45     		cmp	ip, r3
 3568 0080 F5D8     		bhi	.L189
  95:Core/Inc/ros/rosserial_msgs/TopicInfo.h ****           inbuffer[k-1]=inbuffer[k];
 3569              		.loc 3 95 36 discriminator 3 view .LVU1063
 3570              	.LBE399:
  98:Core/Inc/ros/rosserial_msgs/TopicInfo.h ****       this->message_type = (char *)(inbuffer + offset-1);
 3571              		.loc 3 98 7 is_stmt 1 view .LVU1064
  98:Core/Inc/ros/rosserial_msgs/TopicInfo.h ****       this->message_type = (char *)(inbuffer + offset-1);
ARM GAS  /tmp/ccaSmKi1.s 			page 105


 3572              		.loc 3 98 44 is_stmt 0 view .LVU1065
 3573 0082 0CF1FF3C 		add	ip, ip, #-1
  98:Core/Inc/ros/rosserial_msgs/TopicInfo.h ****       this->message_type = (char *)(inbuffer + offset-1);
 3574              		.loc 3 98 45 view .LVU1066
 3575 0086 0023     		movs	r3, #0
 3576              	.LVL308:
  98:Core/Inc/ros/rosserial_msgs/TopicInfo.h ****       this->message_type = (char *)(inbuffer + offset-1);
 3577              		.loc 3 98 45 view .LVU1067
 3578 0088 01F80C30 		strb	r3, [r1, ip]
  99:Core/Inc/ros/rosserial_msgs/TopicInfo.h ****       offset += length_message_type;
 3579              		.loc 3 99 7 is_stmt 1 view .LVU1068
  99:Core/Inc/ros/rosserial_msgs/TopicInfo.h ****       offset += length_message_type;
 3580              		.loc 3 99 54 is_stmt 0 view .LVU1069
 3581 008c 0932     		adds	r2, r2, #9
 3582              	.LVL309:
  99:Core/Inc/ros/rosserial_msgs/TopicInfo.h ****       offset += length_message_type;
 3583              		.loc 3 99 54 view .LVU1070
 3584 008e 0A44     		add	r2, r2, r1
  99:Core/Inc/ros/rosserial_msgs/TopicInfo.h ****       offset += length_message_type;
 3585              		.loc 3 99 26 view .LVU1071
 3586 0090 C260     		str	r2, [r0, #12]
 100:Core/Inc/ros/rosserial_msgs/TopicInfo.h ****       uint32_t length_md5sum;
 3587              		.loc 3 100 7 is_stmt 1 view .LVU1072
 100:Core/Inc/ros/rosserial_msgs/TopicInfo.h ****       uint32_t length_md5sum;
 3588              		.loc 3 100 14 is_stmt 0 view .LVU1073
 3589 0092 7544     		add	r5, r5, lr
 3590              	.LVL310:
 101:Core/Inc/ros/rosserial_msgs/TopicInfo.h ****       arrToVar(length_md5sum, (inbuffer + offset));
 3591              		.loc 3 101 7 is_stmt 1 view .LVU1074
 102:Core/Inc/ros/rosserial_msgs/TopicInfo.h ****       offset += 4;
 3592              		.loc 3 102 7 view .LVU1075
 102:Core/Inc/ros/rosserial_msgs/TopicInfo.h ****       offset += 4;
 3593              		.loc 3 102 15 is_stmt 0 view .LVU1076
 3594 0094 01EB050E 		add	lr, r1, r5
 3595              	.LVL311:
 3596              	.LBB400:
 3597              	.LBI400:
 196:Core/Inc/ros/ros/msg.h ****   {
 3598              		.loc 11 196 15 is_stmt 1 view .LVU1077
 3599              	.LBB401:
 198:Core/Inc/ros/ros/msg.h ****     for (size_t i = 0; i < sizeof(V); i++)
 3600              		.loc 11 198 9 is_stmt 0 view .LVU1078
 3601 0098 1C46     		mov	r4, r3
 3602              	.LVL312:
 3603              	.L183:
 3604              	.LBB402:
 199:Core/Inc/ros/ros/msg.h ****       var |= (arr[i] << (8 * i));
 3605              		.loc 11 199 26 is_stmt 1 view .LVU1079
 3606 009a 032B     		cmp	r3, #3
 3607 009c 08D8     		bhi	.L182
 3608              		.loc 11 200 18 is_stmt 0 view .LVU1080
 3609 009e 1EF80320 		ldrb	r2, [lr, r3]	@ zero_extendqisi2
 3610              		.loc 11 200 28 view .LVU1081
 3611 00a2 4FEAC30C 		lsl	ip, r3, #3
 3612              		.loc 11 200 22 view .LVU1082
 3613 00a6 02FA0CF2 		lsl	r2, r2, ip
 3614              		.loc 11 200 11 view .LVU1083
ARM GAS  /tmp/ccaSmKi1.s 			page 106


 3615 00aa 1443     		orrs	r4, r4, r2
 3616              	.LVL313:
 199:Core/Inc/ros/ros/msg.h ****       var |= (arr[i] << (8 * i));
 3617              		.loc 11 199 5 is_stmt 1 view .LVU1084
 3618 00ac 0133     		adds	r3, r3, #1
 3619              	.LVL314:
 199:Core/Inc/ros/ros/msg.h ****       var |= (arr[i] << (8 * i));
 3620              		.loc 11 199 5 is_stmt 0 view .LVU1085
 3621 00ae F4E7     		b	.L183
 3622              	.L182:
 3623              	.LVL315:
 199:Core/Inc/ros/ros/msg.h ****       var |= (arr[i] << (8 * i));
 3624              		.loc 11 199 5 view .LVU1086
 3625              	.LBE402:
 3626              	.LBE401:
 3627              	.LBE400:
 103:Core/Inc/ros/rosserial_msgs/TopicInfo.h ****       for(unsigned int k= offset; k< offset+length_md5sum; ++k){
 3628              		.loc 3 103 7 is_stmt 1 view .LVU1087
 103:Core/Inc/ros/rosserial_msgs/TopicInfo.h ****       for(unsigned int k= offset; k< offset+length_md5sum; ++k){
 3629              		.loc 3 103 14 is_stmt 0 view .LVU1088
 3630 00b0 05F1040C 		add	ip, r5, #4
 3631              	.LVL316:
 104:Core/Inc/ros/rosserial_msgs/TopicInfo.h ****           inbuffer[k-1]=inbuffer[k];
 3632              		.loc 3 104 7 is_stmt 1 view .LVU1089
 3633              	.LBB403:
 104:Core/Inc/ros/rosserial_msgs/TopicInfo.h ****           inbuffer[k-1]=inbuffer[k];
 3634              		.loc 3 104 24 is_stmt 0 view .LVU1090
 3635 00b4 6346     		mov	r3, ip
 3636 00b6 05E0     		b	.L185
 3637              	.LVL317:
 3638              	.L190:
 105:Core/Inc/ros/rosserial_msgs/TopicInfo.h ****       }
 3639              		.loc 3 105 11 is_stmt 1 discriminator 2 view .LVU1091
 105:Core/Inc/ros/rosserial_msgs/TopicInfo.h ****       }
 3640              		.loc 3 105 23 is_stmt 0 discriminator 2 view .LVU1092
 3641 00b8 5A1E     		subs	r2, r3, #1
 105:Core/Inc/ros/rosserial_msgs/TopicInfo.h ****       }
 3642              		.loc 3 105 35 discriminator 2 view .LVU1093
 3643 00ba 11F803E0 		ldrb	lr, [r1, r3]	@ zero_extendqisi2
 105:Core/Inc/ros/rosserial_msgs/TopicInfo.h ****       }
 3644              		.loc 3 105 24 discriminator 2 view .LVU1094
 3645 00be 01F802E0 		strb	lr, [r1, r2]
 104:Core/Inc/ros/rosserial_msgs/TopicInfo.h ****           inbuffer[k-1]=inbuffer[k];
 3646              		.loc 3 104 7 is_stmt 1 discriminator 2 view .LVU1095
 3647 00c2 0133     		adds	r3, r3, #1
 3648              	.LVL318:
 3649              	.L185:
 104:Core/Inc/ros/rosserial_msgs/TopicInfo.h ****           inbuffer[k-1]=inbuffer[k];
 3650              		.loc 3 104 36 discriminator 3 view .LVU1096
 104:Core/Inc/ros/rosserial_msgs/TopicInfo.h ****           inbuffer[k-1]=inbuffer[k];
 3651              		.loc 3 104 44 is_stmt 0 discriminator 3 view .LVU1097
 3652 00c4 0CEB0402 		add	r2, ip, r4
 104:Core/Inc/ros/rosserial_msgs/TopicInfo.h ****           inbuffer[k-1]=inbuffer[k];
 3653              		.loc 3 104 36 discriminator 3 view .LVU1098
 3654 00c8 9A42     		cmp	r2, r3
 3655 00ca F5D8     		bhi	.L190
 104:Core/Inc/ros/rosserial_msgs/TopicInfo.h ****           inbuffer[k-1]=inbuffer[k];
ARM GAS  /tmp/ccaSmKi1.s 			page 107


 3656              		.loc 3 104 36 discriminator 3 view .LVU1099
 3657              	.LBE403:
 107:Core/Inc/ros/rosserial_msgs/TopicInfo.h ****       this->md5sum = (char *)(inbuffer + offset-1);
 3658              		.loc 3 107 7 is_stmt 1 view .LVU1100
 107:Core/Inc/ros/rosserial_msgs/TopicInfo.h ****       this->md5sum = (char *)(inbuffer + offset-1);
 3659              		.loc 3 107 38 is_stmt 0 view .LVU1101
 3660 00cc 013A     		subs	r2, r2, #1
 107:Core/Inc/ros/rosserial_msgs/TopicInfo.h ****       this->md5sum = (char *)(inbuffer + offset-1);
 3661              		.loc 3 107 39 view .LVU1102
 3662 00ce 0023     		movs	r3, #0
 3663              	.LVL319:
 107:Core/Inc/ros/rosserial_msgs/TopicInfo.h ****       this->md5sum = (char *)(inbuffer + offset-1);
 3664              		.loc 3 107 39 view .LVU1103
 3665 00d0 8B54     		strb	r3, [r1, r2]
 108:Core/Inc/ros/rosserial_msgs/TopicInfo.h ****       offset += length_md5sum;
 3666              		.loc 3 108 7 is_stmt 1 view .LVU1104
 108:Core/Inc/ros/rosserial_msgs/TopicInfo.h ****       offset += length_md5sum;
 3667              		.loc 3 108 48 is_stmt 0 view .LVU1105
 3668 00d2 0335     		adds	r5, r5, #3
 3669 00d4 0D44     		add	r5, r5, r1
 108:Core/Inc/ros/rosserial_msgs/TopicInfo.h ****       offset += length_md5sum;
 3670              		.loc 3 108 20 view .LVU1106
 3671 00d6 0561     		str	r5, [r0, #16]
 109:Core/Inc/ros/rosserial_msgs/TopicInfo.h ****       union {
 3672              		.loc 3 109 7 is_stmt 1 view .LVU1107
 109:Core/Inc/ros/rosserial_msgs/TopicInfo.h ****       union {
 3673              		.loc 3 109 14 is_stmt 0 view .LVU1108
 3674 00d8 A444     		add	ip, ip, r4
 3675              	.LVL320:
 110:Core/Inc/ros/rosserial_msgs/TopicInfo.h ****         int32_t real;
 3676              		.loc 3 110 7 is_stmt 1 view .LVU1109
 114:Core/Inc/ros/rosserial_msgs/TopicInfo.h ****       u_buffer_size.base |= ((uint32_t) (*(inbuffer + offset + 0))) << (8 * 0);
 3677              		.loc 3 114 7 view .LVU1110
 115:Core/Inc/ros/rosserial_msgs/TopicInfo.h ****       u_buffer_size.base |= ((uint32_t) (*(inbuffer + offset + 1))) << (8 * 1);
 3678              		.loc 3 115 7 view .LVU1111
 115:Core/Inc/ros/rosserial_msgs/TopicInfo.h ****       u_buffer_size.base |= ((uint32_t) (*(inbuffer + offset + 1))) << (8 * 1);
 3679              		.loc 3 115 42 is_stmt 0 view .LVU1112
 3680 00da 11F80C30 		ldrb	r3, [r1, ip]	@ zero_extendqisi2
 116:Core/Inc/ros/rosserial_msgs/TopicInfo.h ****       u_buffer_size.base |= ((uint32_t) (*(inbuffer + offset + 2))) << (8 * 2);
 3681              		.loc 3 116 7 is_stmt 1 view .LVU1113
 116:Core/Inc/ros/rosserial_msgs/TopicInfo.h ****       u_buffer_size.base |= ((uint32_t) (*(inbuffer + offset + 2))) << (8 * 2);
 3682              		.loc 3 116 62 is_stmt 0 view .LVU1114
 3683 00de 0CF10102 		add	r2, ip, #1
 116:Core/Inc/ros/rosserial_msgs/TopicInfo.h ****       u_buffer_size.base |= ((uint32_t) (*(inbuffer + offset + 2))) << (8 * 2);
 3684              		.loc 3 116 42 view .LVU1115
 3685 00e2 8A5C     		ldrb	r2, [r1, r2]	@ zero_extendqisi2
 116:Core/Inc/ros/rosserial_msgs/TopicInfo.h ****       u_buffer_size.base |= ((uint32_t) (*(inbuffer + offset + 2))) << (8 * 2);
 3686              		.loc 3 116 26 view .LVU1116
 3687 00e4 43EA0223 		orr	r3, r3, r2, lsl #8
 117:Core/Inc/ros/rosserial_msgs/TopicInfo.h ****       u_buffer_size.base |= ((uint32_t) (*(inbuffer + offset + 3))) << (8 * 3);
 3688              		.loc 3 117 7 is_stmt 1 view .LVU1117
 117:Core/Inc/ros/rosserial_msgs/TopicInfo.h ****       u_buffer_size.base |= ((uint32_t) (*(inbuffer + offset + 3))) << (8 * 3);
 3689              		.loc 3 117 62 is_stmt 0 view .LVU1118
 3690 00e8 0CF10202 		add	r2, ip, #2
 117:Core/Inc/ros/rosserial_msgs/TopicInfo.h ****       u_buffer_size.base |= ((uint32_t) (*(inbuffer + offset + 3))) << (8 * 3);
 3691              		.loc 3 117 42 view .LVU1119
 3692 00ec 8A5C     		ldrb	r2, [r1, r2]	@ zero_extendqisi2
ARM GAS  /tmp/ccaSmKi1.s 			page 108


 117:Core/Inc/ros/rosserial_msgs/TopicInfo.h ****       u_buffer_size.base |= ((uint32_t) (*(inbuffer + offset + 3))) << (8 * 3);
 3693              		.loc 3 117 26 view .LVU1120
 3694 00ee 43EA0243 		orr	r3, r3, r2, lsl #16
 118:Core/Inc/ros/rosserial_msgs/TopicInfo.h ****       this->buffer_size = u_buffer_size.real;
 3695              		.loc 3 118 7 is_stmt 1 view .LVU1121
 118:Core/Inc/ros/rosserial_msgs/TopicInfo.h ****       this->buffer_size = u_buffer_size.real;
 3696              		.loc 3 118 62 is_stmt 0 view .LVU1122
 3697 00f2 0CF10302 		add	r2, ip, #3
 118:Core/Inc/ros/rosserial_msgs/TopicInfo.h ****       this->buffer_size = u_buffer_size.real;
 3698              		.loc 3 118 42 view .LVU1123
 3699 00f6 8A5C     		ldrb	r2, [r1, r2]	@ zero_extendqisi2
 118:Core/Inc/ros/rosserial_msgs/TopicInfo.h ****       this->buffer_size = u_buffer_size.real;
 3700              		.loc 3 118 26 view .LVU1124
 3701 00f8 43EA0263 		orr	r3, r3, r2, lsl #24
 119:Core/Inc/ros/rosserial_msgs/TopicInfo.h ****       offset += sizeof(this->buffer_size);
 3702              		.loc 3 119 7 is_stmt 1 view .LVU1125
 119:Core/Inc/ros/rosserial_msgs/TopicInfo.h ****       offset += sizeof(this->buffer_size);
 3703              		.loc 3 119 25 is_stmt 0 view .LVU1126
 3704 00fc 4361     		str	r3, [r0, #20]
 120:Core/Inc/ros/rosserial_msgs/TopicInfo.h ****      return offset;
 3705              		.loc 3 120 7 is_stmt 1 view .LVU1127
 3706              	.LVL321:
 121:Core/Inc/ros/rosserial_msgs/TopicInfo.h ****     }
 3707              		.loc 3 121 6 view .LVU1128
 122:Core/Inc/ros/rosserial_msgs/TopicInfo.h **** 
 3708              		.loc 3 122 5 is_stmt 0 view .LVU1129
 3709 00fe 0CF10400 		add	r0, ip, #4
 3710              	.LVL322:
 122:Core/Inc/ros/rosserial_msgs/TopicInfo.h **** 
 3711              		.loc 3 122 5 view .LVU1130
 3712 0102 30BD     		pop	{r4, r5, pc}
 3713              		.cfi_endproc
 3714              	.LFE432:
 3716              		.section	.text.HAL_UART_TxCpltCallback,"ax",%progbits
 3717              		.align	1
 3718              		.global	HAL_UART_TxCpltCallback
 3719              		.syntax unified
 3720              		.thumb
 3721              		.thumb_func
 3722              		.fpu fpv4-sp-d16
 3724              	HAL_UART_TxCpltCallback:
 3725              	.LVL323:
 3726              	.LFB547:
  14:Core/Src/operation.cpp **** void HAL_UART_TxCpltCallback(UART_HandleTypeDef *huart){
 3727              		.loc 8 14 56 is_stmt 1 view -0
 3728              		.cfi_startproc
 3729              		@ args = 0, pretend = 0, frame = 0
 3730              		@ frame_needed = 0, uses_anonymous_args = 0
  14:Core/Src/operation.cpp **** void HAL_UART_TxCpltCallback(UART_HandleTypeDef *huart){
 3731              		.loc 8 14 56 is_stmt 0 view .LVU1132
 3732 0000 38B5     		push	{r3, r4, r5, lr}
 3733              	.LCFI21:
 3734              		.cfi_def_cfa_offset 16
 3735              		.cfi_offset 3, -16
 3736              		.cfi_offset 4, -12
 3737              		.cfi_offset 5, -8
 3738              		.cfi_offset 14, -4
ARM GAS  /tmp/ccaSmKi1.s 			page 109


  15:Core/Src/operation.cpp ****   nh.getHardware()->flush();
 3739              		.loc 8 15 3 is_stmt 1 view .LVU1133
 3740              	.LVL324:
 3741              	.LBB411:
 3742              	.LBI411:
  93:Core/Inc/ros/STM32Hardware.h ****       static bool mutex = false;
 3743              		.loc 10 93 10 view .LVU1134
 3744              	.LBB412:
  94:Core/Inc/ros/STM32Hardware.h **** 
 3745              		.loc 10 94 7 view .LVU1135
  96:Core/Inc/ros/STM32Hardware.h ****         mutex = true;
 3746              		.loc 10 96 7 view .LVU1136
 3747              	.LBB413:
  96:Core/Inc/ros/STM32Hardware.h ****         mutex = true;
 3748              		.loc 10 96 11 is_stmt 0 view .LVU1137
 3749 0002 1A4B     		ldr	r3, .L198
 3750 0004 5B68     		ldr	r3, [r3, #4]
  96:Core/Inc/ros/STM32Hardware.h ****         mutex = true;
 3751              		.loc 10 96 18 view .LVU1138
 3752 0006 93F83930 		ldrb	r3, [r3, #57]	@ zero_extendqisi2
 3753 000a DBB2     		uxtb	r3, r3
  96:Core/Inc/ros/STM32Hardware.h ****         mutex = true;
 3754              		.loc 10 96 50 view .LVU1139
 3755 000c 202B     		cmp	r3, #32
 3756 000e 00D0     		beq	.L197
 3757              	.LVL325:
 3758              	.L191:
  96:Core/Inc/ros/STM32Hardware.h ****         mutex = true;
 3759              		.loc 10 96 50 view .LVU1140
 3760              	.LBE413:
 3761              	.LBE412:
 3762              	.LBE411:
  16:Core/Src/operation.cpp **** }
 3763              		.loc 8 16 1 view .LVU1141
 3764 0010 38BD     		pop	{r3, r4, r5, pc}
 3765              	.LVL326:
 3766              	.L197:
 3767              	.LBB424:
 3768              	.LBB422:
 3769              	.LBB420:
  96:Core/Inc/ros/STM32Hardware.h ****         mutex = true;
 3770              		.loc 10 96 53 view .LVU1142
 3771 0012 174B     		ldr	r3, .L198+4
 3772 0014 1B78     		ldrb	r3, [r3]	@ zero_extendqisi2
  96:Core/Inc/ros/STM32Hardware.h ****         mutex = true;
 3773              		.loc 10 96 50 view .LVU1143
 3774 0016 002B     		cmp	r3, #0
 3775 0018 FAD1     		bne	.L191
 3776              	.LBB414:
  97:Core/Inc/ros/STM32Hardware.h **** 
 3777              		.loc 10 97 9 is_stmt 1 view .LVU1144
  97:Core/Inc/ros/STM32Hardware.h **** 
 3778              		.loc 10 97 15 is_stmt 0 view .LVU1145
 3779 001a 154B     		ldr	r3, .L198+4
 3780 001c 0122     		movs	r2, #1
 3781 001e 1A70     		strb	r2, [r3]
  99:Core/Inc/ros/STM32Hardware.h ****           uint16_t len = tfind < twind ? twind - tfind : tbuflen - tfind;
ARM GAS  /tmp/ccaSmKi1.s 			page 110


 3782              		.loc 10 99 9 is_stmt 1 view .LVU1146
 3783              	.LBB415:
  99:Core/Inc/ros/STM32Hardware.h ****           uint16_t len = tfind < twind ? twind - tfind : tbuflen - tfind;
 3784              		.loc 10 99 12 is_stmt 0 view .LVU1147
 3785 0020 124A     		ldr	r2, .L198
 3786 0022 D2F80C44 		ldr	r4, [r2, #1036]
  99:Core/Inc/ros/STM32Hardware.h ****           uint16_t len = tfind < twind ? twind - tfind : tbuflen - tfind;
 3787              		.loc 10 99 21 view .LVU1148
 3788 0026 D2F81014 		ldr	r1, [r2, #1040]
  99:Core/Inc/ros/STM32Hardware.h ****           uint16_t len = tfind < twind ? twind - tfind : tbuflen - tfind;
 3789              		.loc 10 99 9 view .LVU1149
 3790 002a 8C42     		cmp	r4, r1
 3791 002c 14D0     		beq	.L193
 3792              	.LBB416:
 100:Core/Inc/ros/STM32Hardware.h ****           HAL_UART_Transmit_DMA(huart, &(tbuf[tfind]), len);
 3793              		.loc 10 100 11 is_stmt 1 view .LVU1150
 100:Core/Inc/ros/STM32Hardware.h ****           HAL_UART_Transmit_DMA(huart, &(tbuf[tfind]), len);
 3794              		.loc 10 100 20 is_stmt 0 view .LVU1151
 3795 002e 17D9     		bls	.L194
 100:Core/Inc/ros/STM32Hardware.h ****           HAL_UART_Transmit_DMA(huart, &(tbuf[tfind]), len);
 3796              		.loc 10 100 48 view .LVU1152
 3797 0030 A4B2     		uxth	r4, r4
 3798 0032 8BB2     		uxth	r3, r1
 100:Core/Inc/ros/STM32Hardware.h ****           HAL_UART_Transmit_DMA(huart, &(tbuf[tfind]), len);
 3799              		.loc 10 100 20 view .LVU1153
 3800 0034 E41A     		subs	r4, r4, r3
 3801 0036 A4B2     		uxth	r4, r4
 3802              	.L195:
 3803              	.LVL327:
 101:Core/Inc/ros/STM32Hardware.h ****           tfind = (tfind + len) & (tbuflen - 1);
 3804              		.loc 10 101 11 is_stmt 1 view .LVU1154
 101:Core/Inc/ros/STM32Hardware.h ****           tfind = (tfind + len) & (tbuflen - 1);
 3805              		.loc 10 101 32 is_stmt 0 view .LVU1155
 3806 0038 0C4D     		ldr	r5, .L198
 3807 003a 01F50271 		add	r1, r1, #520
 3808 003e 2944     		add	r1, r1, r5
 3809 0040 2246     		mov	r2, r4
 3810 0042 0431     		adds	r1, r1, #4
 3811 0044 6868     		ldr	r0, [r5, #4]
 3812              	.LVL328:
 101:Core/Inc/ros/STM32Hardware.h ****           tfind = (tfind + len) & (tbuflen - 1);
 3813              		.loc 10 101 32 view .LVU1156
 3814 0046 FFF7FEFF 		bl	HAL_UART_Transmit_DMA
 3815              	.LVL329:
 102:Core/Inc/ros/STM32Hardware.h ****         }
 3816              		.loc 10 102 11 is_stmt 1 view .LVU1157
 102:Core/Inc/ros/STM32Hardware.h ****         }
 3817              		.loc 10 102 20 is_stmt 0 view .LVU1158
 3818 004a D5F81034 		ldr	r3, [r5, #1040]
 102:Core/Inc/ros/STM32Hardware.h ****         }
 3819              		.loc 10 102 26 view .LVU1159
 3820 004e 2344     		add	r3, r3, r4
 102:Core/Inc/ros/STM32Hardware.h ****         }
 3821              		.loc 10 102 33 view .LVU1160
 3822 0050 C3F30803 		ubfx	r3, r3, #0, #9
 102:Core/Inc/ros/STM32Hardware.h ****         }
 3823              		.loc 10 102 17 view .LVU1161
ARM GAS  /tmp/ccaSmKi1.s 			page 111


 3824 0054 C5F81034 		str	r3, [r5, #1040]
 3825              	.LVL330:
 3826              	.L193:
 102:Core/Inc/ros/STM32Hardware.h ****         }
 3827              		.loc 10 102 17 view .LVU1162
 3828              	.LBE416:
 3829              	.LBE415:
 104:Core/Inc/ros/STM32Hardware.h ****       }
 3830              		.loc 10 104 9 is_stmt 1 view .LVU1163
 104:Core/Inc/ros/STM32Hardware.h ****       }
 3831              		.loc 10 104 15 is_stmt 0 view .LVU1164
 3832 0058 054B     		ldr	r3, .L198+4
 3833 005a 0022     		movs	r2, #0
 3834 005c 1A70     		strb	r2, [r3]
 3835              	.LVL331:
 104:Core/Inc/ros/STM32Hardware.h ****       }
 3836              		.loc 10 104 15 view .LVU1165
 3837              	.LBE414:
 3838              	.LBE420:
 3839              	.LBE422:
 3840              	.LBE424:
  16:Core/Src/operation.cpp **** }
 3841              		.loc 8 16 1 view .LVU1166
 3842 005e D7E7     		b	.L191
 3843              	.LVL332:
 3844              	.L194:
 3845              	.LBB425:
 3846              	.LBB423:
 3847              	.LBB421:
 3848              	.LBB419:
 3849              	.LBB418:
 3850              	.LBB417:
 100:Core/Inc/ros/STM32Hardware.h ****           HAL_UART_Transmit_DMA(huart, &(tbuf[tfind]), len);
 3851              		.loc 10 100 66 view .LVU1167
 3852 0060 8CB2     		uxth	r4, r1
 100:Core/Inc/ros/STM32Hardware.h ****           HAL_UART_Transmit_DMA(huart, &(tbuf[tfind]), len);
 3853              		.loc 10 100 20 view .LVU1168
 3854 0062 C4F50074 		rsb	r4, r4, #512
 3855 0066 A4B2     		uxth	r4, r4
 3856 0068 E6E7     		b	.L195
 3857              	.L199:
 3858 006a 00BF     		.align	2
 3859              	.L198:
 3860 006c 00000000 		.word	.LANCHOR3
 3861 0070 00000000 		.word	_ZZN13STM32Hardware5flushEvE5mutex
 3862              	.LBE417:
 3863              	.LBE418:
 3864              	.LBE419:
 3865              	.LBE421:
 3866              	.LBE423:
 3867              	.LBE425:
 3868              		.cfi_endproc
 3869              	.LFE547:
 3871              		.section	.text.HAL_UART_RxCpltCallback,"ax",%progbits
 3872              		.align	1
 3873              		.global	HAL_UART_RxCpltCallback
 3874              		.syntax unified
ARM GAS  /tmp/ccaSmKi1.s 			page 112


 3875              		.thumb
 3876              		.thumb_func
 3877              		.fpu fpv4-sp-d16
 3879              	HAL_UART_RxCpltCallback:
 3880              	.LVL333:
 3881              	.LFB548:
  18:Core/Src/operation.cpp **** void HAL_UART_RxCpltCallback(UART_HandleTypeDef *huart){
 3882              		.loc 8 18 56 is_stmt 1 view -0
 3883              		.cfi_startproc
 3884              		@ args = 0, pretend = 0, frame = 0
 3885              		@ frame_needed = 0, uses_anonymous_args = 0
  18:Core/Src/operation.cpp **** void HAL_UART_RxCpltCallback(UART_HandleTypeDef *huart){
 3886              		.loc 8 18 56 is_stmt 0 view .LVU1170
 3887 0000 08B5     		push	{r3, lr}
 3888              	.LCFI22:
 3889              		.cfi_def_cfa_offset 8
 3890              		.cfi_offset 3, -8
 3891              		.cfi_offset 14, -4
  19:Core/Src/operation.cpp ****   nh.getHardware()->reset_rbuf();
 3892              		.loc 8 19 3 is_stmt 1 view .LVU1171
 3893              	.LVL334:
 3894              	.LBB426:
 3895              	.LBI426:
  80:Core/Inc/ros/STM32Hardware.h ****       HAL_UART_Receive_DMA(huart, rbuf, rbuflen);
 3896              		.loc 10 80 10 view .LVU1172
 3897              	.LBB427:
  81:Core/Inc/ros/STM32Hardware.h ****     }
 3898              		.loc 10 81 7 view .LVU1173
  81:Core/Inc/ros/STM32Hardware.h ****     }
 3899              		.loc 10 81 27 is_stmt 0 view .LVU1174
 3900 0002 044B     		ldr	r3, .L202
 3901 0004 4FF40072 		mov	r2, #512
 3902 0008 03F10801 		add	r1, r3, #8
 3903 000c 5868     		ldr	r0, [r3, #4]
 3904              	.LVL335:
  81:Core/Inc/ros/STM32Hardware.h ****     }
 3905              		.loc 10 81 27 view .LVU1175
 3906 000e FFF7FEFF 		bl	HAL_UART_Receive_DMA
 3907              	.LVL336:
  81:Core/Inc/ros/STM32Hardware.h ****     }
 3908              		.loc 10 81 27 view .LVU1176
 3909              	.LBE427:
 3910              	.LBE426:
  20:Core/Src/operation.cpp **** }
 3911              		.loc 8 20 1 view .LVU1177
 3912 0012 08BD     		pop	{r3, pc}
 3913              	.L203:
 3914              		.align	2
 3915              	.L202:
 3916 0014 00000000 		.word	.LANCHOR3
 3917              		.cfi_endproc
 3918              	.LFE548:
 3920              		.section	.text.init,"ax",%progbits
 3921              		.align	1
 3922              		.global	init
 3923              		.syntax unified
 3924              		.thumb
ARM GAS  /tmp/ccaSmKi1.s 			page 113


 3925              		.thumb_func
 3926              		.fpu fpv4-sp-d16
 3928              	init:
 3929              	.LFB556:
  34:Core/Src/operation.cpp **** {
 3930              		.loc 8 34 1 is_stmt 1 view -0
 3931              		.cfi_startproc
 3932              		@ args = 0, pretend = 0, frame = 0
 3933              		@ frame_needed = 0, uses_anonymous_args = 0
 3934 0000 10B5     		push	{r4, lr}
 3935              	.LCFI23:
 3936              		.cfi_def_cfa_offset 8
 3937              		.cfi_offset 4, -8
 3938              		.cfi_offset 14, -4
  36:Core/Src/operation.cpp ****  robo_init();
 3939              		.loc 8 36 2 view .LVU1179
  36:Core/Src/operation.cpp ****  robo_init();
 3940              		.loc 8 36 11 is_stmt 0 view .LVU1180
 3941 0002 FFF7FEFF 		bl	_Z9robo_initv
 3942              	.LVL337:
  37:Core/Src/operation.cpp ****  nh.initNode();
 3943              		.loc 8 37 2 is_stmt 1 view .LVU1181
 3944              	.LBB442:
 3945              	.LBI442:
 134:Core/Inc/ros/ros/node_handle.h ****   {
 3946              		.loc 9 134 8 view .LVU1182
 3947              	.LBB443:
 3948              	.LBB444:
 3949              	.LBI444:
  76:Core/Inc/ros/STM32Hardware.h ****       reset_rbuf();
 3950              		.loc 10 76 10 view .LVU1183
 3951              	.LBE444:
 3952              	.LBE443:
 3953              	.LBE442:
  77:Core/Inc/ros/STM32Hardware.h ****     }
 3954              		.loc 10 77 7 view .LVU1184
 3955              	.LBB449:
 3956              	.LBB448:
 3957              	.LBB447:
 3958              	.LBB445:
 3959              	.LBI445:
  80:Core/Inc/ros/STM32Hardware.h ****       HAL_UART_Receive_DMA(huart, rbuf, rbuflen);
 3960              		.loc 10 80 10 view .LVU1185
 3961              	.LBB446:
  81:Core/Inc/ros/STM32Hardware.h ****     }
 3962              		.loc 10 81 7 view .LVU1186
  81:Core/Inc/ros/STM32Hardware.h ****     }
 3963              		.loc 10 81 27 is_stmt 0 view .LVU1187
 3964 0006 274C     		ldr	r4, .L218
 3965 0008 4FF40072 		mov	r2, #512
 3966 000c 04F10801 		add	r1, r4, #8
 3967 0010 6068     		ldr	r0, [r4, #4]
 3968 0012 FFF7FEFF 		bl	HAL_UART_Receive_DMA
 3969              	.LVL338:
  81:Core/Inc/ros/STM32Hardware.h ****     }
 3970              		.loc 10 81 27 view .LVU1188
 3971              	.LBE446:
ARM GAS  /tmp/ccaSmKi1.s 			page 114


 3972              	.LBE445:
 3973              	.LBE447:
 137:Core/Inc/ros/ros/node_handle.h ****     bytes_ = 0;
 3974              		.loc 9 137 11 view .LVU1189
 3975 0016 0023     		movs	r3, #0
 3976 0018 C4F8EC38 		str	r3, [r4, #2284]
 138:Core/Inc/ros/ros/node_handle.h ****     index_ = 0;
 3977              		.loc 9 138 12 view .LVU1190
 3978 001c C4F8F038 		str	r3, [r4, #2288]
 139:Core/Inc/ros/ros/node_handle.h ****     topic_ = 0;
 3979              		.loc 9 139 12 view .LVU1191
 3980 0020 C4F8F838 		str	r3, [r4, #2296]
 140:Core/Inc/ros/ros/node_handle.h ****   };
 3981              		.loc 9 140 12 view .LVU1192
 3982 0024 C4F8F438 		str	r3, [r4, #2292]
 3983              	.LVL339:
 3984              	.L207:
 140:Core/Inc/ros/ros/node_handle.h ****   };
 3985              		.loc 9 140 12 view .LVU1193
 3986              	.LBE448:
 3987              	.LBE449:
 3988              	.LBB450:
 3989              	.LBB451:
 392:Core/Inc/ros/ros/node_handle.h ****     {
 3990              		.loc 9 392 23 is_stmt 1 view .LVU1194
 3991 0028 182B     		cmp	r3, #24
 3992 002a 12DC     		bgt	.L205
 394:Core/Inc/ros/ros/node_handle.h ****       {
 3993              		.loc 9 394 21 is_stmt 0 view .LVU1195
 3994 002c 03F50272 		add	r2, r3, #520
 3995 0030 1C49     		ldr	r1, .L218
 3996 0032 01EB8202 		add	r2, r1, r2, lsl #2
 3997 0036 5268     		ldr	r2, [r2, #4]
 394:Core/Inc/ros/ros/node_handle.h ****       {
 3998              		.loc 9 394 7 view .LVU1196
 3999 0038 0AB1     		cbz	r2, .L215
 392:Core/Inc/ros/ros/node_handle.h ****     {
 4000              		.loc 9 392 5 is_stmt 1 view .LVU1197
 4001 003a 0133     		adds	r3, r3, #1
 4002              	.LVL340:
 392:Core/Inc/ros/ros/node_handle.h ****     {
 4003              		.loc 9 392 5 is_stmt 0 view .LVU1198
 4004 003c F4E7     		b	.L207
 4005              	.L215:
 396:Core/Inc/ros/ros/node_handle.h ****         p.id_ = i + 100 + MAX_SUBSCRIBERS;
 4006              		.loc 9 396 23 view .LVU1199
 4007 003e 0846     		mov	r0, r1
 4008 0040 03F50271 		add	r1, r3, #520
 4009 0044 00EB8101 		add	r1, r0, r1, lsl #2
 4010 0048 174A     		ldr	r2, .L218+4
 4011 004a 4A60     		str	r2, [r1, #4]
 397:Core/Inc/ros/ros/node_handle.h ****         p.nh_ = this;
 4012              		.loc 9 397 25 view .LVU1200
 4013 004c 7D33     		adds	r3, r3, #125
 4014              	.LVL341:
 397:Core/Inc/ros/ros/node_handle.h ****         p.nh_ = this;
 4015              		.loc 9 397 15 view .LVU1201
ARM GAS  /tmp/ccaSmKi1.s 			page 115


 4016 004e 9360     		str	r3, [r2, #8]
 398:Core/Inc/ros/ros/node_handle.h ****         return true;
 4017              		.loc 9 398 15 view .LVU1202
 4018 0050 D060     		str	r0, [r2, #12]
 4019              	.LVL342:
 4020              	.L205:
 398:Core/Inc/ros/ros/node_handle.h ****         return true;
 4021              		.loc 9 398 15 view .LVU1203
 4022              	.LBE451:
 4023              	.LBE450:
 4024              	.LBB452:
 4025              	.LBB453:
 392:Core/Inc/ros/ros/node_handle.h ****     {
 4026              		.loc 9 392 14 view .LVU1204
 4027 0052 0023     		movs	r3, #0
 4028              	.L210:
 4029              	.LVL343:
 392:Core/Inc/ros/ros/node_handle.h ****     {
 4030              		.loc 9 392 23 is_stmt 1 view .LVU1205
 4031 0054 182B     		cmp	r3, #24
 4032 0056 12DC     		bgt	.L208
 394:Core/Inc/ros/ros/node_handle.h ****       {
 4033              		.loc 9 394 21 is_stmt 0 view .LVU1206
 4034 0058 03F50272 		add	r2, r3, #520
 4035 005c 1149     		ldr	r1, .L218
 4036 005e 01EB8202 		add	r2, r1, r2, lsl #2
 4037 0062 5268     		ldr	r2, [r2, #4]
 394:Core/Inc/ros/ros/node_handle.h ****       {
 4038              		.loc 9 394 7 view .LVU1207
 4039 0064 0AB1     		cbz	r2, .L216
 392:Core/Inc/ros/ros/node_handle.h ****     {
 4040              		.loc 9 392 5 is_stmt 1 view .LVU1208
 4041 0066 0133     		adds	r3, r3, #1
 4042              	.LVL344:
 392:Core/Inc/ros/ros/node_handle.h ****     {
 4043              		.loc 9 392 5 is_stmt 0 view .LVU1209
 4044 0068 F4E7     		b	.L210
 4045              	.L216:
 396:Core/Inc/ros/ros/node_handle.h ****         p.id_ = i + 100 + MAX_SUBSCRIBERS;
 4046              		.loc 9 396 23 view .LVU1210
 4047 006a 0846     		mov	r0, r1
 4048 006c 03F50271 		add	r1, r3, #520
 4049 0070 00EB8101 		add	r1, r0, r1, lsl #2
 4050 0074 0D4A     		ldr	r2, .L218+8
 4051 0076 4A60     		str	r2, [r1, #4]
 397:Core/Inc/ros/ros/node_handle.h ****         p.nh_ = this;
 4052              		.loc 9 397 25 view .LVU1211
 4053 0078 7D33     		adds	r3, r3, #125
 4054              	.LVL345:
 397:Core/Inc/ros/ros/node_handle.h ****         p.nh_ = this;
 4055              		.loc 9 397 15 view .LVU1212
 4056 007a 9360     		str	r3, [r2, #8]
 398:Core/Inc/ros/ros/node_handle.h ****         return true;
 4057              		.loc 9 398 15 view .LVU1213
 4058 007c D060     		str	r0, [r2, #12]
 4059              	.LVL346:
 4060              	.L208:
ARM GAS  /tmp/ccaSmKi1.s 			page 116


 398:Core/Inc/ros/ros/node_handle.h ****         return true;
 4061              		.loc 9 398 15 view .LVU1214
 4062              	.LBE453:
 4063              	.LBE452:
 4064              	.LBB454:
 4065              	.LBB455:
 408:Core/Inc/ros/ros/node_handle.h ****     {
 4066              		.loc 9 408 14 view .LVU1215
 4067 007e 0023     		movs	r3, #0
 4068              	.L213:
 4069              	.LVL347:
 408:Core/Inc/ros/ros/node_handle.h ****     {
 4070              		.loc 9 408 23 is_stmt 1 view .LVU1216
 4071 0080 182B     		cmp	r3, #24
 4072 0082 0EDC     		bgt	.L204
 410:Core/Inc/ros/ros/node_handle.h ****       {
 4073              		.loc 9 410 22 is_stmt 0 view .LVU1217
 4074 0084 03F22222 		addw	r2, r3, #546
 4075 0088 0649     		ldr	r1, .L218
 4076 008a 51F82220 		ldr	r2, [r1, r2, lsl #2]
 410:Core/Inc/ros/ros/node_handle.h ****       {
 4077              		.loc 9 410 7 view .LVU1218
 4078 008e 0AB1     		cbz	r2, .L217
 408:Core/Inc/ros/ros/node_handle.h ****     {
 4079              		.loc 9 408 5 is_stmt 1 view .LVU1219
 4080 0090 0133     		adds	r3, r3, #1
 4081              	.LVL348:
 408:Core/Inc/ros/ros/node_handle.h ****     {
 4082              		.loc 9 408 5 is_stmt 0 view .LVU1220
 4083 0092 F5E7     		b	.L213
 4084              	.L217:
 412:Core/Inc/ros/ros/node_handle.h ****         s.id_ = i + 100;
 4085              		.loc 9 412 24 view .LVU1221
 4086 0094 03F22220 		addw	r0, r3, #546
 4087 0098 054A     		ldr	r2, .L218+12
 4088 009a 41F82020 		str	r2, [r1, r0, lsl #2]
 413:Core/Inc/ros/ros/node_handle.h ****         return true;
 4089              		.loc 9 413 19 view .LVU1222
 4090 009e 6433     		adds	r3, r3, #100
 4091              	.LVL349:
 413:Core/Inc/ros/ros/node_handle.h ****         return true;
 4092              		.loc 9 413 15 view .LVU1223
 4093 00a0 5360     		str	r3, [r2, #4]
 4094              	.LVL350:
 4095              	.L204:
 413:Core/Inc/ros/ros/node_handle.h ****         return true;
 4096              		.loc 9 413 15 view .LVU1224
 4097              	.LBE455:
 4098              	.LBE454:
  41:Core/Src/operation.cpp **** }
 4099              		.loc 8 41 1 view .LVU1225
 4100 00a2 10BD     		pop	{r4, pc}
 4101              	.L219:
 4102              		.align	2
 4103              	.L218:
 4104 00a4 00000000 		.word	.LANCHOR3
 4105 00a8 00000000 		.word	.LANCHOR4
ARM GAS  /tmp/ccaSmKi1.s 			page 117


 4106 00ac 00000000 		.word	.LANCHOR5
 4107 00b0 00000000 		.word	.LANCHOR6
 4108              		.cfi_endproc
 4109              	.LFE556:
 4111              		.section	.text._ZN3ros11NodeHandle_I13STM32HardwareLi25ELi25ELi512ELi512EE15negotiateTopicsEv,"axG
 4112              		.align	1
 4113              		.weak	_ZN3ros11NodeHandle_I13STM32HardwareLi25ELi25ELi512ELi512EE15negotiateTopicsEv
 4114              		.syntax unified
 4115              		.thumb
 4116              		.thumb_func
 4117              		.fpu fpv4-sp-d16
 4119              	_ZN3ros11NodeHandle_I13STM32HardwareLi25ELi25ELi512ELi512EE15negotiateTopicsEv:
 4120              	.LVL351:
 4121              	.LFB572:
 438:Core/Inc/ros/ros/node_handle.h ****   {
 4122              		.loc 9 438 8 is_stmt 1 view -0
 4123              		.cfi_startproc
 4124              		@ args = 0, pretend = 0, frame = 24
 4125              		@ frame_needed = 0, uses_anonymous_args = 0
 438:Core/Inc/ros/ros/node_handle.h ****   {
 4126              		.loc 9 438 8 is_stmt 0 view .LVU1227
 4127 0000 F0B5     		push	{r4, r5, r6, r7, lr}
 4128              	.LCFI24:
 4129              		.cfi_def_cfa_offset 20
 4130              		.cfi_offset 4, -20
 4131              		.cfi_offset 5, -16
 4132              		.cfi_offset 6, -12
 4133              		.cfi_offset 7, -8
 4134              		.cfi_offset 14, -4
 4135 0002 87B0     		sub	sp, sp, #28
 4136              	.LCFI25:
 4137              		.cfi_def_cfa_offset 48
 4138 0004 0446     		mov	r4, r0
 4139              	.LVL352:
 4140              	.LBB456:
 4141              	.LBI456:
  34:Core/Inc/ros/rosserial_msgs/TopicInfo.h ****       topic_id(0),
 4142              		.loc 3 34 5 is_stmt 1 view .LVU1228
 4143              	.LBB457:
 4144              	.LBB458:
 4145              	.LBB459:
 4146              	.LBI459:
  46:Core/Inc/ros/ros/msg.h **** {
 4147              		.loc 11 46 7 view .LVU1229
 4148              	.LBB460:
 4149 0006 334B     		ldr	r3, .L228
 4150 0008 0093     		str	r3, [sp]
 4151              	.LVL353:
  46:Core/Inc/ros/ros/msg.h **** {
 4152              		.loc 11 46 7 is_stmt 0 view .LVU1230
 4153              	.LBE460:
 4154              	.LBE459:
  39:Core/Inc/ros/rosserial_msgs/TopicInfo.h ****     {
 4155              		.loc 3 39 20 view .LVU1231
 4156 000a 334B     		ldr	r3, .L228+4
 4157 000c 0093     		str	r3, [sp]
 4158 000e 0025     		movs	r5, #0
ARM GAS  /tmp/ccaSmKi1.s 			page 118


 4159 0010 ADF80450 		strh	r5, [sp, #4]	@ movhi
 4160 0014 314B     		ldr	r3, .L228+8
 4161 0016 0293     		str	r3, [sp, #8]
 4162 0018 0393     		str	r3, [sp, #12]
 4163 001a 0493     		str	r3, [sp, #16]
 4164 001c 0595     		str	r5, [sp, #20]
 4165              	.LVL354:
  39:Core/Inc/ros/rosserial_msgs/TopicInfo.h ****     {
 4166              		.loc 3 39 20 view .LVU1232
 4167 001e 00E0     		b	.L223
 4168              	.LVL355:
 4169              	.L222:
  39:Core/Inc/ros/rosserial_msgs/TopicInfo.h ****     {
 4170              		.loc 3 39 20 view .LVU1233
 4171              	.LBE458:
 4172              	.LBE457:
 4173              	.LBE456:
 442:Core/Inc/ros/ros/node_handle.h ****     {
 4174              		.loc 9 442 5 is_stmt 1 discriminator 2 view .LVU1234
 4175 0020 0135     		adds	r5, r5, #1
 4176              	.LVL356:
 4177              	.L223:
 442:Core/Inc/ros/ros/node_handle.h ****     {
 4178              		.loc 9 442 19 discriminator 1 view .LVU1235
 4179 0022 182D     		cmp	r5, #24
 4180 0024 25DC     		bgt	.L226
 444:Core/Inc/ros/ros/node_handle.h ****       {
 4181              		.loc 9 444 21 is_stmt 0 view .LVU1236
 4182 0026 05F50273 		add	r3, r5, #520
 4183 002a 04EB8303 		add	r3, r4, r3, lsl #2
 4184 002e 5B68     		ldr	r3, [r3, #4]
 444:Core/Inc/ros/ros/node_handle.h ****       {
 4185              		.loc 9 444 7 view .LVU1237
 4186 0030 002B     		cmp	r3, #0
 4187 0032 F5D0     		beq	.L222
 446:Core/Inc/ros/ros/node_handle.h ****         ti.topic_name = (char *) publishers[i]->topic_;
 4188              		.loc 9 446 38 view .LVU1238
 4189 0034 9A68     		ldr	r2, [r3, #8]
 446:Core/Inc/ros/ros/node_handle.h ****         ti.topic_name = (char *) publishers[i]->topic_;
 4190              		.loc 9 446 21 view .LVU1239
 4191 0036 ADF80420 		strh	r2, [sp, #4]	@ movhi
 447:Core/Inc/ros/ros/node_handle.h ****         ti.message_type = (char *) publishers[i]->msg_->getType();
 4192              		.loc 9 447 49 view .LVU1240
 4193 003a 1A68     		ldr	r2, [r3]
 447:Core/Inc/ros/ros/node_handle.h ****         ti.message_type = (char *) publishers[i]->msg_->getType();
 4194              		.loc 9 447 23 view .LVU1241
 4195 003c 0292     		str	r2, [sp, #8]
 448:Core/Inc/ros/ros/node_handle.h ****         ti.md5sum = (char *) publishers[i]->msg_->getMD5();
 4196              		.loc 9 448 51 view .LVU1242
 4197 003e 5868     		ldr	r0, [r3, #4]
 448:Core/Inc/ros/ros/node_handle.h ****         ti.md5sum = (char *) publishers[i]->msg_->getMD5();
 4198              		.loc 9 448 64 view .LVU1243
 4199 0040 0368     		ldr	r3, [r0]
 4200 0042 9B68     		ldr	r3, [r3, #8]
 4201 0044 9847     		blx	r3
 4202              	.LVL357:
 448:Core/Inc/ros/ros/node_handle.h ****         ti.md5sum = (char *) publishers[i]->msg_->getMD5();
ARM GAS  /tmp/ccaSmKi1.s 			page 119


 4203              		.loc 9 448 25 view .LVU1244
 4204 0046 0390     		str	r0, [sp, #12]
 449:Core/Inc/ros/ros/node_handle.h ****         ti.buffer_size = OUTPUT_SIZE;
 4205              		.loc 9 449 40 view .LVU1245
 4206 0048 05F50276 		add	r6, r5, #520
 4207 004c 04EB8606 		add	r6, r4, r6, lsl #2
 4208 0050 7368     		ldr	r3, [r6, #4]
 449:Core/Inc/ros/ros/node_handle.h ****         ti.buffer_size = OUTPUT_SIZE;
 4209              		.loc 9 449 45 view .LVU1246
 4210 0052 5868     		ldr	r0, [r3, #4]
 449:Core/Inc/ros/ros/node_handle.h ****         ti.buffer_size = OUTPUT_SIZE;
 4211              		.loc 9 449 57 view .LVU1247
 4212 0054 0368     		ldr	r3, [r0]
 4213 0056 DB68     		ldr	r3, [r3, #12]
 4214 0058 9847     		blx	r3
 4215              	.LVL358:
 449:Core/Inc/ros/ros/node_handle.h ****         ti.buffer_size = OUTPUT_SIZE;
 4216              		.loc 9 449 19 view .LVU1248
 4217 005a 0490     		str	r0, [sp, #16]
 450:Core/Inc/ros/ros/node_handle.h ****         publish(publishers[i]->getEndpointType(), &ti);
 4218              		.loc 9 450 24 view .LVU1249
 4219 005c 4FF40073 		mov	r3, #512
 4220 0060 0593     		str	r3, [sp, #20]
 451:Core/Inc/ros/ros/node_handle.h ****       }
 4221              		.loc 9 451 27 view .LVU1250
 4222 0062 7168     		ldr	r1, [r6, #4]
 4223              	.LVL359:
 4224              	.LBB461:
 4225              	.LBI461:
  52:Core/Inc/ros/ros/publisher.h **** 
  53:Core/Inc/ros/ros/publisher.h ****   int publish(const Msg * msg)
  54:Core/Inc/ros/ros/publisher.h ****   {
  55:Core/Inc/ros/ros/publisher.h ****     return nh_->publish(id_, msg);
  56:Core/Inc/ros/ros/publisher.h ****   };
  57:Core/Inc/ros/ros/publisher.h ****   int getEndpointType()
 4226              		.loc 12 57 7 is_stmt 1 view .LVU1251
 4227              	.LBB462:
  58:Core/Inc/ros/ros/publisher.h ****   {
  59:Core/Inc/ros/ros/publisher.h ****     return endpoint_;
 4228              		.loc 12 59 5 view .LVU1252
 4229              		.loc 12 59 5 is_stmt 0 view .LVU1253
 4230              	.LBE462:
 4231              	.LBE461:
 451:Core/Inc/ros/ros/node_handle.h ****       }
 4232              		.loc 9 451 16 view .LVU1254
 4233 0064 2368     		ldr	r3, [r4]
 4234 0066 1B68     		ldr	r3, [r3]
 4235 0068 6A46     		mov	r2, sp
 4236 006a 0969     		ldr	r1, [r1, #16]
 4237 006c 2046     		mov	r0, r4
 4238 006e 9847     		blx	r3
 4239              	.LVL360:
 4240 0070 D6E7     		b	.L222
 4241              	.L226:
 454:Core/Inc/ros/ros/node_handle.h ****     {
 4242              		.loc 9 454 12 view .LVU1255
 4243 0072 0025     		movs	r5, #0
ARM GAS  /tmp/ccaSmKi1.s 			page 120


 4244              	.LVL361:
 454:Core/Inc/ros/ros/node_handle.h ****     {
 4245              		.loc 9 454 12 view .LVU1256
 4246 0074 00E0     		b	.L221
 4247              	.LVL362:
 4248              	.L225:
 454:Core/Inc/ros/ros/node_handle.h ****     {
 4249              		.loc 9 454 5 is_stmt 1 discriminator 2 view .LVU1257
 4250 0076 0135     		adds	r5, r5, #1
 4251              	.LVL363:
 4252              	.L221:
 454:Core/Inc/ros/ros/node_handle.h ****     {
 4253              		.loc 9 454 19 discriminator 1 view .LVU1258
 4254 0078 182D     		cmp	r5, #24
 4255 007a 25DC     		bgt	.L224
 456:Core/Inc/ros/ros/node_handle.h ****       {
 4256              		.loc 9 456 22 is_stmt 0 view .LVU1259
 4257 007c 05F22223 		addw	r3, r5, #546
 4258 0080 54F82300 		ldr	r0, [r4, r3, lsl #2]
 456:Core/Inc/ros/ros/node_handle.h ****       {
 4259              		.loc 9 456 7 view .LVU1260
 4260 0084 0028     		cmp	r0, #0
 4261 0086 F6D0     		beq	.L225
 458:Core/Inc/ros/ros/node_handle.h ****         ti.topic_name = (char *) subscribers[i]->topic_;
 4262              		.loc 9 458 39 view .LVU1261
 4263 0088 4368     		ldr	r3, [r0, #4]
 458:Core/Inc/ros/ros/node_handle.h ****         ti.topic_name = (char *) subscribers[i]->topic_;
 4264              		.loc 9 458 21 view .LVU1262
 4265 008a ADF80430 		strh	r3, [sp, #4]	@ movhi
 459:Core/Inc/ros/ros/node_handle.h ****         ti.message_type = (char *) subscribers[i]->getMsgType();
 4266              		.loc 9 459 50 view .LVU1263
 4267 008e 8368     		ldr	r3, [r0, #8]
 459:Core/Inc/ros/ros/node_handle.h ****         ti.message_type = (char *) subscribers[i]->getMsgType();
 4268              		.loc 9 459 23 view .LVU1264
 4269 0090 0293     		str	r3, [sp, #8]
 460:Core/Inc/ros/ros/node_handle.h ****         ti.md5sum = (char *) subscribers[i]->getMsgMD5();
 4270              		.loc 9 460 62 view .LVU1265
 4271 0092 0368     		ldr	r3, [r0]
 4272 0094 9B68     		ldr	r3, [r3, #8]
 4273 0096 9847     		blx	r3
 4274              	.LVL364:
 460:Core/Inc/ros/ros/node_handle.h ****         ti.md5sum = (char *) subscribers[i]->getMsgMD5();
 4275              		.loc 9 460 25 view .LVU1266
 4276 0098 0390     		str	r0, [sp, #12]
 461:Core/Inc/ros/ros/node_handle.h ****         ti.buffer_size = INPUT_SIZE;
 4277              		.loc 9 461 41 view .LVU1267
 4278 009a 05F22226 		addw	r6, r5, #546
 4279 009e 54F82600 		ldr	r0, [r4, r6, lsl #2]
 461:Core/Inc/ros/ros/node_handle.h ****         ti.buffer_size = INPUT_SIZE;
 4280              		.loc 9 461 55 view .LVU1268
 4281 00a2 0368     		ldr	r3, [r0]
 4282 00a4 DB68     		ldr	r3, [r3, #12]
 4283 00a6 9847     		blx	r3
 4284              	.LVL365:
 461:Core/Inc/ros/ros/node_handle.h ****         ti.buffer_size = INPUT_SIZE;
 4285              		.loc 9 461 19 view .LVU1269
 4286 00a8 0490     		str	r0, [sp, #16]
ARM GAS  /tmp/ccaSmKi1.s 			page 121


 462:Core/Inc/ros/ros/node_handle.h ****         publish(subscribers[i]->getEndpointType(), &ti);
 4287              		.loc 9 462 24 view .LVU1270
 4288 00aa 4FF40073 		mov	r3, #512
 4289 00ae 0593     		str	r3, [sp, #20]
 463:Core/Inc/ros/ros/node_handle.h ****       }
 4290              		.loc 9 463 16 view .LVU1271
 4291 00b0 2368     		ldr	r3, [r4]
 4292 00b2 1F68     		ldr	r7, [r3]
 463:Core/Inc/ros/ros/node_handle.h ****       }
 4293              		.loc 9 463 28 view .LVU1272
 4294 00b4 54F82600 		ldr	r0, [r4, r6, lsl #2]
 463:Core/Inc/ros/ros/node_handle.h ****       }
 4295              		.loc 9 463 48 view .LVU1273
 4296 00b8 0368     		ldr	r3, [r0]
 4297 00ba 5B68     		ldr	r3, [r3, #4]
 463:Core/Inc/ros/ros/node_handle.h ****       }
 4298              		.loc 9 463 16 view .LVU1274
 4299 00bc 9847     		blx	r3
 4300              	.LVL366:
 4301 00be 0146     		mov	r1, r0
 4302 00c0 6A46     		mov	r2, sp
 4303 00c2 2046     		mov	r0, r4
 4304 00c4 B847     		blx	r7
 4305              	.LVL367:
 4306 00c6 D6E7     		b	.L225
 4307              	.L224:
 466:Core/Inc/ros/ros/node_handle.h ****   }
 4308              		.loc 9 466 17 view .LVU1275
 4309 00c8 0123     		movs	r3, #1
 4310 00ca 84F80039 		strb	r3, [r4, #2304]
 467:Core/Inc/ros/ros/node_handle.h **** 
 4311              		.loc 9 467 3 view .LVU1276
 4312 00ce 07B0     		add	sp, sp, #28
 4313              	.LCFI26:
 4314              		.cfi_def_cfa_offset 20
 4315              		@ sp needed
 4316 00d0 F0BD     		pop	{r4, r5, r6, r7, pc}
 4317              	.LVL368:
 4318              	.L229:
 467:Core/Inc/ros/ros/node_handle.h **** 
 4319              		.loc 9 467 3 view .LVU1277
 4320 00d2 00BF     		.align	2
 4321              	.L228:
 4322 00d4 08000000 		.word	_ZTVN3ros3MsgE+8
 4323 00d8 08000000 		.word	_ZTVN14rosserial_msgs9TopicInfoE+8
 4324 00dc 00000000 		.word	.LC16
 4325              		.cfi_endproc
 4326              	.LFE572:
 4328              		.section	.text._ZN3ros11NodeHandle_I13STM32HardwareLi25ELi25ELi512ELi512EE8spinOnceEv,"axG",%progb
 4329              		.align	1
 4330              		.weak	_ZN3ros11NodeHandle_I13STM32HardwareLi25ELi25ELi512ELi512EE8spinOnceEv
 4331              		.syntax unified
 4332              		.thumb
 4333              		.thumb_func
 4334              		.fpu fpv4-sp-d16
 4336              	_ZN3ros11NodeHandle_I13STM32HardwareLi25ELi25ELi512ELi512EE8spinOnceEv:
 4337              	.LVL369:
ARM GAS  /tmp/ccaSmKi1.s 			page 122


 4338              	.LFB570:
 187:Core/Inc/ros/ros/node_handle.h ****   {
 4339              		.loc 9 187 15 is_stmt 1 view -0
 4340              		.cfi_startproc
 4341              		@ args = 0, pretend = 0, frame = 16
 4342              		@ frame_needed = 0, uses_anonymous_args = 0
 187:Core/Inc/ros/ros/node_handle.h ****   {
 4343              		.loc 9 187 15 is_stmt 0 view .LVU1279
 4344 0000 2DE9F043 		push	{r4, r5, r6, r7, r8, r9, lr}
 4345              	.LCFI27:
 4346              		.cfi_def_cfa_offset 28
 4347              		.cfi_offset 4, -28
 4348              		.cfi_offset 5, -24
 4349              		.cfi_offset 6, -20
 4350              		.cfi_offset 7, -16
 4351              		.cfi_offset 8, -12
 4352              		.cfi_offset 9, -8
 4353              		.cfi_offset 14, -4
 4354 0004 85B0     		sub	sp, sp, #20
 4355              	.LCFI28:
 4356              		.cfi_def_cfa_offset 48
 4357 0006 0446     		mov	r4, r0
 190:Core/Inc/ros/ros/node_handle.h ****     if ((c_time - last_sync_receive_time) > (SYNC_SECONDS * 2200))
 4358              		.loc 9 190 37 view .LVU1280
 4359 0008 051D     		adds	r5, r0, #4
 4360              	.LVL370:
 4361              	.LBB530:
 4362              	.LBI530:
 121:Core/Inc/ros/STM32Hardware.h ****     }
 122:Core/Inc/ros/STM32Hardware.h **** 
 123:Core/Inc/ros/STM32Hardware.h ****     unsigned long time(){ return HAL_GetTick();; }
 4363              		.loc 10 123 19 is_stmt 1 view .LVU1281
 4364              	.LBB531:
 4365              		.loc 10 123 27 view .LVU1282
 4366              		.loc 10 123 45 is_stmt 0 view .LVU1283
 4367 000a FFF7FEFF 		bl	HAL_GetTick
 4368              	.LVL371:
 4369              		.loc 10 123 45 view .LVU1284
 4370 000e 0646     		mov	r6, r0
 4371              		.loc 10 123 48 is_stmt 1 view .LVU1285
 4372              	.LVL372:
 4373              		.loc 10 123 48 is_stmt 0 view .LVU1286
 4374              	.LBE531:
 4375              	.LBE530:
 191:Core/Inc/ros/ros/node_handle.h ****     {
 4376              		.loc 9 191 19 view .LVU1287
 4377 0010 D4F80839 		ldr	r3, [r4, #2312]
 191:Core/Inc/ros/ros/node_handle.h ****     {
 4378              		.loc 9 191 17 view .LVU1288
 4379 0014 C31A     		subs	r3, r0, r3
 191:Core/Inc/ros/ros/node_handle.h ****     {
 4380              		.loc 9 191 5 view .LVU1289
 4381 0016 42F6F822 		movw	r2, #11000
 4382 001a 9342     		cmp	r3, r2
 4383 001c 02D9     		bls	.L231
 193:Core/Inc/ros/ros/node_handle.h ****     }
 4384              		.loc 9 193 19 view .LVU1290
ARM GAS  /tmp/ccaSmKi1.s 			page 123


 4385 001e 0023     		movs	r3, #0
 4386 0020 84F80039 		strb	r3, [r4, #2304]
 4387              	.L231:
 197:Core/Inc/ros/ros/node_handle.h ****     {
 4388              		.loc 9 197 9 view .LVU1291
 4389 0024 D4F8EC38 		ldr	r3, [r4, #2284]
 197:Core/Inc/ros/ros/node_handle.h ****     {
 4390              		.loc 9 197 5 view .LVU1292
 4391 0028 DBB1     		cbz	r3, .L233
 199:Core/Inc/ros/ros/node_handle.h ****       {
 4392              		.loc 9 199 20 view .LVU1293
 4393 002a D4F80C39 		ldr	r3, [r4, #2316]
 199:Core/Inc/ros/ros/node_handle.h ****       {
 4394              		.loc 9 199 7 view .LVU1294
 4395 002e B342     		cmp	r3, r6
 4396 0030 17D2     		bcs	.L233
 201:Core/Inc/ros/ros/node_handle.h ****       }
 4397              		.loc 9 201 15 view .LVU1295
 4398 0032 0023     		movs	r3, #0
 4399 0034 C4F8EC38 		str	r3, [r4, #2284]
 4400 0038 13E0     		b	.L233
 4401              	.LVL373:
 4402              	.L255:
 4403              	.LBB532:
 4404              	.LBB533:
 4405              	.LBB534:
  85:Core/Inc/ros/STM32Hardware.h ****       if(rind != getRdmaInd()){
 4406              		.loc 10 85 11 view .LVU1296
 4407 003a 4FF0FF31 		mov	r1, #-1
 4408 003e 2FE0     		b	.L236
 4409              	.LVL374:
 4410              	.L259:
  85:Core/Inc/ros/STM32Hardware.h ****       if(rind != getRdmaInd()){
 4411              		.loc 10 85 11 view .LVU1297
 4412              	.LBE534:
 4413              	.LBE533:
 227:Core/Inc/ros/ros/node_handle.h ****         bytes_--;
 4414              		.loc 9 227 20 view .LVU1298
 4415 0040 D4F8F838 		ldr	r3, [r4, #2296]
 227:Core/Inc/ros/ros/node_handle.h ****         bytes_--;
 4416              		.loc 9 227 19 view .LVU1299
 4417 0044 5A1C     		adds	r2, r3, #1
 4418 0046 C4F8F828 		str	r2, [r4, #2296]
 227:Core/Inc/ros/ros/node_handle.h ****         bytes_--;
 4419              		.loc 9 227 30 view .LVU1300
 4420 004a 2344     		add	r3, r3, r4
 4421 004c 83F82414 		strb	r1, [r3, #1060]
 228:Core/Inc/ros/ros/node_handle.h ****         if (bytes_ == 0)                 /* is message complete? if so, checksum */
 4422              		.loc 9 228 9 view .LVU1301
 4423 0050 D4F8F038 		ldr	r3, [r4, #2288]
 4424 0054 013B     		subs	r3, r3, #1
 4425 0056 C4F8F038 		str	r3, [r4, #2288]
 229:Core/Inc/ros/ros/node_handle.h ****           mode_ = MODE_MSG_CHECKSUM;
 4426              		.loc 9 229 9 view .LVU1302
 4427 005a 13B9     		cbnz	r3, .L233
 230:Core/Inc/ros/ros/node_handle.h ****       }
 4428              		.loc 9 230 17 view .LVU1303
ARM GAS  /tmp/ccaSmKi1.s 			page 124


 4429 005c 0823     		movs	r3, #8
 4430 005e C4F8EC38 		str	r3, [r4, #2284]
 4431              	.LVL375:
 4432              	.L233:
 209:Core/Inc/ros/ros/node_handle.h ****       {
 4433              		.loc 9 209 11 view .LVU1304
 4434 0062 D4F82034 		ldr	r3, [r4, #1056]
 209:Core/Inc/ros/ros/node_handle.h ****       {
 4435              		.loc 9 209 7 view .LVU1305
 4436 0066 3BB1     		cbz	r3, .L234
 4437              	.LVL376:
 4438              	.LBB538:
 4439              	.LBI538:
 4440              		.loc 10 123 19 is_stmt 1 view .LVU1306
 4441              	.LBB539:
 4442              		.loc 10 123 27 view .LVU1307
 4443              		.loc 10 123 45 is_stmt 0 view .LVU1308
 4444 0068 FFF7FEFF 		bl	HAL_GetTick
 4445              	.LVL377:
 4446              		.loc 10 123 48 is_stmt 1 view .LVU1309
 4447              		.loc 10 123 48 is_stmt 0 view .LVU1310
 4448              	.LBE539:
 4449              	.LBE538:
 215:Core/Inc/ros/ros/node_handle.h ****         {
 4450              		.loc 9 215 31 view .LVU1311
 4451 006c 801B     		subs	r0, r0, r6
 215:Core/Inc/ros/ros/node_handle.h ****         {
 4452              		.loc 9 215 43 view .LVU1312
 4453 006e D4F82034 		ldr	r3, [r4, #1056]
 215:Core/Inc/ros/ros/node_handle.h ****         {
 4454              		.loc 9 215 9 view .LVU1313
 4455 0072 9842     		cmp	r0, r3
 4456 0074 00F26C81 		bhi	.L254
 4457              	.L234:
 4458              	.LVL378:
 4459              	.LBB540:
 4460              	.LBI533:
  84:Core/Inc/ros/STM32Hardware.h ****       int c = -1;
 4461              		.loc 10 84 9 is_stmt 1 view .LVU1314
 4462              	.LBB537:
  85:Core/Inc/ros/STM32Hardware.h ****       if(rind != getRdmaInd()){
 4463              		.loc 10 85 7 view .LVU1315
  86:Core/Inc/ros/STM32Hardware.h ****         c = rbuf[rind++];
 4464              		.loc 10 86 7 view .LVU1316
  86:Core/Inc/ros/STM32Hardware.h ****         c = rbuf[rind++];
 4465              		.loc 10 86 10 is_stmt 0 view .LVU1317
 4466 0078 D5F80422 		ldr	r2, [r5, #516]
 4467              	.LVL379:
 4468              	.LBB535:
 4469              	.LBI535:
  61:Core/Inc/ros/STM32Hardware.h **** 
 4470              		.loc 10 61 21 is_stmt 1 view .LVU1318
 4471              	.LBB536:
  61:Core/Inc/ros/STM32Hardware.h **** 
 4472              		.loc 10 61 39 view .LVU1319
  61:Core/Inc/ros/STM32Hardware.h **** 
 4473              		.loc 10 61 57 is_stmt 0 view .LVU1320
ARM GAS  /tmp/ccaSmKi1.s 			page 125


 4474 007c 2B68     		ldr	r3, [r5]
 4475 007e 5B6B     		ldr	r3, [r3, #52]
 4476 0080 1B68     		ldr	r3, [r3]
 4477 0082 5B68     		ldr	r3, [r3, #4]
 4478              	.LVL380:
  61:Core/Inc/ros/STM32Hardware.h **** 
 4479              		.loc 10 61 57 view .LVU1321
 4480              	.LBE536:
 4481              	.LBE535:
  86:Core/Inc/ros/STM32Hardware.h ****         c = rbuf[rind++];
 4482              		.loc 10 86 7 view .LVU1322
 4483 0084 5B42     		rsbs	r3, r3, #0
 4484 0086 C3F30803 		ubfx	r3, r3, #0, #9
 4485 008a 9A42     		cmp	r2, r3
 4486 008c D5D0     		beq	.L255
  87:Core/Inc/ros/STM32Hardware.h ****         rind &= rbuflen - 1;
 4487              		.loc 10 87 9 is_stmt 1 view .LVU1323
  87:Core/Inc/ros/STM32Hardware.h ****         rind &= rbuflen - 1;
 4488              		.loc 10 87 22 is_stmt 0 view .LVU1324
 4489 008e 531C     		adds	r3, r2, #1
 4490 0090 C5F80432 		str	r3, [r5, #516]
  87:Core/Inc/ros/STM32Hardware.h ****         rind &= rbuflen - 1;
 4491              		.loc 10 87 24 view .LVU1325
 4492 0094 2A44     		add	r2, r2, r5
 4493 0096 1179     		ldrb	r1, [r2, #4]	@ zero_extendqisi2
 4494              	.LVL381:
  88:Core/Inc/ros/STM32Hardware.h ****       }
 4495              		.loc 10 88 9 is_stmt 1 view .LVU1326
  88:Core/Inc/ros/STM32Hardware.h ****       }
 4496              		.loc 10 88 14 is_stmt 0 view .LVU1327
 4497 0098 C3F30803 		ubfx	r3, r3, #0, #9
 4498 009c C5F80432 		str	r3, [r5, #516]
 4499              	.LVL382:
 4500              	.L236:
  90:Core/Inc/ros/STM32Hardware.h ****     }
 4501              		.loc 10 90 7 is_stmt 1 view .LVU1328
  90:Core/Inc/ros/STM32Hardware.h ****     }
 4502              		.loc 10 90 7 is_stmt 0 view .LVU1329
 4503              	.LBE537:
 4504              	.LBE540:
 222:Core/Inc/ros/ros/node_handle.h ****         break;
 4505              		.loc 9 222 7 view .LVU1330
 4506 00a0 0029     		cmp	r1, #0
 4507 00a2 C0F23481 		blt	.L237
 224:Core/Inc/ros/ros/node_handle.h ****       if (mode_ == MODE_MESSAGE)          /* message data being recieved */
 4508              		.loc 9 224 17 view .LVU1331
 4509 00a6 D4F8FC28 		ldr	r2, [r4, #2300]
 4510 00aa 0A44     		add	r2, r2, r1
 4511 00ac C4F8FC28 		str	r2, [r4, #2300]
 225:Core/Inc/ros/ros/node_handle.h ****       {
 4512              		.loc 9 225 11 view .LVU1332
 4513 00b0 D4F8EC38 		ldr	r3, [r4, #2284]
 225:Core/Inc/ros/ros/node_handle.h ****       {
 4514              		.loc 9 225 7 view .LVU1333
 4515 00b4 072B     		cmp	r3, #7
 4516 00b6 C3D0     		beq	.L259
 232:Core/Inc/ros/ros/node_handle.h ****       {
ARM GAS  /tmp/ccaSmKi1.s 			page 126


 4517              		.loc 9 232 12 view .LVU1334
 4518 00b8 B3B9     		cbnz	r3, .L240
 234:Core/Inc/ros/ros/node_handle.h ****         {
 4519              		.loc 9 234 9 view .LVU1335
 4520 00ba FF29     		cmp	r1, #255
 4521 00bc 07D1     		bne	.L241
 236:Core/Inc/ros/ros/node_handle.h ****           last_msg_timeout_time = c_time + SERIAL_MSG_TIMEOUT;
 4522              		.loc 9 236 11 view .LVU1336
 4523 00be 0133     		adds	r3, r3, #1
 4524 00c0 C4F8EC38 		str	r3, [r4, #2284]
 237:Core/Inc/ros/ros/node_handle.h ****         }
 4525              		.loc 9 237 42 view .LVU1337
 4526 00c4 06F11403 		add	r3, r6, #20
 237:Core/Inc/ros/ros/node_handle.h ****         }
 4527              		.loc 9 237 33 view .LVU1338
 4528 00c8 C4F80C39 		str	r3, [r4, #2316]
 4529 00cc C9E7     		b	.L233
 4530              	.L241:
 4531              	.LVL383:
 4532              	.LBB541:
 4533              	.LBI541:
 4534              		.loc 10 123 19 is_stmt 1 view .LVU1339
 4535              	.LBB542:
 4536              		.loc 10 123 27 view .LVU1340
 4537              		.loc 10 123 45 is_stmt 0 view .LVU1341
 4538 00ce FFF7FEFF 		bl	HAL_GetTick
 4539              	.LVL384:
 4540              		.loc 10 123 48 is_stmt 1 view .LVU1342
 4541              		.loc 10 123 48 is_stmt 0 view .LVU1343
 4542              	.LBE542:
 4543              	.LBE541:
 239:Core/Inc/ros/ros/node_handle.h ****         {
 4544              		.loc 9 239 35 view .LVU1344
 4545 00d2 801B     		subs	r0, r0, r6
 239:Core/Inc/ros/ros/node_handle.h ****         {
 4546              		.loc 9 239 14 view .LVU1345
 4547 00d4 41F28833 		movw	r3, #5000
 4548 00d8 9842     		cmp	r0, r3
 4549 00da C2D9     		bls	.L233
 242:Core/Inc/ros/ros/node_handle.h ****           return SPIN_TIMEOUT;
 4550              		.loc 9 242 23 view .LVU1346
 4551 00dc 0023     		movs	r3, #0
 4552 00de 84F80039 		strb	r3, [r4, #2304]
 243:Core/Inc/ros/ros/node_handle.h ****         }
 4553              		.loc 9 243 18 view .LVU1347
 4554 00e2 6FF00100 		mvn	r0, #1
 4555 00e6 35E1     		b	.L230
 4556              	.LVL385:
 4557              	.L240:
 246:Core/Inc/ros/ros/node_handle.h ****       {
 4558              		.loc 9 246 12 view .LVU1348
 4559 00e8 012B     		cmp	r3, #1
 4560 00ea 2ED0     		beq	.L260
 259:Core/Inc/ros/ros/node_handle.h ****       {
 4561              		.loc 9 259 12 view .LVU1349
 4562 00ec 022B     		cmp	r3, #2
 4563 00ee 4BD0     		beq	.L261
ARM GAS  /tmp/ccaSmKi1.s 			page 127


 266:Core/Inc/ros/ros/node_handle.h ****       {
 4564              		.loc 9 266 12 view .LVU1350
 4565 00f0 032B     		cmp	r3, #3
 4566 00f2 54D0     		beq	.L262
 271:Core/Inc/ros/ros/node_handle.h ****       {
 4567              		.loc 9 271 12 view .LVU1351
 4568 00f4 042B     		cmp	r3, #4
 4569 00f6 5CD0     		beq	.L263
 278:Core/Inc/ros/ros/node_handle.h ****       {
 4570              		.loc 9 278 12 view .LVU1352
 4571 00f8 052B     		cmp	r3, #5
 4572 00fa 69D0     		beq	.L264
 284:Core/Inc/ros/ros/node_handle.h ****       {
 4573              		.loc 9 284 12 view .LVU1353
 4574 00fc 062B     		cmp	r3, #6
 4575 00fe 6FD0     		beq	.L265
 291:Core/Inc/ros/ros/node_handle.h ****       {
 4576              		.loc 9 291 12 view .LVU1354
 4577 0100 082B     		cmp	r3, #8
 4578 0102 AED1     		bne	.L233
 293:Core/Inc/ros/ros/node_handle.h ****         if ((checksum_ % 256) == 255)
 4579              		.loc 9 293 15 view .LVU1355
 4580 0104 0023     		movs	r3, #0
 4581 0106 C4F8EC38 		str	r3, [r4, #2284]
 294:Core/Inc/ros/ros/node_handle.h ****         {
 4582              		.loc 9 294 24 view .LVU1356
 4583 010a 9B1A     		subs	r3, r3, r2
 4584 010c D2B2     		uxtb	r2, r2
 4585 010e DBB2     		uxtb	r3, r3
 4586 0110 58BF     		it	pl
 4587 0112 5A42     		rsbpl	r2, r3, #0
 294:Core/Inc/ros/ros/node_handle.h ****         {
 4588              		.loc 9 294 9 view .LVU1357
 4589 0114 FF2A     		cmp	r2, #255
 4590 0116 A4D1     		bne	.L233
 296:Core/Inc/ros/ros/node_handle.h ****           {
 4591              		.loc 9 296 15 view .LVU1358
 4592 0118 D4F8F438 		ldr	r3, [r4, #2292]
 296:Core/Inc/ros/ros/node_handle.h ****           {
 4593              		.loc 9 296 11 view .LVU1359
 4594 011c 002B     		cmp	r3, #0
 4595 011e 71D0     		beq	.L266
 304:Core/Inc/ros/ros/node_handle.h ****           {
 4596              		.loc 9 304 16 view .LVU1360
 4597 0120 0A2B     		cmp	r3, #10
 4598 0122 00F08A80 		beq	.L267
 308:Core/Inc/ros/ros/node_handle.h ****           {
 4599              		.loc 9 308 16 view .LVU1361
 4600 0126 062B     		cmp	r3, #6
 4601 0128 00F0E380 		beq	.L268
 313:Core/Inc/ros/ros/node_handle.h ****           {
 4602              		.loc 9 313 16 view .LVU1362
 4603 012c 0B2B     		cmp	r3, #11
 4604 012e 00F0EA80 		beq	.L269
 319:Core/Inc/ros/ros/node_handle.h ****               subscribers[topic_ - 100]->callback(message_in);
 4605              		.loc 9 319 28 view .LVU1363
 4606 0132 03F5DF73 		add	r3, r3, #446
ARM GAS  /tmp/ccaSmKi1.s 			page 128


 4607 0136 54F82300 		ldr	r0, [r4, r3, lsl #2]
 319:Core/Inc/ros/ros/node_handle.h ****               subscribers[topic_ - 100]->callback(message_in);
 4608              		.loc 9 319 13 view .LVU1364
 4609 013a 0028     		cmp	r0, #0
 4610 013c 91D0     		beq	.L233
 320:Core/Inc/ros/ros/node_handle.h ****           }
 4611              		.loc 9 320 50 view .LVU1365
 4612 013e 0368     		ldr	r3, [r0]
 4613 0140 1B68     		ldr	r3, [r3]
 4614 0142 04F22441 		addw	r1, r4, #1060
 4615              	.LVL386:
 320:Core/Inc/ros/ros/node_handle.h ****           }
 4616              		.loc 9 320 50 view .LVU1366
 4617 0146 9847     		blx	r3
 4618              	.LVL387:
 4619 0148 8BE7     		b	.L233
 4620              	.LVL388:
 4621              	.L260:
 248:Core/Inc/ros/ros/node_handle.h ****         {
 4622              		.loc 9 248 9 view .LVU1367
 4623 014a FE29     		cmp	r1, #254
 4624 014c 18D0     		beq	.L270
 254:Core/Inc/ros/ros/node_handle.h ****           if (configured_ == false)
 4625              		.loc 9 254 17 view .LVU1368
 4626 014e 0023     		movs	r3, #0
 4627 0150 C4F8EC38 		str	r3, [r4, #2284]
 255:Core/Inc/ros/ros/node_handle.h ****             requestSyncTime();  /* send a msg back showing our protocol version */
 4628              		.loc 9 255 15 view .LVU1369
 4629 0154 94F80039 		ldrb	r3, [r4, #2304]	@ zero_extendqisi2
 255:Core/Inc/ros/ros/node_handle.h ****             requestSyncTime();  /* send a msg back showing our protocol version */
 4630              		.loc 9 255 11 view .LVU1370
 4631 0158 002B     		cmp	r3, #0
 4632 015a 82D1     		bne	.L233
 4633              	.LVL389:
 4634              	.LBB543:
 4635              	.LBI543:
 347:Core/Inc/ros/ros/node_handle.h ****   {
 4636              		.loc 9 347 8 is_stmt 1 view .LVU1371
 4637              	.LBB544:
 4638              	.LBB545:
 4639              	.LBI545:
  19:Core/Inc/ros/std_msgs/Time.h ****       data()
 4640              		.loc 2 19 5 view .LVU1372
 4641              	.LBB546:
 4642              	.LBB547:
 4643              	.LBB548:
 4644              	.LBI548:
  46:Core/Inc/ros/ros/msg.h **** {
 4645              		.loc 11 46 7 view .LVU1373
 4646              	.LBB549:
 4647 015c 804B     		ldr	r3, .L273
 4648 015e 0193     		str	r3, [sp, #4]
 4649              	.LVL390:
  46:Core/Inc/ros/ros/msg.h **** {
 4650              		.loc 11 46 7 is_stmt 0 view .LVU1374
 4651              	.LBE549:
 4652              	.LBE548:
ARM GAS  /tmp/ccaSmKi1.s 			page 129


  20:Core/Inc/ros/std_msgs/Time.h ****     {
 4653              		.loc 2 20 12 view .LVU1375
 4654 0160 804B     		ldr	r3, .L273+4
 4655 0162 0193     		str	r3, [sp, #4]
 4656              	.LVL391:
 4657              	.LBB550:
 4658              	.LBI550:
 4659              		.file 14 "Core/Inc/ros/ros/time.h"
   1:Core/Inc/ros/ros/time.h **** /*
   2:Core/Inc/ros/ros/time.h ****  * Software License Agreement (BSD License)
   3:Core/Inc/ros/ros/time.h ****  *
   4:Core/Inc/ros/ros/time.h ****  * Copyright (c) 2011, Willow Garage, Inc.
   5:Core/Inc/ros/ros/time.h ****  * All rights reserved.
   6:Core/Inc/ros/ros/time.h ****  *
   7:Core/Inc/ros/ros/time.h ****  * Redistribution and use in source and binary forms, with or without
   8:Core/Inc/ros/ros/time.h ****  * modification, are permitted provided that the following conditions
   9:Core/Inc/ros/ros/time.h ****  * are met:
  10:Core/Inc/ros/ros/time.h ****  *
  11:Core/Inc/ros/ros/time.h ****  *  * Redistributions of source code must retain the above copyright
  12:Core/Inc/ros/ros/time.h ****  *    notice, this list of conditions and the following disclaimer.
  13:Core/Inc/ros/ros/time.h ****  *  * Redistributions in binary form must reproduce the above
  14:Core/Inc/ros/ros/time.h ****  *    copyright notice, this list of conditions and the following
  15:Core/Inc/ros/ros/time.h ****  *    disclaimer in the documentation and/or other materials provided
  16:Core/Inc/ros/ros/time.h ****  *    with the distribution.
  17:Core/Inc/ros/ros/time.h ****  *  * Neither the name of Willow Garage, Inc. nor the names of its
  18:Core/Inc/ros/ros/time.h ****  *    contributors may be used to endorse or promote prducts derived
  19:Core/Inc/ros/ros/time.h ****  *    from this software without specific prior written permission.
  20:Core/Inc/ros/ros/time.h ****  *
  21:Core/Inc/ros/ros/time.h ****  * THIS SOFTWARE IS PROVIDED BY THE COPYRIGHT HOLDERS AND CONTRIBUTORS
  22:Core/Inc/ros/ros/time.h ****  * "AS IS" AND ANY EXPRESS OR IMPLIED WARRANTIES, INCLUDING, BUT NOT
  23:Core/Inc/ros/ros/time.h ****  * LIMITED TO, THE IMPLIED WARRANTIES OF MERCHANTABILITY AND FITNESS
  24:Core/Inc/ros/ros/time.h ****  * FOR A PARTICULAR PURPOSE ARE DISCLAIMED. IN NO EVENT SHALL THE
  25:Core/Inc/ros/ros/time.h ****  * COPYRIGHT OWNER OR CONTRIBUTORS BE LIABLE FOR ANY DIRECT, INDIRECT,
  26:Core/Inc/ros/ros/time.h ****  * INCIDENTAL, SPECIAL, EXEMPLARY, OR CONSEQUENTIAL DAMAGES (INCLUDING,
  27:Core/Inc/ros/ros/time.h ****  * BUT NOT LIMITED TO, PROCUREMENT OF SUBSTITUTE GOODS OR SERVICES;
  28:Core/Inc/ros/ros/time.h ****  * LOSS OF USE, DATA, OR PROFITS; OR BUSINESS INTERRUPTION) HOWEVER
  29:Core/Inc/ros/ros/time.h ****  * CAUSED AND ON ANY THEORY OF LIABILITY, WHETHER IN CONTRACT, STRICT
  30:Core/Inc/ros/ros/time.h ****  * LIABILITY, OR TORT (INCLUDING NEGLIGENCE OR OTHERWISE) ARISING IN
  31:Core/Inc/ros/ros/time.h ****  * ANY WAY OUT OF THE USE OF THIS SOFTWARE, EVEN IF ADVISED OF THE
  32:Core/Inc/ros/ros/time.h ****  * POSSIBILITY OF SUCH DAMAGE.
  33:Core/Inc/ros/ros/time.h ****  */
  34:Core/Inc/ros/ros/time.h **** 
  35:Core/Inc/ros/ros/time.h **** #ifndef ROS_TIME_H_
  36:Core/Inc/ros/ros/time.h **** #define ROS_TIME_H_
  37:Core/Inc/ros/ros/time.h **** 
  38:Core/Inc/ros/ros/time.h **** #include "ros/duration.h"
  39:Core/Inc/ros/ros/time.h **** #include <math.h>
  40:Core/Inc/ros/ros/time.h **** #include <stdint.h>
  41:Core/Inc/ros/ros/time.h **** 
  42:Core/Inc/ros/ros/time.h **** namespace ros
  43:Core/Inc/ros/ros/time.h **** {
  44:Core/Inc/ros/ros/time.h **** void normalizeSecNSec(uint32_t &sec, uint32_t &nsec);
  45:Core/Inc/ros/ros/time.h **** 
  46:Core/Inc/ros/ros/time.h **** class Time
  47:Core/Inc/ros/ros/time.h **** {
  48:Core/Inc/ros/ros/time.h **** public:
  49:Core/Inc/ros/ros/time.h ****   uint32_t sec, nsec;
ARM GAS  /tmp/ccaSmKi1.s 			page 130


  50:Core/Inc/ros/ros/time.h **** 
  51:Core/Inc/ros/ros/time.h ****   Time() : sec(0), nsec(0) {}
 4660              		.loc 14 51 3 is_stmt 1 view .LVU1376
 4661              	.LBB551:
 4662              	.LBB552:
 4663              		.loc 14 51 26 is_stmt 0 view .LVU1377
 4664 0164 0023     		movs	r3, #0
 4665 0166 0293     		str	r3, [sp, #8]
 4666 0168 0393     		str	r3, [sp, #12]
 4667              	.LVL392:
 4668              		.loc 14 51 26 view .LVU1378
 4669              	.LBE552:
 4670              	.LBE551:
 4671              	.LBE550:
 4672              	.LBE547:
 4673              	.LBE546:
 4674              	.LBE545:
 350:Core/Inc/ros/ros/node_handle.h ****     rt_time = hardware_.time();
 4675              		.loc 9 350 12 view .LVU1379
 4676 016a 2368     		ldr	r3, [r4]
 4677 016c 1B68     		ldr	r3, [r3]
 4678 016e 01AA     		add	r2, sp, #4
 4679 0170 0A21     		movs	r1, #10
 4680              	.LVL393:
 350:Core/Inc/ros/ros/node_handle.h ****     rt_time = hardware_.time();
 4681              		.loc 9 350 12 view .LVU1380
 4682 0172 2046     		mov	r0, r4
 4683 0174 9847     		blx	r3
 4684              	.LVL394:
 4685              	.LBB553:
 4686              	.LBI553:
 4687              		.loc 10 123 19 is_stmt 1 view .LVU1381
 4688              	.LBB554:
 4689              		.loc 10 123 27 view .LVU1382
 4690              		.loc 10 123 45 is_stmt 0 view .LVU1383
 4691 0176 FFF7FEFF 		bl	HAL_GetTick
 4692              	.LVL395:
 4693              		.loc 10 123 48 is_stmt 1 view .LVU1384
 4694              		.loc 10 123 48 is_stmt 0 view .LVU1385
 4695              	.LBE554:
 4696              	.LBE553:
 351:Core/Inc/ros/ros/node_handle.h ****   }
 4697              		.loc 9 351 13 view .LVU1386
 4698 017a C4F81404 		str	r0, [r4, #1044]
 352:Core/Inc/ros/ros/node_handle.h **** 
 4699              		.loc 9 352 3 view .LVU1387
 4700 017e 70E7     		b	.L233
 4701              	.LVL396:
 4702              	.L270:
 352:Core/Inc/ros/ros/node_handle.h **** 
 4703              		.loc 9 352 3 view .LVU1388
 4704              	.LBE544:
 4705              	.LBE543:
 250:Core/Inc/ros/ros/node_handle.h ****         }
 4706              		.loc 9 250 11 view .LVU1389
 4707 0180 0133     		adds	r3, r3, #1
 4708 0182 C4F8EC38 		str	r3, [r4, #2284]
ARM GAS  /tmp/ccaSmKi1.s 			page 131


 4709 0186 6CE7     		b	.L233
 4710              	.L261:
 261:Core/Inc/ros/ros/node_handle.h ****         index_ = 0;
 4711              		.loc 9 261 16 view .LVU1390
 4712 0188 C4F8F018 		str	r1, [r4, #2288]
 262:Core/Inc/ros/ros/node_handle.h ****         mode_++;
 4713              		.loc 9 262 16 view .LVU1391
 4714 018c 0022     		movs	r2, #0
 4715 018e C4F8F828 		str	r2, [r4, #2296]
 263:Core/Inc/ros/ros/node_handle.h ****         checksum_ = data;               /* first byte for calculating size checksum */
 4716              		.loc 9 263 9 view .LVU1392
 4717 0192 0133     		adds	r3, r3, #1
 4718 0194 C4F8EC38 		str	r3, [r4, #2284]
 264:Core/Inc/ros/ros/node_handle.h ****       }
 4719              		.loc 9 264 19 view .LVU1393
 4720 0198 C4F8FC18 		str	r1, [r4, #2300]
 4721 019c 61E7     		b	.L233
 4722              	.L262:
 268:Core/Inc/ros/ros/node_handle.h ****         mode_++;
 4723              		.loc 9 268 16 view .LVU1394
 4724 019e D4F8F028 		ldr	r2, [r4, #2288]
 4725 01a2 02EB0122 		add	r2, r2, r1, lsl #8
 4726 01a6 C4F8F028 		str	r2, [r4, #2288]
 269:Core/Inc/ros/ros/node_handle.h ****       }
 4727              		.loc 9 269 9 view .LVU1395
 4728 01aa 0133     		adds	r3, r3, #1
 4729 01ac C4F8EC38 		str	r3, [r4, #2284]
 4730 01b0 57E7     		b	.L233
 4731              	.L263:
 273:Core/Inc/ros/ros/node_handle.h ****           mode_++;
 4732              		.loc 9 273 24 view .LVU1396
 4733 01b2 5142     		rsbs	r1, r2, #0
 4734              	.LVL397:
 273:Core/Inc/ros/ros/node_handle.h ****           mode_++;
 4735              		.loc 9 273 24 view .LVU1397
 4736 01b4 D2B2     		uxtb	r2, r2
 4737 01b6 C9B2     		uxtb	r1, r1
 4738 01b8 58BF     		it	pl
 4739 01ba 4A42     		rsbpl	r2, r1, #0
 273:Core/Inc/ros/ros/node_handle.h ****           mode_++;
 4740              		.loc 9 273 9 view .LVU1398
 4741 01bc FF2A     		cmp	r2, #255
 4742 01be 03D0     		beq	.L271
 276:Core/Inc/ros/ros/node_handle.h ****       }
 4743              		.loc 9 276 17 view .LVU1399
 4744 01c0 0023     		movs	r3, #0
 4745 01c2 C4F8EC38 		str	r3, [r4, #2284]
 4746 01c6 4CE7     		b	.L233
 4747              	.L271:
 274:Core/Inc/ros/ros/node_handle.h ****         else
 4748              		.loc 9 274 11 view .LVU1400
 4749 01c8 0133     		adds	r3, r3, #1
 4750 01ca C4F8EC38 		str	r3, [r4, #2284]
 4751 01ce 48E7     		b	.L233
 4752              	.LVL398:
 4753              	.L264:
 280:Core/Inc/ros/ros/node_handle.h ****         mode_++;
ARM GAS  /tmp/ccaSmKi1.s 			page 132


 4754              		.loc 9 280 16 view .LVU1401
 4755 01d0 C4F8F418 		str	r1, [r4, #2292]
 281:Core/Inc/ros/ros/node_handle.h ****         checksum_ = data;               /* first byte included in checksum */
 4756              		.loc 9 281 9 view .LVU1402
 4757 01d4 0133     		adds	r3, r3, #1
 4758 01d6 C4F8EC38 		str	r3, [r4, #2284]
 282:Core/Inc/ros/ros/node_handle.h ****       }
 4759              		.loc 9 282 19 view .LVU1403
 4760 01da C4F8FC18 		str	r1, [r4, #2300]
 4761 01de 40E7     		b	.L233
 4762              	.L265:
 286:Core/Inc/ros/ros/node_handle.h ****         mode_ = MODE_MESSAGE;
 4763              		.loc 9 286 16 view .LVU1404
 4764 01e0 D4F8F438 		ldr	r3, [r4, #2292]
 4765 01e4 03EB0123 		add	r3, r3, r1, lsl #8
 4766 01e8 C4F8F438 		str	r3, [r4, #2292]
 287:Core/Inc/ros/ros/node_handle.h ****         if (bytes_ == 0)
 4767              		.loc 9 287 15 view .LVU1405
 4768 01ec 0723     		movs	r3, #7
 4769 01ee C4F8EC38 		str	r3, [r4, #2284]
 288:Core/Inc/ros/ros/node_handle.h ****           mode_ = MODE_MSG_CHECKSUM;
 4770              		.loc 9 288 13 view .LVU1406
 4771 01f2 D4F8F038 		ldr	r3, [r4, #2288]
 288:Core/Inc/ros/ros/node_handle.h ****           mode_ = MODE_MSG_CHECKSUM;
 4772              		.loc 9 288 9 view .LVU1407
 4773 01f6 002B     		cmp	r3, #0
 4774 01f8 7FF433AF 		bne	.L233
 289:Core/Inc/ros/ros/node_handle.h ****       }
 4775              		.loc 9 289 17 view .LVU1408
 4776 01fc 0823     		movs	r3, #8
 4777 01fe C4F8EC38 		str	r3, [r4, #2284]
 4778 0202 2EE7     		b	.L233
 4779              	.L266:
 4780              	.LVL399:
 4781              	.LBB555:
 4782              	.LBI555:
 347:Core/Inc/ros/ros/node_handle.h ****   {
 4783              		.loc 9 347 8 is_stmt 1 view .LVU1409
 4784              	.LBB556:
 4785              	.LBB557:
 4786              	.LBI557:
  19:Core/Inc/ros/std_msgs/Time.h ****       data()
 4787              		.loc 2 19 5 view .LVU1410
 4788              	.LBB558:
 4789              	.LBB559:
 4790              	.LBB560:
 4791              	.LBI560:
  46:Core/Inc/ros/ros/msg.h **** {
 4792              		.loc 11 46 7 view .LVU1411
 4793              	.LBB561:
 4794 0204 564B     		ldr	r3, .L273
 4795 0206 0193     		str	r3, [sp, #4]
 4796              	.LVL400:
  46:Core/Inc/ros/ros/msg.h **** {
 4797              		.loc 11 46 7 is_stmt 0 view .LVU1412
 4798              	.LBE561:
 4799              	.LBE560:
ARM GAS  /tmp/ccaSmKi1.s 			page 133


  20:Core/Inc/ros/std_msgs/Time.h ****     {
 4800              		.loc 2 20 12 view .LVU1413
 4801 0208 564B     		ldr	r3, .L273+4
 4802 020a 0193     		str	r3, [sp, #4]
 4803              	.LVL401:
 4804              	.LBB562:
 4805              	.LBI562:
 4806              		.loc 14 51 3 is_stmt 1 view .LVU1414
 4807              	.LBB563:
 4808              	.LBB564:
 4809              		.loc 14 51 26 is_stmt 0 view .LVU1415
 4810 020c 0023     		movs	r3, #0
 4811 020e 0293     		str	r3, [sp, #8]
 4812 0210 0393     		str	r3, [sp, #12]
 4813              	.LVL402:
 4814              		.loc 14 51 26 view .LVU1416
 4815              	.LBE564:
 4816              	.LBE563:
 4817              	.LBE562:
 4818              	.LBE559:
 4819              	.LBE558:
 4820              	.LBE557:
 350:Core/Inc/ros/ros/node_handle.h ****     rt_time = hardware_.time();
 4821              		.loc 9 350 12 view .LVU1417
 4822 0212 2368     		ldr	r3, [r4]
 4823 0214 1B68     		ldr	r3, [r3]
 4824 0216 01AA     		add	r2, sp, #4
 4825 0218 0A21     		movs	r1, #10
 4826              	.LVL403:
 350:Core/Inc/ros/ros/node_handle.h ****     rt_time = hardware_.time();
 4827              		.loc 9 350 12 view .LVU1418
 4828 021a 2046     		mov	r0, r4
 4829 021c 9847     		blx	r3
 4830              	.LVL404:
 4831              	.LBB565:
 4832              	.LBI565:
 4833              		.loc 10 123 19 is_stmt 1 view .LVU1419
 4834              	.LBB566:
 4835              		.loc 10 123 27 view .LVU1420
 4836              		.loc 10 123 45 is_stmt 0 view .LVU1421
 4837 021e FFF7FEFF 		bl	HAL_GetTick
 4838              	.LVL405:
 4839              		.loc 10 123 48 is_stmt 1 view .LVU1422
 4840              		.loc 10 123 48 is_stmt 0 view .LVU1423
 4841              	.LBE566:
 4842              	.LBE565:
 351:Core/Inc/ros/ros/node_handle.h ****   }
 4843              		.loc 9 351 13 view .LVU1424
 4844 0222 C4F81404 		str	r0, [r4, #1044]
 4845              	.LVL406:
 351:Core/Inc/ros/ros/node_handle.h ****   }
 4846              		.loc 9 351 13 view .LVU1425
 4847              	.LBE556:
 4848              	.LBE555:
 299:Core/Inc/ros/ros/node_handle.h ****             last_sync_time = c_time;
 4849              		.loc 9 299 28 view .LVU1426
 4850 0226 2046     		mov	r0, r4
ARM GAS  /tmp/ccaSmKi1.s 			page 134


 4851 0228 FFF7FEFF 		bl	_ZN3ros11NodeHandle_I13STM32HardwareLi25ELi25ELi512ELi512EE15negotiateTopicsEv
 4852              	.LVL407:
 300:Core/Inc/ros/ros/node_handle.h ****             last_sync_receive_time = c_time;
 4853              		.loc 9 300 28 view .LVU1427
 4854 022c C4F80469 		str	r6, [r4, #2308]
 301:Core/Inc/ros/ros/node_handle.h ****             return SPIN_ERR;
 4855              		.loc 9 301 36 view .LVU1428
 4856 0230 C4F80869 		str	r6, [r4, #2312]
 302:Core/Inc/ros/ros/node_handle.h ****           }
 4857              		.loc 9 302 20 view .LVU1429
 4858 0234 4FF0FF30 		mov	r0, #-1
 4859 0238 8CE0     		b	.L230
 4860              	.LVL408:
 4861              	.L267:
 306:Core/Inc/ros/ros/node_handle.h ****           }
 4862              		.loc 9 306 22 view .LVU1430
 4863 023a 04F22447 		addw	r7, r4, #1060
 4864              	.LVL409:
 4865              	.LBB567:
 4866              	.LBI567:
 354:Core/Inc/ros/ros/node_handle.h ****   {
 4867              		.loc 9 354 8 is_stmt 1 view .LVU1431
 4868              	.LBB568:
 4869              	.LBB569:
 4870              	.LBI569:
  19:Core/Inc/ros/std_msgs/Time.h ****       data()
 4871              		.loc 2 19 5 view .LVU1432
 4872              	.LBB570:
 4873              	.LBB571:
 4874              	.LBB572:
 4875              	.LBI572:
  46:Core/Inc/ros/ros/msg.h **** {
 4876              		.loc 11 46 7 view .LVU1433
 4877              	.LBB573:
 4878 023e 484B     		ldr	r3, .L273
 4879 0240 0193     		str	r3, [sp, #4]
 4880              	.LVL410:
  46:Core/Inc/ros/ros/msg.h **** {
 4881              		.loc 11 46 7 is_stmt 0 view .LVU1434
 4882              	.LBE573:
 4883              	.LBE572:
  20:Core/Inc/ros/std_msgs/Time.h ****     {
 4884              		.loc 2 20 12 view .LVU1435
 4885 0242 484B     		ldr	r3, .L273+4
 4886 0244 0193     		str	r3, [sp, #4]
 4887              	.LVL411:
 4888              	.LBB574:
 4889              	.LBI574:
 4890              		.loc 14 51 3 is_stmt 1 view .LVU1436
 4891              	.LBB575:
 4892              	.LBB576:
 4893              		.loc 14 51 26 is_stmt 0 view .LVU1437
 4894 0246 0023     		movs	r3, #0
 4895 0248 0293     		str	r3, [sp, #8]
 4896 024a 0393     		str	r3, [sp, #12]
 4897              	.LVL412:
 4898              		.loc 14 51 26 view .LVU1438
ARM GAS  /tmp/ccaSmKi1.s 			page 135


 4899              	.LBE576:
 4900              	.LBE575:
 4901              	.LBE574:
 4902              	.LBE571:
 4903              	.LBE570:
 4904              	.LBE569:
 4905              	.LBB577:
 4906              	.LBI577:
 4907              		.loc 10 123 19 is_stmt 1 view .LVU1439
 4908              	.LBB578:
 4909              		.loc 10 123 27 view .LVU1440
 4910              		.loc 10 123 45 is_stmt 0 view .LVU1441
 4911 024c FFF7FEFF 		bl	HAL_GetTick
 4912              	.LVL413:
 4913              		.loc 10 123 48 is_stmt 1 view .LVU1442
 4914              		.loc 10 123 48 is_stmt 0 view .LVU1443
 4915              	.LBE578:
 4916              	.LBE577:
 357:Core/Inc/ros/ros/node_handle.h **** 
 4917              		.loc 9 357 42 view .LVU1444
 4918 0250 D4F81434 		ldr	r3, [r4, #1044]
 357:Core/Inc/ros/ros/node_handle.h **** 
 4919              		.loc 9 357 14 view .LVU1445
 4920 0254 C01A     		subs	r0, r0, r3
 4921              	.LVL414:
 4922              	.LBB579:
 4923              	.LBI579:
  40:Core/Inc/ros/std_msgs/Time.h ****     {
 4924              		.loc 2 40 17 is_stmt 1 view .LVU1446
 4925              	.LBB580:
  42:Core/Inc/ros/std_msgs/Time.h ****       this->data.sec =  ((uint32_t) (*(inbuffer + offset)));
 4926              		.loc 2 42 7 view .LVU1447
  43:Core/Inc/ros/std_msgs/Time.h ****       this->data.sec |= ((uint32_t) (*(inbuffer + offset + 1))) << (8 * 1);
 4927              		.loc 2 43 7 view .LVU1448
  43:Core/Inc/ros/std_msgs/Time.h ****       this->data.sec |= ((uint32_t) (*(inbuffer + offset + 1))) << (8 * 1);
 4928              		.loc 2 43 38 is_stmt 0 view .LVU1449
 4929 0256 94F82424 		ldrb	r2, [r4, #1060]	@ zero_extendqisi2
  43:Core/Inc/ros/std_msgs/Time.h ****       this->data.sec |= ((uint32_t) (*(inbuffer + offset + 1))) << (8 * 1);
 4930              		.loc 2 43 22 view .LVU1450
 4931 025a 0292     		str	r2, [sp, #8]
  44:Core/Inc/ros/std_msgs/Time.h ****       this->data.sec |= ((uint32_t) (*(inbuffer + offset + 2))) << (8 * 2);
 4932              		.loc 2 44 7 is_stmt 1 view .LVU1451
  44:Core/Inc/ros/std_msgs/Time.h ****       this->data.sec |= ((uint32_t) (*(inbuffer + offset + 2))) << (8 * 2);
 4933              		.loc 2 44 38 is_stmt 0 view .LVU1452
 4934 025c 3946     		mov	r1, r7
 4935 025e 7B78     		ldrb	r3, [r7, #1]	@ zero_extendqisi2
  44:Core/Inc/ros/std_msgs/Time.h ****       this->data.sec |= ((uint32_t) (*(inbuffer + offset + 2))) << (8 * 2);
 4936              		.loc 2 44 22 view .LVU1453
 4937 0260 42EA0322 		orr	r2, r2, r3, lsl #8
 4938 0264 0292     		str	r2, [sp, #8]
  45:Core/Inc/ros/std_msgs/Time.h ****       this->data.sec |= ((uint32_t) (*(inbuffer + offset + 3))) << (8 * 3);
 4939              		.loc 2 45 7 is_stmt 1 view .LVU1454
  45:Core/Inc/ros/std_msgs/Time.h ****       this->data.sec |= ((uint32_t) (*(inbuffer + offset + 3))) << (8 * 3);
 4940              		.loc 2 45 38 is_stmt 0 view .LVU1455
 4941 0266 BB78     		ldrb	r3, [r7, #2]	@ zero_extendqisi2
  45:Core/Inc/ros/std_msgs/Time.h ****       this->data.sec |= ((uint32_t) (*(inbuffer + offset + 3))) << (8 * 3);
 4942              		.loc 2 45 22 view .LVU1456
ARM GAS  /tmp/ccaSmKi1.s 			page 136


 4943 0268 42EA0342 		orr	r2, r2, r3, lsl #16
 4944 026c 0292     		str	r2, [sp, #8]
  46:Core/Inc/ros/std_msgs/Time.h ****       offset += sizeof(this->data.sec);
 4945              		.loc 2 46 7 is_stmt 1 view .LVU1457
  46:Core/Inc/ros/std_msgs/Time.h ****       offset += sizeof(this->data.sec);
 4946              		.loc 2 46 38 is_stmt 0 view .LVU1458
 4947 026e FB78     		ldrb	r3, [r7, #3]	@ zero_extendqisi2
  46:Core/Inc/ros/std_msgs/Time.h ****       offset += sizeof(this->data.sec);
 4948              		.loc 2 46 22 view .LVU1459
 4949 0270 42EA0362 		orr	r2, r2, r3, lsl #24
 4950 0274 0292     		str	r2, [sp, #8]
  47:Core/Inc/ros/std_msgs/Time.h ****       this->data.nsec =  ((uint32_t) (*(inbuffer + offset)));
 4951              		.loc 2 47 7 is_stmt 1 view .LVU1460
 4952              	.LVL415:
  48:Core/Inc/ros/std_msgs/Time.h ****       this->data.nsec |= ((uint32_t) (*(inbuffer + offset + 1))) << (8 * 1);
 4953              		.loc 2 48 7 view .LVU1461
  48:Core/Inc/ros/std_msgs/Time.h ****       this->data.nsec |= ((uint32_t) (*(inbuffer + offset + 1))) << (8 * 1);
 4954              		.loc 2 48 39 is_stmt 0 view .LVU1462
 4955 0276 3B79     		ldrb	r3, [r7, #4]	@ zero_extendqisi2
  48:Core/Inc/ros/std_msgs/Time.h ****       this->data.nsec |= ((uint32_t) (*(inbuffer + offset + 1))) << (8 * 1);
 4956              		.loc 2 48 23 view .LVU1463
 4957 0278 0393     		str	r3, [sp, #12]
  49:Core/Inc/ros/std_msgs/Time.h ****       this->data.nsec |= ((uint32_t) (*(inbuffer + offset + 2))) << (8 * 2);
 4958              		.loc 2 49 7 is_stmt 1 view .LVU1464
  49:Core/Inc/ros/std_msgs/Time.h ****       this->data.nsec |= ((uint32_t) (*(inbuffer + offset + 2))) << (8 * 2);
 4959              		.loc 2 49 39 is_stmt 0 view .LVU1465
 4960 027a 7F79     		ldrb	r7, [r7, #5]	@ zero_extendqisi2
  49:Core/Inc/ros/std_msgs/Time.h ****       this->data.nsec |= ((uint32_t) (*(inbuffer + offset + 2))) << (8 * 2);
 4961              		.loc 2 49 23 view .LVU1466
 4962 027c 43EA0723 		orr	r3, r3, r7, lsl #8
 4963 0280 0393     		str	r3, [sp, #12]
  50:Core/Inc/ros/std_msgs/Time.h ****       this->data.nsec |= ((uint32_t) (*(inbuffer + offset + 3))) << (8 * 3);
 4964              		.loc 2 50 7 is_stmt 1 view .LVU1467
  50:Core/Inc/ros/std_msgs/Time.h ****       this->data.nsec |= ((uint32_t) (*(inbuffer + offset + 3))) << (8 * 3);
 4965              		.loc 2 50 39 is_stmt 0 view .LVU1468
 4966 0282 8F79     		ldrb	r7, [r1, #6]	@ zero_extendqisi2
  50:Core/Inc/ros/std_msgs/Time.h ****       this->data.nsec |= ((uint32_t) (*(inbuffer + offset + 3))) << (8 * 3);
 4967              		.loc 2 50 23 view .LVU1469
 4968 0284 43EA0743 		orr	r3, r3, r7, lsl #16
 4969 0288 0393     		str	r3, [sp, #12]
  51:Core/Inc/ros/std_msgs/Time.h ****       offset += sizeof(this->data.nsec);
 4970              		.loc 2 51 7 is_stmt 1 view .LVU1470
  51:Core/Inc/ros/std_msgs/Time.h ****       offset += sizeof(this->data.nsec);
 4971              		.loc 2 51 39 is_stmt 0 view .LVU1471
 4972 028a C979     		ldrb	r1, [r1, #7]	@ zero_extendqisi2
  51:Core/Inc/ros/std_msgs/Time.h ****       offset += sizeof(this->data.nsec);
 4973              		.loc 2 51 23 view .LVU1472
 4974 028c 43EA0163 		orr	r3, r3, r1, lsl #24
 4975 0290 0393     		str	r3, [sp, #12]
  52:Core/Inc/ros/std_msgs/Time.h ****      return offset;
 4976              		.loc 2 52 7 is_stmt 1 view .LVU1473
 4977              	.LVL416:
  53:Core/Inc/ros/std_msgs/Time.h ****     }
 4978              		.loc 2 53 6 view .LVU1474
  53:Core/Inc/ros/std_msgs/Time.h ****     }
 4979              		.loc 2 53 6 is_stmt 0 view .LVU1475
 4980              	.LBE580:
ARM GAS  /tmp/ccaSmKi1.s 			page 137


 4981              	.LBE579:
 360:Core/Inc/ros/ros/node_handle.h ****     t.data.nsec += (offset % 1000) * 1000000UL;
 4982              		.loc 9 360 26 view .LVU1476
 4983 0292 354F     		ldr	r7, .L273+8
 4984 0294 A7FB00C1 		umull	ip, r1, r7, r0
 4985 0298 4FEA911C 		lsr	ip, r1, #6
 360:Core/Inc/ros/ros/node_handle.h ****     t.data.nsec += (offset % 1000) * 1000000UL;
 4986              		.loc 9 360 16 view .LVU1477
 4987 029c 02EB9112 		add	r2, r2, r1, lsr #6
 4988 02a0 0292     		str	r2, [sp, #8]
 361:Core/Inc/ros/ros/node_handle.h **** 
 4989              		.loc 9 361 28 view .LVU1478
 4990 02a2 4FF47A78 		mov	r8, #1000
 4991 02a6 08FB1C00 		mls	r0, r8, ip, r0
 4992              	.LVL417:
 361:Core/Inc/ros/ros/node_handle.h **** 
 4993              		.loc 9 361 36 view .LVU1479
 4994 02aa DFF8C490 		ldr	r9, .L273+16
 361:Core/Inc/ros/ros/node_handle.h **** 
 4995              		.loc 9 361 17 view .LVU1480
 4996 02ae 09FB0033 		mla	r3, r9, r0, r3
 4997 02b2 0393     		str	r3, [sp, #12]
 4998              	.LVL418:
 4999              	.LBB581:
 5000              	.LBI581:
 377:Core/Inc/ros/ros/node_handle.h ****   {
 5001              		.loc 9 377 8 is_stmt 1 view .LVU1481
 5002              	.LBB582:
 5003              	.LBB583:
 5004              	.LBI583:
 5005              		.loc 10 123 19 view .LVU1482
 5006              	.LBB584:
 5007              		.loc 10 123 27 view .LVU1483
 5008              		.loc 10 123 45 is_stmt 0 view .LVU1484
 5009 02b4 FFF7FEFF 		bl	HAL_GetTick
 5010              	.LVL419:
 5011              		.loc 10 123 48 is_stmt 1 view .LVU1485
 5012              		.loc 10 123 48 is_stmt 0 view .LVU1486
 5013              	.LBE584:
 5014              	.LBE583:
 380:Core/Inc/ros/ros/node_handle.h ****     nsec_offset = new_now.nsec - (ms % 1000) * 1000000UL + 1000000000UL;
 5015              		.loc 9 380 35 view .LVU1487
 5016 02b8 A7FB0027 		umull	r2, r7, r7, r0
 5017 02bc B909     		lsrs	r1, r7, #6
 380:Core/Inc/ros/ros/node_handle.h ****     nsec_offset = new_now.nsec - (ms % 1000) * 1000000UL + 1000000000UL;
 5018              		.loc 9 380 30 view .LVU1488
 5019 02be 029A     		ldr	r2, [sp, #8]
 5020 02c0 A2EB9712 		sub	r2, r2, r7, lsr #6
 380:Core/Inc/ros/ros/node_handle.h ****     nsec_offset = new_now.nsec - (ms % 1000) * 1000000UL + 1000000000UL;
 5021              		.loc 9 380 42 view .LVU1489
 5022 02c4 013A     		subs	r2, r2, #1
 380:Core/Inc/ros/ros/node_handle.h ****     nsec_offset = new_now.nsec - (ms % 1000) * 1000000UL + 1000000000UL;
 5023              		.loc 9 380 16 view .LVU1490
 5024 02c6 C4F81824 		str	r2, [r4, #1048]
 381:Core/Inc/ros/ros/node_handle.h ****     normalizeSecNSec(sec_offset, nsec_offset);
 5025              		.loc 9 381 38 view .LVU1491
 5026 02ca 08FB1103 		mls	r3, r8, r1, r0
ARM GAS  /tmp/ccaSmKi1.s 			page 138


 381:Core/Inc/ros/ros/node_handle.h ****     normalizeSecNSec(sec_offset, nsec_offset);
 5027              		.loc 9 381 32 view .LVU1492
 5028 02ce 039A     		ldr	r2, [sp, #12]
 5029 02d0 09FB1322 		mls	r2, r9, r3, r2
 381:Core/Inc/ros/ros/node_handle.h ****     normalizeSecNSec(sec_offset, nsec_offset);
 5030              		.loc 9 381 58 view .LVU1493
 5031 02d4 254B     		ldr	r3, .L273+12
 5032 02d6 1344     		add	r3, r3, r2
 381:Core/Inc/ros/ros/node_handle.h ****     normalizeSecNSec(sec_offset, nsec_offset);
 5033              		.loc 9 381 17 view .LVU1494
 5034 02d8 C4F81C34 		str	r3, [r4, #1052]
 382:Core/Inc/ros/ros/node_handle.h ****   }
 5035              		.loc 9 382 21 view .LVU1495
 5036 02dc 04F21C41 		addw	r1, r4, #1052
 5037 02e0 04F58360 		add	r0, r4, #1048
 5038              	.LVL420:
 382:Core/Inc/ros/ros/node_handle.h ****   }
 5039              		.loc 9 382 21 view .LVU1496
 5040 02e4 FFF7FEFF 		bl	_ZN3ros16normalizeSecNSecERmS0_
 5041              	.LVL421:
 382:Core/Inc/ros/ros/node_handle.h ****   }
 5042              		.loc 9 382 21 view .LVU1497
 5043              	.LBE582:
 5044              	.LBE581:
 5045              	.LBB585:
 5046              	.LBI585:
 5047              		.loc 10 123 19 is_stmt 1 view .LVU1498
 5048              	.LBB586:
 5049              		.loc 10 123 27 view .LVU1499
 5050              		.loc 10 123 45 is_stmt 0 view .LVU1500
 5051 02e8 FFF7FEFF 		bl	HAL_GetTick
 5052              	.LVL422:
 5053              		.loc 10 123 48 is_stmt 1 view .LVU1501
 5054              		.loc 10 123 48 is_stmt 0 view .LVU1502
 5055              	.LBE586:
 5056              	.LBE585:
 364:Core/Inc/ros/ros/node_handle.h ****   }
 5057              		.loc 9 364 28 view .LVU1503
 5058 02ec C4F80809 		str	r0, [r4, #2312]
 365:Core/Inc/ros/ros/node_handle.h **** 
 5059              		.loc 9 365 3 view .LVU1504
 5060 02f0 B7E6     		b	.L233
 5061              	.LVL423:
 5062              	.L268:
 365:Core/Inc/ros/ros/node_handle.h **** 
 5063              		.loc 9 365 3 view .LVU1505
 5064              	.LBE568:
 5065              	.LBE567:
 310:Core/Inc/ros/ros/node_handle.h ****             param_received = true;
 5066              		.loc 9 310 39 view .LVU1506
 5067 02f2 04F22441 		addw	r1, r4, #1060
 5068              	.LVL424:
 310:Core/Inc/ros/ros/node_handle.h ****             param_received = true;
 5069              		.loc 9 310 39 view .LVU1507
 5070 02f6 04F61410 		addw	r0, r4, #2324
 5071 02fa FFF7FEFF 		bl	_ZN14rosserial_msgs20RequestParamResponse11deserializeEPh
 5072              	.LVL425:
ARM GAS  /tmp/ccaSmKi1.s 			page 139


 311:Core/Inc/ros/ros/node_handle.h ****           }
 5073              		.loc 9 311 28 view .LVU1508
 5074 02fe 0123     		movs	r3, #1
 5075 0300 84F81039 		strb	r3, [r4, #2320]
 5076 0304 ADE6     		b	.L233
 5077              	.LVL426:
 5078              	.L269:
 315:Core/Inc/ros/ros/node_handle.h ****           }
 5079              		.loc 9 315 25 view .LVU1509
 5080 0306 0023     		movs	r3, #0
 5081 0308 84F80039 		strb	r3, [r4, #2304]
 5082 030c A9E6     		b	.L233
 5083              	.L237:
 315:Core/Inc/ros/ros/node_handle.h ****           }
 5084              		.loc 9 315 25 view .LVU1510
 5085              	.LBE532:
 327:Core/Inc/ros/ros/node_handle.h ****     {
 5086              		.loc 9 327 9 view .LVU1511
 5087 030e 94F80039 		ldrb	r3, [r4, #2304]	@ zero_extendqisi2
 327:Core/Inc/ros/ros/node_handle.h ****     {
 5088              		.loc 9 327 5 view .LVU1512
 5089 0312 13B3     		cbz	r3, .L256
 327:Core/Inc/ros/ros/node_handle.h ****     {
 5090              		.loc 9 327 35 discriminator 1 view .LVU1513
 5091 0314 D4F80439 		ldr	r3, [r4, #2308]
 327:Core/Inc/ros/ros/node_handle.h ****     {
 5092              		.loc 9 327 33 discriminator 1 view .LVU1514
 5093 0318 F31A     		subs	r3, r6, r3
 327:Core/Inc/ros/ros/node_handle.h ****     {
 5094              		.loc 9 327 21 discriminator 1 view .LVU1515
 5095 031a 40F6C412 		movw	r2, #2500
 5096 031e 9342     		cmp	r3, r2
 5097 0320 01D8     		bhi	.L272
 333:Core/Inc/ros/ros/node_handle.h ****   }
 5098              		.loc 9 333 12 view .LVU1516
 5099 0322 0020     		movs	r0, #0
 5100 0324 16E0     		b	.L230
 5101              	.L272:
 5102              	.LVL427:
 5103              	.LBB587:
 5104              	.LBI587:
 347:Core/Inc/ros/ros/node_handle.h ****   {
 5105              		.loc 9 347 8 is_stmt 1 view .LVU1517
 5106              	.LBB588:
 5107              	.LBB589:
 5108              	.LBI589:
  19:Core/Inc/ros/std_msgs/Time.h ****       data()
 5109              		.loc 2 19 5 view .LVU1518
 5110              	.LBB590:
 5111              	.LBB591:
 5112              	.LBB592:
 5113              	.LBI592:
  46:Core/Inc/ros/ros/msg.h **** {
 5114              		.loc 11 46 7 view .LVU1519
 5115              	.LBB593:
 5116 0326 0E4B     		ldr	r3, .L273
 5117 0328 0193     		str	r3, [sp, #4]
ARM GAS  /tmp/ccaSmKi1.s 			page 140


 5118              	.LVL428:
  46:Core/Inc/ros/ros/msg.h **** {
 5119              		.loc 11 46 7 is_stmt 0 view .LVU1520
 5120              	.LBE593:
 5121              	.LBE592:
  20:Core/Inc/ros/std_msgs/Time.h ****     {
 5122              		.loc 2 20 12 view .LVU1521
 5123 032a 0E4B     		ldr	r3, .L273+4
 5124 032c 0193     		str	r3, [sp, #4]
 5125              	.LVL429:
 5126              	.LBB594:
 5127              	.LBI594:
 5128              		.loc 14 51 3 is_stmt 1 view .LVU1522
 5129              	.LBB595:
 5130              	.LBB596:
 5131              		.loc 14 51 26 is_stmt 0 view .LVU1523
 5132 032e 0025     		movs	r5, #0
 5133 0330 0295     		str	r5, [sp, #8]
 5134 0332 0395     		str	r5, [sp, #12]
 5135              	.LVL430:
 5136              		.loc 14 51 26 view .LVU1524
 5137              	.LBE596:
 5138              	.LBE595:
 5139              	.LBE594:
 5140              	.LBE591:
 5141              	.LBE590:
 5142              	.LBE589:
 350:Core/Inc/ros/ros/node_handle.h ****     rt_time = hardware_.time();
 5143              		.loc 9 350 12 view .LVU1525
 5144 0334 2368     		ldr	r3, [r4]
 5145 0336 1B68     		ldr	r3, [r3]
 5146 0338 01AA     		add	r2, sp, #4
 5147 033a 0A21     		movs	r1, #10
 5148              	.LVL431:
 350:Core/Inc/ros/ros/node_handle.h ****     rt_time = hardware_.time();
 5149              		.loc 9 350 12 view .LVU1526
 5150 033c 2046     		mov	r0, r4
 5151 033e 9847     		blx	r3
 5152              	.LVL432:
 5153              	.LBB597:
 5154              	.LBI597:
 5155              		.loc 10 123 19 is_stmt 1 view .LVU1527
 5156              	.LBB598:
 5157              		.loc 10 123 27 view .LVU1528
 5158              		.loc 10 123 45 is_stmt 0 view .LVU1529
 5159 0340 FFF7FEFF 		bl	HAL_GetTick
 5160              	.LVL433:
 5161              		.loc 10 123 48 is_stmt 1 view .LVU1530
 5162              		.loc 10 123 48 is_stmt 0 view .LVU1531
 5163              	.LBE598:
 5164              	.LBE597:
 351:Core/Inc/ros/ros/node_handle.h ****   }
 5165              		.loc 9 351 13 view .LVU1532
 5166 0344 C4F81404 		str	r0, [r4, #1044]
 5167              	.LVL434:
 351:Core/Inc/ros/ros/node_handle.h ****   }
 5168              		.loc 9 351 13 view .LVU1533
ARM GAS  /tmp/ccaSmKi1.s 			page 141


 5169              	.LBE588:
 5170              	.LBE587:
 330:Core/Inc/ros/ros/node_handle.h ****     }
 5171              		.loc 9 330 22 view .LVU1534
 5172 0348 C4F80469 		str	r6, [r4, #2308]
 333:Core/Inc/ros/ros/node_handle.h ****   }
 5173              		.loc 9 333 12 view .LVU1535
 5174 034c 2846     		mov	r0, r5
 5175 034e 01E0     		b	.L230
 5176              	.L254:
 5177              	.LBB599:
 218:Core/Inc/ros/ros/node_handle.h ****         }
 5178              		.loc 9 218 18 view .LVU1536
 5179 0350 6FF00100 		mvn	r0, #1
 5180              	.L230:
 218:Core/Inc/ros/ros/node_handle.h ****         }
 5181              		.loc 9 218 18 view .LVU1537
 5182              	.LBE599:
 334:Core/Inc/ros/ros/node_handle.h **** 
 5183              		.loc 9 334 3 view .LVU1538
 5184 0354 05B0     		add	sp, sp, #20
 5185              	.LCFI29:
 5186              		.cfi_remember_state
 5187              		.cfi_def_cfa_offset 28
 5188              		@ sp needed
 5189 0356 BDE8F083 		pop	{r4, r5, r6, r7, r8, r9, pc}
 5190              	.LVL435:
 5191              	.L256:
 5192              	.LCFI30:
 5193              		.cfi_restore_state
 333:Core/Inc/ros/ros/node_handle.h ****   }
 5194              		.loc 9 333 12 view .LVU1539
 5195 035a 0020     		movs	r0, #0
 5196 035c FAE7     		b	.L230
 5197              	.L274:
 5198 035e 00BF     		.align	2
 5199              	.L273:
 5200 0360 08000000 		.word	_ZTVN3ros3MsgE+8
 5201 0364 08000000 		.word	_ZTVN8std_msgs4TimeE+8
 5202 0368 D34D6210 		.word	274877907
 5203 036c 00CA9A3B 		.word	1000000000
 5204 0370 40420F00 		.word	1000000
 5205              		.cfi_endproc
 5206              	.LFE570:
 5208              		.global	__aeabi_f2d
 5209              		.global	__aeabi_dmul
 5210              		.global	__aeabi_ddiv
 5211              		.global	__aeabi_d2f
 5212              		.section	.text.run,"ax",%progbits
 5213              		.align	1
 5214              		.global	run
 5215              		.syntax unified
 5216              		.thumb
 5217              		.thumb_func
 5218              		.fpu fpv4-sp-d16
 5220              	run:
 5221              	.LFB557:
ARM GAS  /tmp/ccaSmKi1.s 			page 142


  43:Core/Src/operation.cpp **** {
 5222              		.loc 8 43 1 is_stmt 1 view -0
 5223              		.cfi_startproc
 5224              		@ args = 0, pretend = 0, frame = 0
 5225              		@ frame_needed = 0, uses_anonymous_args = 0
 5226 0000 F8B5     		push	{r3, r4, r5, r6, r7, lr}
 5227              	.LCFI31:
 5228              		.cfi_def_cfa_offset 24
 5229              		.cfi_offset 3, -24
 5230              		.cfi_offset 4, -20
 5231              		.cfi_offset 5, -16
 5232              		.cfi_offset 6, -12
 5233              		.cfi_offset 7, -8
 5234              		.cfi_offset 14, -4
  44:Core/Src/operation.cpp ****  for(int i=0;i<4;i++)
 5235              		.loc 8 44 2 view .LVU1541
 5236              	.LVL436:
 5237              	.LBB615:
  44:Core/Src/operation.cpp ****  for(int i=0;i<4;i++)
 5238              		.loc 8 44 10 is_stmt 0 view .LVU1542
 5239 0002 0023     		movs	r3, #0
 5240 0004 16E0     		b	.L277
 5241              	.LVL437:
 5242              	.L283:
  46:Core/Src/operation.cpp ****   encoder_count.quad[i]=encoder_[i].get_count();
 5243              		.loc 8 46 3 is_stmt 1 discriminator 2 view .LVU1543
 5244              	.LBB616:
 5245              	.LBI616:
 5246              		.file 15 "Core/Inc/actuator/encoder.h"
   1:Core/Inc/actuator/encoder.h **** #ifndef _ENCODER_H_
   2:Core/Inc/actuator/encoder.h **** #define _ENCODER_H_
   3:Core/Inc/actuator/encoder.h **** #include"tim.h"
   4:Core/Inc/actuator/encoder.h **** #include"gpio.h"
   5:Core/Inc/actuator/encoder.h **** class encoder
   6:Core/Inc/actuator/encoder.h **** {
   7:Core/Inc/actuator/encoder.h **** private:
   8:Core/Inc/actuator/encoder.h ****     TIM_HandleTypeDef *henc;
   9:Core/Inc/actuator/encoder.h ****     int16_t count;
  10:Core/Inc/actuator/encoder.h **** public:
  11:Core/Inc/actuator/encoder.h ****     encoder() 
  12:Core/Inc/actuator/encoder.h ****     {  
  13:Core/Inc/actuator/encoder.h ****         count=0;
  14:Core/Inc/actuator/encoder.h ****     }
  15:Core/Inc/actuator/encoder.h ****     encoder(encoder &&) = default;
  16:Core/Inc/actuator/encoder.h ****     encoder(const encoder &) = default;
  17:Core/Inc/actuator/encoder.h ****     encoder &operator=(encoder &&) = default;
  18:Core/Inc/actuator/encoder.h ****     encoder &operator=(const encoder &) = default;
  19:Core/Inc/actuator/encoder.h ****     ~encoder() {}
  20:Core/Inc/actuator/encoder.h ****     void set_TimerHandle(TIM_HandleTypeDef *henc_){henc=henc_;}
  21:Core/Inc/actuator/encoder.h ****     TIM_HandleTypeDef* get_TimerHandle(){return henc;}
  22:Core/Inc/actuator/encoder.h ****     int16_t get_count()
 5247              		.loc 15 22 13 discriminator 2 view .LVU1544
 5248              	.LBB617:
  23:Core/Inc/actuator/encoder.h ****        {	
  24:Core/Inc/actuator/encoder.h ****         count=(int16_t)henc->Instance->CNT;
 5249              		.loc 15 24 9 discriminator 2 view .LVU1545
 5250              		.loc 15 24 24 is_stmt 0 discriminator 2 view .LVU1546
ARM GAS  /tmp/ccaSmKi1.s 			page 143


 5251 0006 544A     		ldr	r2, .L284+8
 5252 0008 52F83310 		ldr	r1, [r2, r3, lsl #3]
 5253              		.loc 15 24 30 discriminator 2 view .LVU1547
 5254 000c 0868     		ldr	r0, [r1]
 5255              		.loc 15 24 40 discriminator 2 view .LVU1548
 5256 000e 406A     		ldr	r0, [r0, #36]
 5257              		.loc 15 24 14 discriminator 2 view .LVU1549
 5258 0010 02EBC302 		add	r2, r2, r3, lsl #3
 5259              	.LVL438:
 5260              		.loc 15 24 14 discriminator 2 view .LVU1550
 5261 0014 9080     		strh	r0, [r2, #4]	@ movhi
  25:Core/Inc/actuator/encoder.h ****         henc->Instance->CNT=0;
 5262              		.loc 15 25 9 is_stmt 1 discriminator 2 view .LVU1551
 5263              		.loc 15 25 15 is_stmt 0 discriminator 2 view .LVU1552
 5264 0016 0968     		ldr	r1, [r1]
 5265              		.loc 15 25 28 discriminator 2 view .LVU1553
 5266 0018 0020     		movs	r0, #0
 5267 001a 4862     		str	r0, [r1, #36]
  26:Core/Inc/actuator/encoder.h **** 	    return count;
 5268              		.loc 15 26 6 is_stmt 1 discriminator 2 view .LVU1554
 5269              		.loc 15 26 13 is_stmt 0 discriminator 2 view .LVU1555
 5270 001c B2F90420 		ldrsh	r2, [r2, #4]
 5271              	.LVL439:
 5272              		.loc 15 26 13 discriminator 2 view .LVU1556
 5273 0020 07EE902A 		vmov	s15, r2	@ int
 5274              	.LVL440:
 5275              		.loc 15 26 13 discriminator 2 view .LVU1557
 5276              	.LBE617:
 5277              	.LBE616:
  46:Core/Src/operation.cpp ****   encoder_count.quad[i]=encoder_[i].get_count();
 5278              		.loc 8 46 24 discriminator 2 view .LVU1558
 5279 0024 4D4A     		ldr	r2, .L284+12
 5280 0026 02EB8302 		add	r2, r2, r3, lsl #2
 5281 002a F8EEE77A 		vcvt.f32.s32	s15, s15
 5282 002e C2ED017A 		vstr.32	s15, [r2, #4]
  44:Core/Src/operation.cpp ****  for(int i=0;i<4;i++)
 5283              		.loc 8 44 2 is_stmt 1 discriminator 2 view .LVU1559
 5284 0032 0133     		adds	r3, r3, #1
 5285              	.LVL441:
 5286              	.L277:
  44:Core/Src/operation.cpp ****  for(int i=0;i<4;i++)
 5287              		.loc 8 44 15 discriminator 3 view .LVU1560
 5288 0034 032B     		cmp	r3, #3
 5289 0036 E6DD     		ble	.L283
 5290              	.LBE615:
  48:Core/Src/operation.cpp ****   free_wheel_e.dual[0]=ex.get_distance();
 5291              		.loc 8 48 3 view .LVU1561
 5292              	.LVL442:
 5293              	.LBB618:
 5294              	.LBI618:
 5295              		.file 16 "Core/Inc/actuator/free_wheel.h"
   1:Core/Inc/actuator/free_wheel.h **** #ifndef _FREE_WHEEL_H_
   2:Core/Inc/actuator/free_wheel.h **** #define _FREE_WHEEL_H_
   3:Core/Inc/actuator/free_wheel.h **** #include"gpio.h"
   4:Core/Inc/actuator/free_wheel.h **** struct free_wheel_config
   5:Core/Inc/actuator/free_wheel.h **** {
   6:Core/Inc/actuator/free_wheel.h **** 
ARM GAS  /tmp/ccaSmKi1.s 			page 144


   7:Core/Inc/actuator/free_wheel.h ****     GPIO_TypeDef *port;
   8:Core/Inc/actuator/free_wheel.h ****     uint16_t pin;
   9:Core/Inc/actuator/free_wheel.h ****     int32_t count;
  10:Core/Inc/actuator/free_wheel.h ****     float radius;
  11:Core/Inc/actuator/free_wheel.h ****     float ppr;
  12:Core/Inc/actuator/free_wheel.h ****     char id;
  13:Core/Inc/actuator/free_wheel.h **** };
  14:Core/Inc/actuator/free_wheel.h **** class free_wheel
  15:Core/Inc/actuator/free_wheel.h **** {
  16:Core/Inc/actuator/free_wheel.h **** private:
  17:Core/Inc/actuator/free_wheel.h **** free_wheel_config *config;
  18:Core/Inc/actuator/free_wheel.h **** float ds;
  19:Core/Inc/actuator/free_wheel.h **** public:
  20:Core/Inc/actuator/free_wheel.h ****     free_wheel() 
  21:Core/Inc/actuator/free_wheel.h ****     {  config=new free_wheel_config;
  22:Core/Inc/actuator/free_wheel.h ****     }
  23:Core/Inc/actuator/free_wheel.h ****     free_wheel(free_wheel &&) = default;
  24:Core/Inc/actuator/free_wheel.h ****     free_wheel(const free_wheel &) = default;
  25:Core/Inc/actuator/free_wheel.h ****     free_wheel &operator=(free_wheel &&) = default;
  26:Core/Inc/actuator/free_wheel.h ****     free_wheel &operator=(const free_wheel&) = default;
  27:Core/Inc/actuator/free_wheel.h ****     ~free_wheel() {}
  28:Core/Inc/actuator/free_wheel.h ****     void set_config(free_wheel_config *config)
  29:Core/Inc/actuator/free_wheel.h ****     {
  30:Core/Inc/actuator/free_wheel.h ****         this->config=config;
  31:Core/Inc/actuator/free_wheel.h ****     }
  32:Core/Inc/actuator/free_wheel.h ****     int16_t get_count()
  33:Core/Inc/actuator/free_wheel.h ****        {	
  34:Core/Inc/actuator/free_wheel.h ****          if (HAL_GPIO_ReadPin(config->port, config->pin) != GPIO_PIN_RESET) {
  35:Core/Inc/actuator/free_wheel.h ****                 ++config->count;
  36:Core/Inc/actuator/free_wheel.h ****         } else {
  37:Core/Inc/actuator/free_wheel.h ****                 --config->count;
  38:Core/Inc/actuator/free_wheel.h ****         }
  39:Core/Inc/actuator/free_wheel.h **** 
  40:Core/Inc/actuator/free_wheel.h ****         return config->count;
  41:Core/Inc/actuator/free_wheel.h ****     }
  42:Core/Inc/actuator/free_wheel.h ****     float get_distance()
 5296              		.loc 16 42 11 view .LVU1562
 5297              	.LBB619:
  43:Core/Inc/actuator/free_wheel.h ****     {
  44:Core/Inc/actuator/free_wheel.h ****         get_count();
 5298              		.loc 16 44 9 view .LVU1563
 5299              	.LBB620:
 5300              	.LBI620:
  32:Core/Inc/actuator/free_wheel.h ****        {	
 5301              		.loc 16 32 13 view .LVU1564
 5302              	.LBB621:
  34:Core/Inc/actuator/free_wheel.h ****                 ++config->count;
 5303              		.loc 16 34 10 view .LVU1565
  34:Core/Inc/actuator/free_wheel.h ****                 ++config->count;
 5304              		.loc 16 34 31 is_stmt 0 view .LVU1566
 5305 0038 494B     		ldr	r3, .L284+16
 5306              	.LVL443:
  34:Core/Inc/actuator/free_wheel.h ****                 ++config->count;
 5307              		.loc 16 34 31 view .LVU1567
 5308 003a 1B68     		ldr	r3, [r3]
  34:Core/Inc/actuator/free_wheel.h ****                 ++config->count;
 5309              		.loc 16 34 30 view .LVU1568
ARM GAS  /tmp/ccaSmKi1.s 			page 145


 5310 003c 9988     		ldrh	r1, [r3, #4]
 5311 003e 1868     		ldr	r0, [r3]
 5312 0040 FFF7FEFF 		bl	HAL_GPIO_ReadPin
 5313              	.LVL444:
  34:Core/Inc/actuator/free_wheel.h ****                 ++config->count;
 5314              		.loc 16 34 10 view .LVU1569
 5315 0044 0028     		cmp	r0, #0
 5316 0046 74D0     		beq	.L278
  35:Core/Inc/actuator/free_wheel.h ****         } else {
 5317              		.loc 16 35 17 is_stmt 1 view .LVU1570
  35:Core/Inc/actuator/free_wheel.h ****         } else {
 5318              		.loc 16 35 19 is_stmt 0 view .LVU1571
 5319 0048 454B     		ldr	r3, .L284+16
 5320 004a 1A68     		ldr	r2, [r3]
  35:Core/Inc/actuator/free_wheel.h ****         } else {
 5321              		.loc 16 35 27 view .LVU1572
 5322 004c 9368     		ldr	r3, [r2, #8]
  35:Core/Inc/actuator/free_wheel.h ****         } else {
 5323              		.loc 16 35 17 view .LVU1573
 5324 004e 0133     		adds	r3, r3, #1
 5325 0050 9360     		str	r3, [r2, #8]
 5326              	.L279:
  40:Core/Inc/actuator/free_wheel.h ****     }
 5327              		.loc 16 40 9 is_stmt 1 view .LVU1574
 5328              	.LVL445:
  40:Core/Inc/actuator/free_wheel.h ****     }
 5329              		.loc 16 40 9 is_stmt 0 view .LVU1575
 5330              	.LBE621:
 5331              	.LBE620:
  45:Core/Inc/actuator/free_wheel.h ****         ds=config->count*config->radius*2*3.1415926/config->ppr;
 5332              		.loc 16 45 9 is_stmt 1 view .LVU1576
 5333              		.loc 16 45 12 is_stmt 0 view .LVU1577
 5334 0052 434D     		ldr	r5, .L284+16
 5335 0054 2C68     		ldr	r4, [r5]
 5336              		.loc 16 45 34 view .LVU1578
 5337 0056 94ED037A 		vldr.32	s14, [r4, #12]
 5338              		.loc 16 45 25 view .LVU1579
 5339 005a D4ED027A 		vldr.32	s15, [r4, #8]	@ int
 5340 005e F8EEE77A 		vcvt.f32.s32	s15, s15
 5341 0062 67EE877A 		vmul.f32	s15, s15, s14
 5342              		.loc 16 45 40 view .LVU1580
 5343 0066 77EEA77A 		vadd.f32	s15, s15, s15
 5344 006a 17EE900A 		vmov	r0, s15
 5345 006e FFF7FEFF 		bl	__aeabi_f2d
 5346              	.LVL446:
 5347              		.loc 16 45 42 view .LVU1581
 5348 0072 37A3     		adr	r3, .L284
 5349 0074 D3E90023 		ldrd	r2, [r3]
 5350 0078 FFF7FEFF 		bl	__aeabi_dmul
 5351              	.LVL447:
 5352 007c 0646     		mov	r6, r0
 5353 007e 0F46     		mov	r7, r1
 5354              		.loc 16 45 61 view .LVU1582
 5355 0080 2069     		ldr	r0, [r4, #16]	@ float
 5356 0082 FFF7FEFF 		bl	__aeabi_f2d
 5357              	.LVL448:
 5358 0086 0246     		mov	r2, r0
ARM GAS  /tmp/ccaSmKi1.s 			page 146


 5359 0088 0B46     		mov	r3, r1
 5360              		.loc 16 45 52 view .LVU1583
 5361 008a 3046     		mov	r0, r6
 5362 008c 3946     		mov	r1, r7
 5363 008e FFF7FEFF 		bl	__aeabi_ddiv
 5364              	.LVL449:
 5365 0092 FFF7FEFF 		bl	__aeabi_d2f
 5366              	.LVL450:
 5367              		.loc 16 45 11 view .LVU1584
 5368 0096 6860     		str	r0, [r5, #4]	@ float
  46:Core/Inc/actuator/free_wheel.h ****         config->count=0;
 5369              		.loc 16 46 9 is_stmt 1 view .LVU1585
 5370              		.loc 16 46 22 is_stmt 0 view .LVU1586
 5371 0098 0023     		movs	r3, #0
 5372 009a A360     		str	r3, [r4, #8]
  47:Core/Inc/actuator/free_wheel.h ****         return ds;
 5373              		.loc 16 47 9 is_stmt 1 view .LVU1587
 5374              	.LVL451:
 5375              		.loc 16 47 9 is_stmt 0 view .LVU1588
 5376              	.LBE619:
 5377              	.LBE618:
  48:Core/Src/operation.cpp ****   free_wheel_e.dual[0]=ex.get_distance();
 5378              		.loc 8 48 23 view .LVU1589
 5379 009c 314B     		ldr	r3, .L284+20
 5380 009e 5860     		str	r0, [r3, #4]	@ float
  49:Core/Src/operation.cpp ****   free_wheel_e.dual[1]=ey.get_distance();
 5381              		.loc 8 49 3 is_stmt 1 view .LVU1590
 5382              	.LVL452:
 5383              	.LBB625:
 5384              	.LBI625:
  42:Core/Inc/actuator/free_wheel.h ****     {
 5385              		.loc 16 42 11 view .LVU1591
 5386              	.LBB626:
  44:Core/Inc/actuator/free_wheel.h ****         ds=config->count*config->radius*2*3.1415926/config->ppr;
 5387              		.loc 16 44 9 view .LVU1592
 5388              	.LBB627:
 5389              	.LBI627:
  32:Core/Inc/actuator/free_wheel.h ****        {	
 5390              		.loc 16 32 13 view .LVU1593
 5391              	.LBB628:
  34:Core/Inc/actuator/free_wheel.h ****                 ++config->count;
 5392              		.loc 16 34 10 view .LVU1594
  34:Core/Inc/actuator/free_wheel.h ****                 ++config->count;
 5393              		.loc 16 34 31 is_stmt 0 view .LVU1595
 5394 00a0 314B     		ldr	r3, .L284+24
 5395 00a2 1B68     		ldr	r3, [r3]
  34:Core/Inc/actuator/free_wheel.h ****                 ++config->count;
 5396              		.loc 16 34 30 view .LVU1596
 5397 00a4 9988     		ldrh	r1, [r3, #4]
 5398 00a6 1868     		ldr	r0, [r3]
 5399 00a8 FFF7FEFF 		bl	HAL_GPIO_ReadPin
 5400              	.LVL453:
  34:Core/Inc/actuator/free_wheel.h ****                 ++config->count;
 5401              		.loc 16 34 10 view .LVU1597
 5402 00ac 0028     		cmp	r0, #0
 5403 00ae 46D0     		beq	.L280
  35:Core/Inc/actuator/free_wheel.h ****         } else {
ARM GAS  /tmp/ccaSmKi1.s 			page 147


 5404              		.loc 16 35 17 is_stmt 1 view .LVU1598
  35:Core/Inc/actuator/free_wheel.h ****         } else {
 5405              		.loc 16 35 19 is_stmt 0 view .LVU1599
 5406 00b0 2D4B     		ldr	r3, .L284+24
 5407 00b2 1A68     		ldr	r2, [r3]
  35:Core/Inc/actuator/free_wheel.h ****         } else {
 5408              		.loc 16 35 27 view .LVU1600
 5409 00b4 9368     		ldr	r3, [r2, #8]
  35:Core/Inc/actuator/free_wheel.h ****         } else {
 5410              		.loc 16 35 17 view .LVU1601
 5411 00b6 0133     		adds	r3, r3, #1
 5412 00b8 9360     		str	r3, [r2, #8]
 5413              	.L281:
  40:Core/Inc/actuator/free_wheel.h ****     }
 5414              		.loc 16 40 9 is_stmt 1 view .LVU1602
 5415              	.LVL454:
  40:Core/Inc/actuator/free_wheel.h ****     }
 5416              		.loc 16 40 9 is_stmt 0 view .LVU1603
 5417              	.LBE628:
 5418              	.LBE627:
  45:Core/Inc/actuator/free_wheel.h ****         config->count=0;
 5419              		.loc 16 45 9 is_stmt 1 view .LVU1604
  45:Core/Inc/actuator/free_wheel.h ****         config->count=0;
 5420              		.loc 16 45 12 is_stmt 0 view .LVU1605
 5421 00ba 2B4D     		ldr	r5, .L284+24
 5422 00bc 2C68     		ldr	r4, [r5]
  45:Core/Inc/actuator/free_wheel.h ****         config->count=0;
 5423              		.loc 16 45 34 view .LVU1606
 5424 00be 94ED037A 		vldr.32	s14, [r4, #12]
  45:Core/Inc/actuator/free_wheel.h ****         config->count=0;
 5425              		.loc 16 45 25 view .LVU1607
 5426 00c2 D4ED027A 		vldr.32	s15, [r4, #8]	@ int
 5427 00c6 F8EEE77A 		vcvt.f32.s32	s15, s15
 5428 00ca 67EE877A 		vmul.f32	s15, s15, s14
  45:Core/Inc/actuator/free_wheel.h ****         config->count=0;
 5429              		.loc 16 45 40 view .LVU1608
 5430 00ce 77EEA77A 		vadd.f32	s15, s15, s15
 5431 00d2 17EE900A 		vmov	r0, s15
 5432 00d6 FFF7FEFF 		bl	__aeabi_f2d
 5433              	.LVL455:
  45:Core/Inc/actuator/free_wheel.h ****         config->count=0;
 5434              		.loc 16 45 42 view .LVU1609
 5435 00da 1DA3     		adr	r3, .L284
 5436 00dc D3E90023 		ldrd	r2, [r3]
 5437 00e0 FFF7FEFF 		bl	__aeabi_dmul
 5438              	.LVL456:
 5439 00e4 0646     		mov	r6, r0
 5440 00e6 0F46     		mov	r7, r1
  45:Core/Inc/actuator/free_wheel.h ****         config->count=0;
 5441              		.loc 16 45 61 view .LVU1610
 5442 00e8 2069     		ldr	r0, [r4, #16]	@ float
 5443 00ea FFF7FEFF 		bl	__aeabi_f2d
 5444              	.LVL457:
 5445 00ee 0246     		mov	r2, r0
 5446 00f0 0B46     		mov	r3, r1
  45:Core/Inc/actuator/free_wheel.h ****         config->count=0;
 5447              		.loc 16 45 52 view .LVU1611
ARM GAS  /tmp/ccaSmKi1.s 			page 148


 5448 00f2 3046     		mov	r0, r6
 5449 00f4 3946     		mov	r1, r7
 5450 00f6 FFF7FEFF 		bl	__aeabi_ddiv
 5451              	.LVL458:
 5452 00fa FFF7FEFF 		bl	__aeabi_d2f
 5453              	.LVL459:
  45:Core/Inc/actuator/free_wheel.h ****         config->count=0;
 5454              		.loc 16 45 11 view .LVU1612
 5455 00fe 6860     		str	r0, [r5, #4]	@ float
  46:Core/Inc/actuator/free_wheel.h ****         return ds;
 5456              		.loc 16 46 9 is_stmt 1 view .LVU1613
  46:Core/Inc/actuator/free_wheel.h ****         return ds;
 5457              		.loc 16 46 22 is_stmt 0 view .LVU1614
 5458 0100 0023     		movs	r3, #0
 5459 0102 A360     		str	r3, [r4, #8]
 5460              		.loc 16 47 9 is_stmt 1 view .LVU1615
 5461              	.LVL460:
 5462              		.loc 16 47 9 is_stmt 0 view .LVU1616
 5463              	.LBE626:
 5464              	.LBE625:
  49:Core/Src/operation.cpp ****   free_wheel_e.dual[1]=ey.get_distance();
 5465              		.loc 8 49 23 view .LVU1617
 5466 0104 174C     		ldr	r4, .L284+20
 5467 0106 A060     		str	r0, [r4, #8]	@ float
  50:Core/Src/operation.cpp ****   pub1.publish(&encoder_count);
 5468              		.loc 8 50 3 is_stmt 1 view .LVU1618
 5469              	.LVL461:
 5470              	.LBB632:
 5471              	.LBI632:
  53:Core/Inc/ros/ros/publisher.h ****   {
 5472              		.loc 12 53 7 view .LVU1619
 5473              	.LBB633:
  55:Core/Inc/ros/ros/publisher.h ****   };
 5474              		.loc 12 55 5 view .LVU1620
  55:Core/Inc/ros/ros/publisher.h ****   };
 5475              		.loc 12 55 12 is_stmt 0 view .LVU1621
 5476 0108 184B     		ldr	r3, .L284+28
 5477 010a D868     		ldr	r0, [r3, #12]
  55:Core/Inc/ros/ros/publisher.h ****   };
 5478              		.loc 12 55 33 view .LVU1622
 5479 010c 0268     		ldr	r2, [r0]
 5480 010e 1568     		ldr	r5, [r2]
  55:Core/Inc/ros/ros/publisher.h ****   };
 5481              		.loc 12 55 24 view .LVU1623
 5482 0110 124A     		ldr	r2, .L284+12
 5483 0112 9968     		ldr	r1, [r3, #8]
 5484 0114 A847     		blx	r5
 5485              	.LVL462:
  55:Core/Inc/ros/ros/publisher.h ****   };
 5486              		.loc 12 55 24 view .LVU1624
 5487              	.LBE633:
 5488              	.LBE632:
  51:Core/Src/operation.cpp ****   pub2.publish(&free_wheel_e);
 5489              		.loc 8 51 3 is_stmt 1 view .LVU1625
 5490              	.LBB634:
 5491              	.LBI634:
  53:Core/Inc/ros/ros/publisher.h ****   {
ARM GAS  /tmp/ccaSmKi1.s 			page 149


 5492              		.loc 12 53 7 view .LVU1626
 5493              	.LBB635:
  55:Core/Inc/ros/ros/publisher.h ****   };
 5494              		.loc 12 55 5 view .LVU1627
  55:Core/Inc/ros/ros/publisher.h ****   };
 5495              		.loc 12 55 12 is_stmt 0 view .LVU1628
 5496 0116 164B     		ldr	r3, .L284+32
 5497 0118 D868     		ldr	r0, [r3, #12]
  55:Core/Inc/ros/ros/publisher.h ****   };
 5498              		.loc 12 55 33 view .LVU1629
 5499 011a 0268     		ldr	r2, [r0]
 5500 011c 1568     		ldr	r5, [r2]
  55:Core/Inc/ros/ros/publisher.h ****   };
 5501              		.loc 12 55 24 view .LVU1630
 5502 011e 2246     		mov	r2, r4
 5503 0120 9968     		ldr	r1, [r3, #8]
 5504 0122 A847     		blx	r5
 5505              	.LVL463:
  55:Core/Inc/ros/ros/publisher.h ****   };
 5506              		.loc 12 55 24 view .LVU1631
 5507              	.LBE635:
 5508              	.LBE634:
  52:Core/Src/operation.cpp ****   nh.spinOnce();
 5509              		.loc 8 52 3 is_stmt 1 view .LVU1632
  52:Core/Src/operation.cpp ****   nh.spinOnce();
 5510              		.loc 8 52 14 is_stmt 0 view .LVU1633
 5511 0124 1348     		ldr	r0, .L284+36
 5512 0126 FFF7FEFF 		bl	_ZN3ros11NodeHandle_I13STM32HardwareLi25ELi25ELi512ELi512EE8spinOnceEv
 5513              	.LVL464:
  53:Core/Src/operation.cpp ****   HAL_Delay(10);
 5514              		.loc 8 53 3 is_stmt 1 view .LVU1634
  53:Core/Src/operation.cpp ****   HAL_Delay(10);
 5515              		.loc 8 53 12 is_stmt 0 view .LVU1635
 5516 012a 0A20     		movs	r0, #10
 5517 012c FFF7FEFF 		bl	HAL_Delay
 5518              	.LVL465:
 5519              		.loc 8 54 1 view .LVU1636
 5520 0130 F8BD     		pop	{r3, r4, r5, r6, r7, pc}
 5521              	.LVL466:
 5522              	.L278:
 5523              	.LBB636:
 5524              	.LBB624:
 5525              	.LBB623:
 5526              	.LBB622:
  37:Core/Inc/actuator/free_wheel.h ****         }
 5527              		.loc 16 37 17 is_stmt 1 view .LVU1637
  37:Core/Inc/actuator/free_wheel.h ****         }
 5528              		.loc 16 37 19 is_stmt 0 view .LVU1638
 5529 0132 0B4B     		ldr	r3, .L284+16
 5530 0134 1A68     		ldr	r2, [r3]
  37:Core/Inc/actuator/free_wheel.h ****         }
 5531              		.loc 16 37 27 view .LVU1639
 5532 0136 9368     		ldr	r3, [r2, #8]
  37:Core/Inc/actuator/free_wheel.h ****         }
 5533              		.loc 16 37 17 view .LVU1640
 5534 0138 013B     		subs	r3, r3, #1
 5535 013a 9360     		str	r3, [r2, #8]
ARM GAS  /tmp/ccaSmKi1.s 			page 150


 5536 013c 89E7     		b	.L279
 5537              	.LVL467:
 5538              	.L280:
  37:Core/Inc/actuator/free_wheel.h ****         }
 5539              		.loc 16 37 17 view .LVU1641
 5540              	.LBE622:
 5541              	.LBE623:
 5542              	.LBE624:
 5543              	.LBE636:
 5544              	.LBB637:
 5545              	.LBB631:
 5546              	.LBB630:
 5547              	.LBB629:
  37:Core/Inc/actuator/free_wheel.h ****         }
 5548              		.loc 16 37 17 is_stmt 1 view .LVU1642
  37:Core/Inc/actuator/free_wheel.h ****         }
 5549              		.loc 16 37 19 is_stmt 0 view .LVU1643
 5550 013e 0A4B     		ldr	r3, .L284+24
 5551 0140 1A68     		ldr	r2, [r3]
  37:Core/Inc/actuator/free_wheel.h ****         }
 5552              		.loc 16 37 27 view .LVU1644
 5553 0142 9368     		ldr	r3, [r2, #8]
  37:Core/Inc/actuator/free_wheel.h ****         }
 5554              		.loc 16 37 17 view .LVU1645
 5555 0144 013B     		subs	r3, r3, #1
 5556 0146 9360     		str	r3, [r2, #8]
 5557 0148 B7E7     		b	.L281
 5558              	.L285:
 5559 014a 00BFAFF3 		.align	3
 5559      0080
 5560              	.L284:
 5561 0150 4AD8124D 		.word	1293080650
 5562 0154 FB210940 		.word	1074340347
 5563 0158 00000000 		.word	encoder_
 5564 015c 00000000 		.word	.LANCHOR1
 5565 0160 00000000 		.word	ex
 5566 0164 00000000 		.word	.LANCHOR2
 5567 0168 00000000 		.word	ey
 5568 016c 00000000 		.word	.LANCHOR4
 5569 0170 00000000 		.word	.LANCHOR5
 5570 0174 00000000 		.word	.LANCHOR3
 5571              	.LBE629:
 5572              	.LBE630:
 5573              	.LBE631:
 5574              	.LBE637:
 5575              		.cfi_endproc
 5576              	.LFE557:
 5578              		.section	.text._GLOBAL__sub_I_nh,"ax",%progbits
 5579              		.align	1
 5580              		.syntax unified
 5581              		.thumb
 5582              		.thumb_func
 5583              		.fpu fpv4-sp-d16
 5585              	_GLOBAL__sub_I_nh:
 5586              	.LFB584:
 5587              		.loc 8 54 1 is_stmt 1 view -0
 5588              		.cfi_startproc
ARM GAS  /tmp/ccaSmKi1.s 			page 151


 5589              		@ args = 0, pretend = 0, frame = 0
 5590              		@ frame_needed = 0, uses_anonymous_args = 0
 5591 0000 08B5     		push	{r3, lr}
 5592              	.LCFI32:
 5593              		.cfi_def_cfa_offset 8
 5594              		.cfi_offset 3, -8
 5595              		.cfi_offset 14, -4
 5596              		.loc 8 54 1 is_stmt 0 view .LVU1647
 5597 0002 4FF6FF71 		movw	r1, #65535
 5598 0006 0120     		movs	r0, #1
 5599 0008 FFF7FEFF 		bl	_Z41__static_initialization_and_destruction_0ii
 5600              	.LVL468:
 5601 000c 08BD     		pop	{r3, pc}
 5602              		.cfi_endproc
 5603              	.LFE584:
 5605              		.section	.init_array,"aw",%init_array
 5606              		.align	2
 5607 0000 00000000 		.word	_GLOBAL__sub_I_nh(target1)
 5608              		.weak	_ZTSN3ros3MsgE
 5609              		.section	.rodata._ZTSN3ros3MsgE,"aG",%progbits,_ZTSN3ros3MsgE,comdat
 5610              		.align	2
 5613              	_ZTSN3ros3MsgE:
 5614 0000 4E33726F 		.ascii	"N3ros3MsgE\000"
 5614      73334D73 
 5614      674500
 5615              		.weak	_ZTIN3ros3MsgE
 5616              		.section	.rodata._ZTIN3ros3MsgE,"aG",%progbits,_ZTIN3ros3MsgE,comdat
 5617              		.align	2
 5620              	_ZTIN3ros3MsgE:
 5621 0000 08000000 		.word	_ZTVN10__cxxabiv117__class_type_infoE+8
 5622 0004 00000000 		.word	_ZTSN3ros3MsgE
 5623              		.weak	_ZTSN9actuators18motor_driver_paramE
 5624              		.section	.rodata._ZTSN9actuators18motor_driver_paramE,"aG",%progbits,_ZTSN9actuators18motor_driver
 5625              		.align	2
 5628              	_ZTSN9actuators18motor_driver_paramE:
 5629 0000 4E396163 		.ascii	"N9actuators18motor_driver_paramE\000"
 5629      74756174 
 5629      6F727331 
 5629      386D6F74 
 5629      6F725F64 
 5630              		.weak	_ZTIN9actuators18motor_driver_paramE
 5631              		.section	.rodata._ZTIN9actuators18motor_driver_paramE,"aG",%progbits,_ZTIN9actuators18motor_driver
 5632              		.align	2
 5635              	_ZTIN9actuators18motor_driver_paramE:
 5636 0000 08000000 		.word	_ZTVN10__cxxabiv120__si_class_type_infoE+8
 5637 0004 00000000 		.word	_ZTSN9actuators18motor_driver_paramE
 5638 0008 00000000 		.word	_ZTIN3ros3MsgE
 5639              		.weak	_ZTSN8std_msgs4TimeE
 5640              		.section	.rodata._ZTSN8std_msgs4TimeE,"aG",%progbits,_ZTSN8std_msgs4TimeE,comdat
 5641              		.align	2
 5644              	_ZTSN8std_msgs4TimeE:
 5645 0000 4E387374 		.ascii	"N8std_msgs4TimeE\000"
 5645      645F6D73 
 5645      67733454 
 5645      696D6545 
 5645      00
 5646              		.weak	_ZTIN8std_msgs4TimeE
ARM GAS  /tmp/ccaSmKi1.s 			page 152


 5647              		.section	.rodata._ZTIN8std_msgs4TimeE,"aG",%progbits,_ZTIN8std_msgs4TimeE,comdat
 5648              		.align	2
 5651              	_ZTIN8std_msgs4TimeE:
 5652 0000 08000000 		.word	_ZTVN10__cxxabiv120__si_class_type_infoE+8
 5653 0004 00000000 		.word	_ZTSN8std_msgs4TimeE
 5654 0008 00000000 		.word	_ZTIN3ros3MsgE
 5655              		.weak	_ZTSN14rosserial_msgs9TopicInfoE
 5656              		.section	.rodata._ZTSN14rosserial_msgs9TopicInfoE,"aG",%progbits,_ZTSN14rosserial_msgs9TopicInfoE,
 5657              		.align	2
 5660              	_ZTSN14rosserial_msgs9TopicInfoE:
 5661 0000 4E313472 		.ascii	"N14rosserial_msgs9TopicInfoE\000"
 5661      6F737365 
 5661      7269616C 
 5661      5F6D7367 
 5661      7339546F 
 5662              		.weak	_ZTIN14rosserial_msgs9TopicInfoE
 5663              		.section	.rodata._ZTIN14rosserial_msgs9TopicInfoE,"aG",%progbits,_ZTIN14rosserial_msgs9TopicInfoE,
 5664              		.align	2
 5667              	_ZTIN14rosserial_msgs9TopicInfoE:
 5668 0000 08000000 		.word	_ZTVN10__cxxabiv120__si_class_type_infoE+8
 5669 0004 00000000 		.word	_ZTSN14rosserial_msgs9TopicInfoE
 5670 0008 00000000 		.word	_ZTIN3ros3MsgE
 5671              		.weak	_ZTSN14rosserial_msgs3LogE
 5672              		.section	.rodata._ZTSN14rosserial_msgs3LogE,"aG",%progbits,_ZTSN14rosserial_msgs3LogE,comdat
 5673              		.align	2
 5676              	_ZTSN14rosserial_msgs3LogE:
 5677 0000 4E313472 		.ascii	"N14rosserial_msgs3LogE\000"
 5677      6F737365 
 5677      7269616C 
 5677      5F6D7367 
 5677      73334C6F 
 5678              		.weak	_ZTIN14rosserial_msgs3LogE
 5679              		.section	.rodata._ZTIN14rosserial_msgs3LogE,"aG",%progbits,_ZTIN14rosserial_msgs3LogE,comdat
 5680              		.align	2
 5683              	_ZTIN14rosserial_msgs3LogE:
 5684 0000 08000000 		.word	_ZTVN10__cxxabiv120__si_class_type_infoE+8
 5685 0004 00000000 		.word	_ZTSN14rosserial_msgs3LogE
 5686 0008 00000000 		.word	_ZTIN3ros3MsgE
 5687              		.weak	_ZTSN14rosserial_msgs20RequestParamResponseE
 5688              		.section	.rodata._ZTSN14rosserial_msgs20RequestParamResponseE,"aG",%progbits,_ZTSN14rosserial_msgs
 5689              		.align	2
 5692              	_ZTSN14rosserial_msgs20RequestParamResponseE:
 5693 0000 4E313472 		.ascii	"N14rosserial_msgs20RequestParamResponseE\000"
 5693      6F737365 
 5693      7269616C 
 5693      5F6D7367 
 5693      73323052 
 5694              		.weak	_ZTIN14rosserial_msgs20RequestParamResponseE
 5695              		.section	.rodata._ZTIN14rosserial_msgs20RequestParamResponseE,"aG",%progbits,_ZTIN14rosserial_msgs
 5696              		.align	2
 5699              	_ZTIN14rosserial_msgs20RequestParamResponseE:
 5700 0000 08000000 		.word	_ZTVN10__cxxabiv120__si_class_type_infoE+8
 5701 0004 00000000 		.word	_ZTSN14rosserial_msgs20RequestParamResponseE
 5702 0008 00000000 		.word	_ZTIN3ros3MsgE
 5703              		.weak	_ZTSN3ros15NodeHandleBase_E
 5704              		.section	.rodata._ZTSN3ros15NodeHandleBase_E,"aG",%progbits,_ZTSN3ros15NodeHandleBase_E,comdat
 5705              		.align	2
ARM GAS  /tmp/ccaSmKi1.s 			page 153


 5708              	_ZTSN3ros15NodeHandleBase_E:
 5709 0000 4E33726F 		.ascii	"N3ros15NodeHandleBase_E\000"
 5709      7331354E 
 5709      6F646548 
 5709      616E646C 
 5709      65426173 
 5710              		.weak	_ZTIN3ros15NodeHandleBase_E
 5711              		.section	.rodata._ZTIN3ros15NodeHandleBase_E,"aG",%progbits,_ZTIN3ros15NodeHandleBase_E,comdat
 5712              		.align	2
 5715              	_ZTIN3ros15NodeHandleBase_E:
 5716 0000 08000000 		.word	_ZTVN10__cxxabiv117__class_type_infoE+8
 5717 0004 00000000 		.word	_ZTSN3ros15NodeHandleBase_E
 5718              		.weak	_ZTSN3ros11Subscriber_E
 5719              		.section	.rodata._ZTSN3ros11Subscriber_E,"aG",%progbits,_ZTSN3ros11Subscriber_E,comdat
 5720              		.align	2
 5723              	_ZTSN3ros11Subscriber_E:
 5724 0000 4E33726F 		.ascii	"N3ros11Subscriber_E\000"
 5724      73313153 
 5724      75627363 
 5724      72696265 
 5724      725F4500 
 5725              		.weak	_ZTIN3ros11Subscriber_E
 5726              		.section	.rodata._ZTIN3ros11Subscriber_E,"aG",%progbits,_ZTIN3ros11Subscriber_E,comdat
 5727              		.align	2
 5730              	_ZTIN3ros11Subscriber_E:
 5731 0000 08000000 		.word	_ZTVN10__cxxabiv117__class_type_infoE+8
 5732 0004 00000000 		.word	_ZTSN3ros11Subscriber_E
 5733              		.weak	_ZTSN9actuators7Vector4E
 5734              		.section	.rodata._ZTSN9actuators7Vector4E,"aG",%progbits,_ZTSN9actuators7Vector4E,comdat
 5735              		.align	2
 5738              	_ZTSN9actuators7Vector4E:
 5739 0000 4E396163 		.ascii	"N9actuators7Vector4E\000"
 5739      74756174 
 5739      6F727337 
 5739      56656374 
 5739      6F723445 
 5740              		.weak	_ZTIN9actuators7Vector4E
 5741              		.section	.rodata._ZTIN9actuators7Vector4E,"aG",%progbits,_ZTIN9actuators7Vector4E,comdat
 5742              		.align	2
 5745              	_ZTIN9actuators7Vector4E:
 5746 0000 08000000 		.word	_ZTVN10__cxxabiv120__si_class_type_infoE+8
 5747 0004 00000000 		.word	_ZTSN9actuators7Vector4E
 5748 0008 00000000 		.word	_ZTIN3ros3MsgE
 5749              		.weak	_ZTSN9actuators7Vector2E
 5750              		.section	.rodata._ZTSN9actuators7Vector2E,"aG",%progbits,_ZTSN9actuators7Vector2E,comdat
 5751              		.align	2
 5754              	_ZTSN9actuators7Vector2E:
 5755 0000 4E396163 		.ascii	"N9actuators7Vector2E\000"
 5755      74756174 
 5755      6F727337 
 5755      56656374 
 5755      6F723245 
 5756              		.weak	_ZTIN9actuators7Vector2E
 5757              		.section	.rodata._ZTIN9actuators7Vector2E,"aG",%progbits,_ZTIN9actuators7Vector2E,comdat
 5758              		.align	2
 5761              	_ZTIN9actuators7Vector2E:
 5762 0000 08000000 		.word	_ZTVN10__cxxabiv120__si_class_type_infoE+8
ARM GAS  /tmp/ccaSmKi1.s 			page 154


 5763 0004 00000000 		.word	_ZTSN9actuators7Vector2E
 5764 0008 00000000 		.word	_ZTIN3ros3MsgE
 5765              		.weak	_ZTSN3ros11NodeHandle_I13STM32HardwareLi25ELi25ELi512ELi512EEE
 5766              		.section	.rodata._ZTSN3ros11NodeHandle_I13STM32HardwareLi25ELi25ELi512ELi512EEE,"aG",%progbits,_ZT
 5767              		.align	2
 5770              	_ZTSN3ros11NodeHandle_I13STM32HardwareLi25ELi25ELi512ELi512EEE:
 5771 0000 4E33726F 		.ascii	"N3ros11NodeHandle_I13STM32HardwareLi25ELi25ELi512EL"
 5771      7331314E 
 5771      6F646548 
 5771      616E646C 
 5771      655F4931 
 5772 0033 69353132 		.ascii	"i512EEE\000"
 5772      45454500 
 5773              		.weak	_ZTIN3ros11NodeHandle_I13STM32HardwareLi25ELi25ELi512ELi512EEE
 5774              		.section	.rodata._ZTIN3ros11NodeHandle_I13STM32HardwareLi25ELi25ELi512ELi512EEE,"aG",%progbits,_ZT
 5775              		.align	2
 5778              	_ZTIN3ros11NodeHandle_I13STM32HardwareLi25ELi25ELi512ELi512EEE:
 5779 0000 08000000 		.word	_ZTVN10__cxxabiv120__si_class_type_infoE+8
 5780 0004 00000000 		.word	_ZTSN3ros11NodeHandle_I13STM32HardwareLi25ELi25ELi512ELi512EEE
 5781 0008 00000000 		.word	_ZTIN3ros15NodeHandleBase_E
 5782              		.weak	_ZTSN3ros10SubscriberIN9actuators18motor_driver_paramEvEE
 5783              		.section	.rodata._ZTSN3ros10SubscriberIN9actuators18motor_driver_paramEvEE,"aG",%progbits,_ZTSN3ro
 5784              		.align	2
 5787              	_ZTSN3ros10SubscriberIN9actuators18motor_driver_paramEvEE:
 5788 0000 4E33726F 		.ascii	"N3ros10SubscriberIN9actuators18motor_driver_paramEv"
 5788      73313053 
 5788      75627363 
 5788      72696265 
 5788      72494E39 
 5789 0033 454500   		.ascii	"EE\000"
 5790              		.weak	_ZTIN3ros10SubscriberIN9actuators18motor_driver_paramEvEE
 5791              		.section	.rodata._ZTIN3ros10SubscriberIN9actuators18motor_driver_paramEvEE,"aG",%progbits,_ZTIN3ro
 5792              		.align	2
 5795              	_ZTIN3ros10SubscriberIN9actuators18motor_driver_paramEvEE:
 5796 0000 08000000 		.word	_ZTVN10__cxxabiv120__si_class_type_infoE+8
 5797 0004 00000000 		.word	_ZTSN3ros10SubscriberIN9actuators18motor_driver_paramEvEE
 5798 0008 00000000 		.word	_ZTIN3ros11Subscriber_E
 5799              		.weak	_ZTVN3ros3MsgE
 5800              		.section	.rodata._ZTVN3ros3MsgE,"aG",%progbits,_ZTVN3ros3MsgE,comdat
 5801              		.align	2
 5804              	_ZTVN3ros3MsgE:
 5805 0000 00000000 		.word	0
 5806 0004 00000000 		.word	_ZTIN3ros3MsgE
 5807 0008 00000000 		.word	__cxa_pure_virtual
 5808 000c 00000000 		.word	__cxa_pure_virtual
 5809 0010 00000000 		.word	__cxa_pure_virtual
 5810 0014 00000000 		.word	__cxa_pure_virtual
 5811              		.weak	_ZTVN9actuators18motor_driver_paramE
 5812              		.section	.rodata._ZTVN9actuators18motor_driver_paramE,"aG",%progbits,_ZTVN9actuators18motor_driver
 5813              		.align	2
 5816              	_ZTVN9actuators18motor_driver_paramE:
 5817 0000 00000000 		.word	0
 5818 0004 00000000 		.word	_ZTIN9actuators18motor_driver_paramE
 5819 0008 00000000 		.word	_ZNK9actuators18motor_driver_param9serializeEPh
 5820 000c 00000000 		.word	_ZN9actuators18motor_driver_param11deserializeEPh
 5821 0010 00000000 		.word	_ZN9actuators18motor_driver_param7getTypeEv
 5822 0014 00000000 		.word	_ZN9actuators18motor_driver_param6getMD5Ev
ARM GAS  /tmp/ccaSmKi1.s 			page 155


 5823              		.weak	_ZTVN8std_msgs4TimeE
 5824              		.section	.rodata._ZTVN8std_msgs4TimeE,"aG",%progbits,_ZTVN8std_msgs4TimeE,comdat
 5825              		.align	2
 5828              	_ZTVN8std_msgs4TimeE:
 5829 0000 00000000 		.word	0
 5830 0004 00000000 		.word	_ZTIN8std_msgs4TimeE
 5831 0008 00000000 		.word	_ZNK8std_msgs4Time9serializeEPh
 5832 000c 00000000 		.word	_ZN8std_msgs4Time11deserializeEPh
 5833 0010 00000000 		.word	_ZN8std_msgs4Time7getTypeEv
 5834 0014 00000000 		.word	_ZN8std_msgs4Time6getMD5Ev
 5835              		.weak	_ZTVN14rosserial_msgs9TopicInfoE
 5836              		.section	.rodata._ZTVN14rosserial_msgs9TopicInfoE,"aG",%progbits,_ZTVN14rosserial_msgs9TopicInfoE,
 5837              		.align	2
 5840              	_ZTVN14rosserial_msgs9TopicInfoE:
 5841 0000 00000000 		.word	0
 5842 0004 00000000 		.word	_ZTIN14rosserial_msgs9TopicInfoE
 5843 0008 00000000 		.word	_ZNK14rosserial_msgs9TopicInfo9serializeEPh
 5844 000c 00000000 		.word	_ZN14rosserial_msgs9TopicInfo11deserializeEPh
 5845 0010 00000000 		.word	_ZN14rosserial_msgs9TopicInfo7getTypeEv
 5846 0014 00000000 		.word	_ZN14rosserial_msgs9TopicInfo6getMD5Ev
 5847              		.weak	_ZTVN14rosserial_msgs3LogE
 5848              		.section	.rodata._ZTVN14rosserial_msgs3LogE,"aG",%progbits,_ZTVN14rosserial_msgs3LogE,comdat
 5849              		.align	2
 5852              	_ZTVN14rosserial_msgs3LogE:
 5853 0000 00000000 		.word	0
 5854 0004 00000000 		.word	_ZTIN14rosserial_msgs3LogE
 5855 0008 00000000 		.word	_ZNK14rosserial_msgs3Log9serializeEPh
 5856 000c 00000000 		.word	_ZN14rosserial_msgs3Log11deserializeEPh
 5857 0010 00000000 		.word	_ZN14rosserial_msgs3Log7getTypeEv
 5858 0014 00000000 		.word	_ZN14rosserial_msgs3Log6getMD5Ev
 5859              		.weak	_ZTVN14rosserial_msgs20RequestParamResponseE
 5860              		.section	.rodata._ZTVN14rosserial_msgs20RequestParamResponseE,"aG",%progbits,_ZTVN14rosserial_msgs
 5861              		.align	2
 5864              	_ZTVN14rosserial_msgs20RequestParamResponseE:
 5865 0000 00000000 		.word	0
 5866 0004 00000000 		.word	_ZTIN14rosserial_msgs20RequestParamResponseE
 5867 0008 00000000 		.word	_ZNK14rosserial_msgs20RequestParamResponse9serializeEPh
 5868 000c 00000000 		.word	_ZN14rosserial_msgs20RequestParamResponse11deserializeEPh
 5869 0010 00000000 		.word	_ZN14rosserial_msgs20RequestParamResponse7getTypeEv
 5870 0014 00000000 		.word	_ZN14rosserial_msgs20RequestParamResponse6getMD5Ev
 5871              		.weak	_ZTVN3ros15NodeHandleBase_E
 5872              		.section	.rodata._ZTVN3ros15NodeHandleBase_E,"aG",%progbits,_ZTVN3ros15NodeHandleBase_E,comdat
 5873              		.align	2
 5876              	_ZTVN3ros15NodeHandleBase_E:
 5877 0000 00000000 		.word	0
 5878 0004 00000000 		.word	_ZTIN3ros15NodeHandleBase_E
 5879 0008 00000000 		.word	__cxa_pure_virtual
 5880 000c 00000000 		.word	__cxa_pure_virtual
 5881 0010 00000000 		.word	__cxa_pure_virtual
 5882              		.weak	_ZTVN3ros11Subscriber_E
 5883              		.section	.rodata._ZTVN3ros11Subscriber_E,"aG",%progbits,_ZTVN3ros11Subscriber_E,comdat
 5884              		.align	2
 5887              	_ZTVN3ros11Subscriber_E:
 5888 0000 00000000 		.word	0
 5889 0004 00000000 		.word	_ZTIN3ros11Subscriber_E
 5890 0008 00000000 		.word	__cxa_pure_virtual
 5891 000c 00000000 		.word	__cxa_pure_virtual
ARM GAS  /tmp/ccaSmKi1.s 			page 156


 5892 0010 00000000 		.word	__cxa_pure_virtual
 5893 0014 00000000 		.word	__cxa_pure_virtual
 5894              		.weak	_ZTVN9actuators7Vector4E
 5895              		.section	.rodata._ZTVN9actuators7Vector4E,"aG",%progbits,_ZTVN9actuators7Vector4E,comdat
 5896              		.align	2
 5899              	_ZTVN9actuators7Vector4E:
 5900 0000 00000000 		.word	0
 5901 0004 00000000 		.word	_ZTIN9actuators7Vector4E
 5902 0008 00000000 		.word	_ZNK9actuators7Vector49serializeEPh
 5903 000c 00000000 		.word	_ZN9actuators7Vector411deserializeEPh
 5904 0010 00000000 		.word	_ZN9actuators7Vector47getTypeEv
 5905 0014 00000000 		.word	_ZN9actuators7Vector46getMD5Ev
 5906              		.weak	_ZTVN9actuators7Vector2E
 5907              		.section	.rodata._ZTVN9actuators7Vector2E,"aG",%progbits,_ZTVN9actuators7Vector2E,comdat
 5908              		.align	2
 5911              	_ZTVN9actuators7Vector2E:
 5912 0000 00000000 		.word	0
 5913 0004 00000000 		.word	_ZTIN9actuators7Vector2E
 5914 0008 00000000 		.word	_ZNK9actuators7Vector29serializeEPh
 5915 000c 00000000 		.word	_ZN9actuators7Vector211deserializeEPh
 5916 0010 00000000 		.word	_ZN9actuators7Vector27getTypeEv
 5917 0014 00000000 		.word	_ZN9actuators7Vector26getMD5Ev
 5918              		.weak	_ZTVN3ros11NodeHandle_I13STM32HardwareLi25ELi25ELi512ELi512EEE
 5919              		.section	.rodata._ZTVN3ros11NodeHandle_I13STM32HardwareLi25ELi25ELi512ELi512EEE,"aG",%progbits,_ZT
 5920              		.align	2
 5923              	_ZTVN3ros11NodeHandle_I13STM32HardwareLi25ELi25ELi512ELi512EEE:
 5924 0000 00000000 		.word	0
 5925 0004 00000000 		.word	_ZTIN3ros11NodeHandle_I13STM32HardwareLi25ELi25ELi512ELi512EEE
 5926 0008 00000000 		.word	_ZN3ros11NodeHandle_I13STM32HardwareLi25ELi25ELi512ELi512EE7publishEiPKNS_3MsgE
 5927 000c 00000000 		.word	_ZN3ros11NodeHandle_I13STM32HardwareLi25ELi25ELi512ELi512EE8spinOnceEv
 5928 0010 00000000 		.word	_ZN3ros11NodeHandle_I13STM32HardwareLi25ELi25ELi512ELi512EE9connectedEv
 5929              		.weak	_ZTVN3ros10SubscriberIN9actuators18motor_driver_paramEvEE
 5930              		.section	.rodata._ZTVN3ros10SubscriberIN9actuators18motor_driver_paramEvEE,"aG",%progbits,_ZTVN3ro
 5931              		.align	2
 5934              	_ZTVN3ros10SubscriberIN9actuators18motor_driver_paramEvEE:
 5935 0000 00000000 		.word	0
 5936 0004 00000000 		.word	_ZTIN3ros10SubscriberIN9actuators18motor_driver_paramEvEE
 5937 0008 00000000 		.word	_ZN3ros10SubscriberIN9actuators18motor_driver_paramEvE8callbackEPh
 5938 000c 00000000 		.word	_ZN3ros10SubscriberIN9actuators18motor_driver_paramEvE15getEndpointTypeEv
 5939 0010 00000000 		.word	_ZN3ros10SubscriberIN9actuators18motor_driver_paramEvE10getMsgTypeEv
 5940 0014 00000000 		.word	_ZN3ros10SubscriberIN9actuators18motor_driver_paramEvE9getMsgMD5Ev
 5941              		.global	sub
 5942              		.global	pub2
 5943              		.global	pub1
 5944              		.global	free_wheel_e
 5945              		.global	encoder_count
 5946              		.global	nh
 5947              		.weak	_ZZN13STM32Hardware5flushEvE5mutex
 5948              		.section	.bss._ZZN13STM32Hardware5flushEvE5mutex,"awG",%nobits,_ZZN13STM32Hardware5flushEvE5mutex,
 5951              	_ZZN13STM32Hardware5flushEvE5mutex:
 5952 0000 00       		.space	1
 5953              		.section	.bss.encoder_count,"aw",%nobits
 5954              		.align	2
 5955              		.set	.LANCHOR1,. + 0
 5958              	encoder_count:
 5959 0000 00000000 		.space	20
 5959      00000000 
ARM GAS  /tmp/ccaSmKi1.s 			page 157


 5959      00000000 
 5959      00000000 
 5959      00000000 
 5960              		.section	.bss.free_wheel_e,"aw",%nobits
 5961              		.align	2
 5962              		.set	.LANCHOR2,. + 0
 5965              	free_wheel_e:
 5966 0000 00000000 		.space	12
 5966      00000000 
 5966      00000000 
 5967              		.section	.bss.nh,"aw",%nobits
 5968              		.align	2
 5969              		.set	.LANCHOR3,. + 0
 5972              	nh:
 5973 0000 00000000 		.space	2364
 5973      00000000 
 5973      00000000 
 5973      00000000 
 5973      00000000 
 5974              		.section	.bss.pub1,"aw",%nobits
 5975              		.align	2
 5976              		.set	.LANCHOR4,. + 0
 5979              	pub1:
 5980 0000 00000000 		.space	20
 5980      00000000 
 5980      00000000 
 5980      00000000 
 5980      00000000 
 5981              		.section	.bss.pub2,"aw",%nobits
 5982              		.align	2
 5983              		.set	.LANCHOR5,. + 0
 5986              	pub2:
 5987 0000 00000000 		.space	20
 5987      00000000 
 5987      00000000 
 5987      00000000 
 5987      00000000 
 5988              		.section	.bss.sub,"aw",%nobits
 5989              		.align	2
 5990              		.set	.LANCHOR6,. + 0
 5993              	sub:
 5994 0000 00000000 		.space	32
 5994      00000000 
 5994      00000000 
 5994      00000000 
 5994      00000000 
 5995              		.section	.rodata._ZN14rosserial_msgsL12REQUESTPARAME,"a"
 5996              		.align	2
 5997              		.set	.LANCHOR0,. + 0
 6000              	_ZN14rosserial_msgsL12REQUESTPARAME:
 6001 0000 726F7373 		.ascii	"rosserial_msgs/RequestParam\000"
 6001      65726961 
 6001      6C5F6D73 
 6001      67732F52 
 6001      65717565 
 6002              		.text
 6003              	.Letext0:
ARM GAS  /tmp/ccaSmKi1.s 			page 158


 6004              		.file 17 "/home/love/Documents/gcc-arm-none-eabi-10-2020-q4-major/arm-none-eabi/include/machine/_d
 6005              		.file 18 "/home/love/Documents/gcc-arm-none-eabi-10-2020-q4-major/arm-none-eabi/include/sys/_stdin
 6006              		.file 19 "Drivers/CMSIS/Device/ST/STM32F4xx/Include/stm32f407xx.h"
 6007              		.file 20 "Drivers/CMSIS/Device/ST/STM32F4xx/Include/stm32f4xx.h"
 6008              		.file 21 "/home/love/Documents/gcc-arm-none-eabi-10-2020-q4-major/lib/gcc/arm-none-eabi/10.2.1/inc
 6009              		.file 22 "Drivers/STM32F4xx_HAL_Driver/Inc/stm32f4xx_hal_def.h"
 6010              		.file 23 "Drivers/STM32F4xx_HAL_Driver/Inc/stm32f4xx_hal_gpio.h"
 6011              		.file 24 "Drivers/STM32F4xx_HAL_Driver/Inc/stm32f4xx_hal_dma.h"
 6012              		.file 25 "Drivers/STM32F4xx_HAL_Driver/Inc/stm32f4xx_hal_tim.h"
 6013              		.file 26 "Drivers/STM32F4xx_HAL_Driver/Inc/stm32f4xx_hal_uart.h"
 6014              		.file 27 "Drivers/STM32F4xx_HAL_Driver/Inc/stm32f4xx_hal.h"
 6015              		.file 28 "/home/love/Documents/gcc-arm-none-eabi-10-2020-q4-major/arm-none-eabi/include/c++/10.2.1
 6016              		.file 29 "/home/love/Documents/gcc-arm-none-eabi-10-2020-q4-major/arm-none-eabi/include/c++/10.2.1
 6017              		.file 30 "/home/love/Documents/gcc-arm-none-eabi-10-2020-q4-major/arm-none-eabi/include/c++/10.2.1
 6018              		.file 31 "/home/love/Documents/gcc-arm-none-eabi-10-2020-q4-major/arm-none-eabi/include/c++/10.2.1
 6019              		.file 32 "/home/love/Documents/gcc-arm-none-eabi-10-2020-q4-major/arm-none-eabi/include/c++/10.2.1
 6020              		.file 33 "/home/love/Documents/gcc-arm-none-eabi-10-2020-q4-major/arm-none-eabi/include/c++/10.2.1
 6021              		.file 34 "/home/love/Documents/gcc-arm-none-eabi-10-2020-q4-major/arm-none-eabi/include/stdlib.h"
 6022              		.file 35 "/home/love/Documents/gcc-arm-none-eabi-10-2020-q4-major/arm-none-eabi/include/c++/10.2.1
 6023              		.file 36 "/home/love/Documents/gcc-arm-none-eabi-10-2020-q4-major/arm-none-eabi/include/string.h"
 6024              		.file 37 "Core/Inc/actuator/motor.h"
 6025              		.file 38 "/home/love/Documents/gcc-arm-none-eabi-10-2020-q4-major/arm-none-eabi/include/math.h"
 6026              		.file 39 "/home/love/Documents/gcc-arm-none-eabi-10-2020-q4-major/arm-none-eabi/include/c++/10.2.1
 6027              		.file 40 "Core/Inc/ros/ros/duration.h"
 6028              		.file 41 "Core/Inc/ros/ros.h"
 6029              		.file 42 "Core/Inc/robot/robo_init.h"
 6030              		.file 43 "<built-in>"
ARM GAS  /tmp/ccaSmKi1.s 			page 159


DEFINED SYMBOLS
                            *ABS*:0000000000000000 operation.cpp
     /tmp/ccaSmKi1.s:18     .text._ZNK9actuators18motor_driver_param9serializeEPh:0000000000000000 $t
     /tmp/ccaSmKi1.s:26     .text._ZNK9actuators18motor_driver_param9serializeEPh:0000000000000000 _ZNK9actuators18motor_driver_param9serializeEPh
     /tmp/ccaSmKi1.s:81     .text._ZN9actuators18motor_driver_param11deserializeEPh:0000000000000000 $t
     /tmp/ccaSmKi1.s:88     .text._ZN9actuators18motor_driver_param11deserializeEPh:0000000000000000 _ZN9actuators18motor_driver_param11deserializeEPh
     /tmp/ccaSmKi1.s:141    .rodata._ZN9actuators18motor_driver_param7getTypeEv.str1.4:0000000000000000 $d
     /tmp/ccaSmKi1.s:145    .text._ZN9actuators18motor_driver_param7getTypeEv:0000000000000000 $t
     /tmp/ccaSmKi1.s:152    .text._ZN9actuators18motor_driver_param7getTypeEv:0000000000000000 _ZN9actuators18motor_driver_param7getTypeEv
     /tmp/ccaSmKi1.s:169    .text._ZN9actuators18motor_driver_param7getTypeEv:0000000000000004 $d
     /tmp/ccaSmKi1.s:174    .rodata._ZN9actuators18motor_driver_param6getMD5Ev.str1.4:0000000000000000 $d
     /tmp/ccaSmKi1.s:178    .text._ZN9actuators18motor_driver_param6getMD5Ev:0000000000000000 $t
     /tmp/ccaSmKi1.s:185    .text._ZN9actuators18motor_driver_param6getMD5Ev:0000000000000000 _ZN9actuators18motor_driver_param6getMD5Ev
     /tmp/ccaSmKi1.s:202    .text._ZN9actuators18motor_driver_param6getMD5Ev:0000000000000004 $d
     /tmp/ccaSmKi1.s:207    .text._ZNK8std_msgs4Time9serializeEPh:0000000000000000 $t
     /tmp/ccaSmKi1.s:214    .text._ZNK8std_msgs4Time9serializeEPh:0000000000000000 _ZNK8std_msgs4Time9serializeEPh
     /tmp/ccaSmKi1.s:282    .text._ZN8std_msgs4Time11deserializeEPh:0000000000000000 $t
     /tmp/ccaSmKi1.s:289    .text._ZN8std_msgs4Time11deserializeEPh:0000000000000000 _ZN8std_msgs4Time11deserializeEPh
     /tmp/ccaSmKi1.s:358    .rodata._ZN8std_msgs4Time7getTypeEv.str1.4:0000000000000000 $d
     /tmp/ccaSmKi1.s:362    .text._ZN8std_msgs4Time7getTypeEv:0000000000000000 $t
     /tmp/ccaSmKi1.s:369    .text._ZN8std_msgs4Time7getTypeEv:0000000000000000 _ZN8std_msgs4Time7getTypeEv
     /tmp/ccaSmKi1.s:386    .text._ZN8std_msgs4Time7getTypeEv:0000000000000004 $d
     /tmp/ccaSmKi1.s:391    .rodata._ZN8std_msgs4Time6getMD5Ev.str1.4:0000000000000000 $d
     /tmp/ccaSmKi1.s:395    .text._ZN8std_msgs4Time6getMD5Ev:0000000000000000 $t
     /tmp/ccaSmKi1.s:402    .text._ZN8std_msgs4Time6getMD5Ev:0000000000000000 _ZN8std_msgs4Time6getMD5Ev
     /tmp/ccaSmKi1.s:419    .text._ZN8std_msgs4Time6getMD5Ev:0000000000000004 $d
     /tmp/ccaSmKi1.s:424    .rodata._ZN14rosserial_msgs9TopicInfo7getTypeEv.str1.4:0000000000000000 $d
     /tmp/ccaSmKi1.s:428    .text._ZN14rosserial_msgs9TopicInfo7getTypeEv:0000000000000000 $t
     /tmp/ccaSmKi1.s:435    .text._ZN14rosserial_msgs9TopicInfo7getTypeEv:0000000000000000 _ZN14rosserial_msgs9TopicInfo7getTypeEv
     /tmp/ccaSmKi1.s:453    .text._ZN14rosserial_msgs9TopicInfo7getTypeEv:0000000000000004 $d
     /tmp/ccaSmKi1.s:458    .rodata._ZN14rosserial_msgs9TopicInfo6getMD5Ev.str1.4:0000000000000000 $d
     /tmp/ccaSmKi1.s:462    .text._ZN14rosserial_msgs9TopicInfo6getMD5Ev:0000000000000000 $t
     /tmp/ccaSmKi1.s:469    .text._ZN14rosserial_msgs9TopicInfo6getMD5Ev:0000000000000000 _ZN14rosserial_msgs9TopicInfo6getMD5Ev
     /tmp/ccaSmKi1.s:486    .text._ZN14rosserial_msgs9TopicInfo6getMD5Ev:0000000000000004 $d
     /tmp/ccaSmKi1.s:491    .rodata._ZN14rosserial_msgs3Log7getTypeEv.str1.4:0000000000000000 $d
     /tmp/ccaSmKi1.s:495    .text._ZN14rosserial_msgs3Log7getTypeEv:0000000000000000 $t
     /tmp/ccaSmKi1.s:502    .text._ZN14rosserial_msgs3Log7getTypeEv:0000000000000000 _ZN14rosserial_msgs3Log7getTypeEv
     /tmp/ccaSmKi1.s:520    .text._ZN14rosserial_msgs3Log7getTypeEv:0000000000000004 $d
     /tmp/ccaSmKi1.s:525    .rodata._ZN14rosserial_msgs3Log6getMD5Ev.str1.4:0000000000000000 $d
     /tmp/ccaSmKi1.s:529    .text._ZN14rosserial_msgs3Log6getMD5Ev:0000000000000000 $t
     /tmp/ccaSmKi1.s:536    .text._ZN14rosserial_msgs3Log6getMD5Ev:0000000000000000 _ZN14rosserial_msgs3Log6getMD5Ev
     /tmp/ccaSmKi1.s:553    .text._ZN14rosserial_msgs3Log6getMD5Ev:0000000000000004 $d
     /tmp/ccaSmKi1.s:558    .text._ZN14rosserial_msgs20RequestParamResponse7getTypeEv:0000000000000000 $t
     /tmp/ccaSmKi1.s:565    .text._ZN14rosserial_msgs20RequestParamResponse7getTypeEv:0000000000000000 _ZN14rosserial_msgs20RequestParamResponse7getTypeEv
     /tmp/ccaSmKi1.s:583    .text._ZN14rosserial_msgs20RequestParamResponse7getTypeEv:0000000000000004 $d
     /tmp/ccaSmKi1.s:588    .rodata._ZN14rosserial_msgs20RequestParamResponse6getMD5Ev.str1.4:0000000000000000 $d
     /tmp/ccaSmKi1.s:592    .text._ZN14rosserial_msgs20RequestParamResponse6getMD5Ev:0000000000000000 $t
     /tmp/ccaSmKi1.s:599    .text._ZN14rosserial_msgs20RequestParamResponse6getMD5Ev:0000000000000000 _ZN14rosserial_msgs20RequestParamResponse6getMD5Ev
     /tmp/ccaSmKi1.s:616    .text._ZN14rosserial_msgs20RequestParamResponse6getMD5Ev:0000000000000004 $d
     /tmp/ccaSmKi1.s:621    .text._ZNK9actuators7Vector49serializeEPh:0000000000000000 $t
     /tmp/ccaSmKi1.s:628    .text._ZNK9actuators7Vector49serializeEPh:0000000000000000 _ZNK9actuators7Vector49serializeEPh
     /tmp/ccaSmKi1.s:709    .text._ZN9actuators7Vector411deserializeEPh:0000000000000000 $t
     /tmp/ccaSmKi1.s:716    .text._ZN9actuators7Vector411deserializeEPh:0000000000000000 _ZN9actuators7Vector411deserializeEPh
     /tmp/ccaSmKi1.s:796    .rodata._ZN9actuators7Vector47getTypeEv.str1.4:0000000000000000 $d
     /tmp/ccaSmKi1.s:800    .text._ZN9actuators7Vector47getTypeEv:0000000000000000 $t
     /tmp/ccaSmKi1.s:807    .text._ZN9actuators7Vector47getTypeEv:0000000000000000 _ZN9actuators7Vector47getTypeEv
     /tmp/ccaSmKi1.s:824    .text._ZN9actuators7Vector47getTypeEv:0000000000000004 $d
ARM GAS  /tmp/ccaSmKi1.s 			page 160


     /tmp/ccaSmKi1.s:829    .rodata._ZN9actuators7Vector46getMD5Ev.str1.4:0000000000000000 $d
     /tmp/ccaSmKi1.s:833    .text._ZN9actuators7Vector46getMD5Ev:0000000000000000 $t
     /tmp/ccaSmKi1.s:840    .text._ZN9actuators7Vector46getMD5Ev:0000000000000000 _ZN9actuators7Vector46getMD5Ev
     /tmp/ccaSmKi1.s:857    .text._ZN9actuators7Vector46getMD5Ev:0000000000000004 $d
     /tmp/ccaSmKi1.s:862    .text._ZNK9actuators7Vector29serializeEPh:0000000000000000 $t
     /tmp/ccaSmKi1.s:869    .text._ZNK9actuators7Vector29serializeEPh:0000000000000000 _ZNK9actuators7Vector29serializeEPh
     /tmp/ccaSmKi1.s:960    .text._ZN9actuators7Vector211deserializeEPh:0000000000000000 $t
     /tmp/ccaSmKi1.s:967    .text._ZN9actuators7Vector211deserializeEPh:0000000000000000 _ZN9actuators7Vector211deserializeEPh
     /tmp/ccaSmKi1.s:1057   .rodata._ZN9actuators7Vector27getTypeEv.str1.4:0000000000000000 $d
     /tmp/ccaSmKi1.s:1061   .text._ZN9actuators7Vector27getTypeEv:0000000000000000 $t
     /tmp/ccaSmKi1.s:1068   .text._ZN9actuators7Vector27getTypeEv:0000000000000000 _ZN9actuators7Vector27getTypeEv
     /tmp/ccaSmKi1.s:1085   .text._ZN9actuators7Vector27getTypeEv:0000000000000004 $d
     /tmp/ccaSmKi1.s:1090   .rodata._ZN9actuators7Vector26getMD5Ev.str1.4:0000000000000000 $d
     /tmp/ccaSmKi1.s:1094   .text._ZN9actuators7Vector26getMD5Ev:0000000000000000 $t
     /tmp/ccaSmKi1.s:1101   .text._ZN9actuators7Vector26getMD5Ev:0000000000000000 _ZN9actuators7Vector26getMD5Ev
     /tmp/ccaSmKi1.s:1118   .text._ZN9actuators7Vector26getMD5Ev:0000000000000004 $d
     /tmp/ccaSmKi1.s:1123   .rodata._Z41__static_initialization_and_destruction_0ii.str1.4:0000000000000000 $d
     /tmp/ccaSmKi1.s:1133   .text._Z41__static_initialization_and_destruction_0ii:0000000000000000 $t
     /tmp/ccaSmKi1.s:1139   .text._Z41__static_initialization_and_destruction_0ii:0000000000000000 _Z41__static_initialization_and_destruction_0ii
     /tmp/ccaSmKi1.s:1462   .text._Z41__static_initialization_and_destruction_0ii:0000000000000148 $d
     /tmp/ccaSmKi1.s:5876   .rodata._ZTVN3ros15NodeHandleBase_E:0000000000000000 _ZTVN3ros15NodeHandleBase_E
     /tmp/ccaSmKi1.s:5923   .rodata._ZTVN3ros11NodeHandle_I13STM32HardwareLi25ELi25ELi512ELi512EEE:0000000000000000 _ZTVN3ros11NodeHandle_I13STM32HardwareLi25ELi25ELi512ELi512EEE
     /tmp/ccaSmKi1.s:5804   .rodata._ZTVN3ros3MsgE:0000000000000000 _ZTVN3ros3MsgE
     /tmp/ccaSmKi1.s:5864   .rodata._ZTVN14rosserial_msgs20RequestParamResponseE:0000000000000000 _ZTVN14rosserial_msgs20RequestParamResponseE
     /tmp/ccaSmKi1.s:5899   .rodata._ZTVN9actuators7Vector4E:0000000000000000 _ZTVN9actuators7Vector4E
     /tmp/ccaSmKi1.s:5911   .rodata._ZTVN9actuators7Vector2E:0000000000000000 _ZTVN9actuators7Vector2E
     /tmp/ccaSmKi1.s:5887   .rodata._ZTVN3ros11Subscriber_E:0000000000000000 _ZTVN3ros11Subscriber_E
     /tmp/ccaSmKi1.s:5934   .rodata._ZTVN3ros10SubscriberIN9actuators18motor_driver_paramEvEE:0000000000000000 _ZTVN3ros10SubscriberIN9actuators18motor_driver_paramEvEE
     /tmp/ccaSmKi1.s:5816   .rodata._ZTVN9actuators18motor_driver_paramE:0000000000000000 _ZTVN9actuators18motor_driver_paramE
     /tmp/ccaSmKi1.s:1684   .text._Z19motor_base_callbackRKN9actuators18motor_driver_paramE:0000000000000000 _Z19motor_base_callbackRKN9actuators18motor_driver_paramE
     /tmp/ccaSmKi1.s:1486   .text._ZN3ros10SubscriberIN9actuators18motor_driver_paramEvE8callbackEPh:0000000000000000 $t
     /tmp/ccaSmKi1.s:1493   .text._ZN3ros10SubscriberIN9actuators18motor_driver_paramEvE8callbackEPh:0000000000000000 _ZN3ros10SubscriberIN9actuators18motor_driver_paramEvE8callbackEPh
     /tmp/ccaSmKi1.s:1563   .text._ZN3ros10SubscriberIN9actuators18motor_driver_paramEvE15getEndpointTypeEv:0000000000000000 $t
     /tmp/ccaSmKi1.s:1570   .text._ZN3ros10SubscriberIN9actuators18motor_driver_paramEvE15getEndpointTypeEv:0000000000000000 _ZN3ros10SubscriberIN9actuators18motor_driver_paramEvE15getEndpointTypeEv
     /tmp/ccaSmKi1.s:1587   .text._ZN3ros10SubscriberIN9actuators18motor_driver_paramEvE10getMsgTypeEv:0000000000000000 $t
     /tmp/ccaSmKi1.s:1594   .text._ZN3ros10SubscriberIN9actuators18motor_driver_paramEvE10getMsgTypeEv:0000000000000000 _ZN3ros10SubscriberIN9actuators18motor_driver_paramEvE10getMsgTypeEv
     /tmp/ccaSmKi1.s:1615   .text._ZN3ros10SubscriberIN9actuators18motor_driver_paramEvE10getMsgTypeEv:0000000000000004 $d
     /tmp/ccaSmKi1.s:1620   .text._ZN3ros10SubscriberIN9actuators18motor_driver_paramEvE9getMsgMD5Ev:0000000000000000 $t
     /tmp/ccaSmKi1.s:1627   .text._ZN3ros10SubscriberIN9actuators18motor_driver_paramEvE9getMsgMD5Ev:0000000000000000 _ZN3ros10SubscriberIN9actuators18motor_driver_paramEvE9getMsgMD5Ev
     /tmp/ccaSmKi1.s:1648   .text._ZN3ros10SubscriberIN9actuators18motor_driver_paramEvE9getMsgMD5Ev:0000000000000004 $d
     /tmp/ccaSmKi1.s:1653   .text._ZN3ros11NodeHandle_I13STM32HardwareLi25ELi25ELi512ELi512EE9connectedEv:0000000000000000 $t
     /tmp/ccaSmKi1.s:1660   .text._ZN3ros11NodeHandle_I13STM32HardwareLi25ELi25ELi512ELi512EE9connectedEv:0000000000000000 _ZN3ros11NodeHandle_I13STM32HardwareLi25ELi25ELi512ELi512EE9connectedEv
     /tmp/ccaSmKi1.s:1677   .text._Z19motor_base_callbackRKN9actuators18motor_driver_paramE:0000000000000000 $t
     /tmp/ccaSmKi1.s:1752   .text._Z19motor_base_callbackRKN9actuators18motor_driver_paramE:0000000000000038 $d
     /tmp/ccaSmKi1.s:1759   .rodata._ZN3ros11NodeHandle_I13STM32HardwareLi25ELi25ELi512ELi512EE7publishEiPKNS_3MsgE.str1.4:0000000000000000 $d
     /tmp/ccaSmKi1.s:1767   .text._ZN3ros11NodeHandle_I13STM32HardwareLi25ELi25ELi512ELi512EE7publishEiPKNS_3MsgE:0000000000000000 $t
     /tmp/ccaSmKi1.s:1774   .text._ZN3ros11NodeHandle_I13STM32HardwareLi25ELi25ELi512ELi512EE7publishEiPKNS_3MsgE:0000000000000000 _ZN3ros11NodeHandle_I13STM32HardwareLi25ELi25ELi512ELi512EE7publishEiPKNS_3MsgE
     /tmp/ccaSmKi1.s:2151   .text._ZN3ros11NodeHandle_I13STM32HardwareLi25ELi25ELi512ELi512EE7publishEiPKNS_3MsgE:0000000000000174 $d
     /tmp/ccaSmKi1.s:5951   .bss._ZZN13STM32Hardware5flushEvE5mutex:0000000000000000 _ZZN13STM32Hardware5flushEvE5mutex
     /tmp/ccaSmKi1.s:5852   .rodata._ZTVN14rosserial_msgs3LogE:0000000000000000 _ZTVN14rosserial_msgs3LogE
     /tmp/ccaSmKi1.s:2160   .text._ZNK14rosserial_msgs9TopicInfo9serializeEPh:0000000000000000 $t
     /tmp/ccaSmKi1.s:2167   .text._ZNK14rosserial_msgs9TopicInfo9serializeEPh:0000000000000000 _ZNK14rosserial_msgs9TopicInfo9serializeEPh
     /tmp/ccaSmKi1.s:2401   .text._ZNK14rosserial_msgs3Log9serializeEPh:0000000000000000 $t
     /tmp/ccaSmKi1.s:2408   .text._ZNK14rosserial_msgs3Log9serializeEPh:0000000000000000 _ZNK14rosserial_msgs3Log9serializeEPh
     /tmp/ccaSmKi1.s:2494   .text._ZNK14rosserial_msgs20RequestParamResponse9serializeEPh:0000000000000000 $t
     /tmp/ccaSmKi1.s:2501   .text._ZNK14rosserial_msgs20RequestParamResponse9serializeEPh:0000000000000000 _ZNK14rosserial_msgs20RequestParamResponse9serializeEPh
     /tmp/ccaSmKi1.s:2829   .text._ZN14rosserial_msgs20RequestParamResponse11deserializeEPh:0000000000000000 $t
ARM GAS  /tmp/ccaSmKi1.s 			page 161


     /tmp/ccaSmKi1.s:2836   .text._ZN14rosserial_msgs20RequestParamResponse11deserializeEPh:0000000000000000 _ZN14rosserial_msgs20RequestParamResponse11deserializeEPh
     /tmp/ccaSmKi1.s:3272   .text._ZN14rosserial_msgs3Log11deserializeEPh:0000000000000000 $t
     /tmp/ccaSmKi1.s:3279   .text._ZN14rosserial_msgs3Log11deserializeEPh:0000000000000000 _ZN14rosserial_msgs3Log11deserializeEPh
     /tmp/ccaSmKi1.s:3388   .text._ZN14rosserial_msgs9TopicInfo11deserializeEPh:0000000000000000 $t
     /tmp/ccaSmKi1.s:3395   .text._ZN14rosserial_msgs9TopicInfo11deserializeEPh:0000000000000000 _ZN14rosserial_msgs9TopicInfo11deserializeEPh
     /tmp/ccaSmKi1.s:3717   .text.HAL_UART_TxCpltCallback:0000000000000000 $t
     /tmp/ccaSmKi1.s:3724   .text.HAL_UART_TxCpltCallback:0000000000000000 HAL_UART_TxCpltCallback
     /tmp/ccaSmKi1.s:3860   .text.HAL_UART_TxCpltCallback:000000000000006c $d
     /tmp/ccaSmKi1.s:3872   .text.HAL_UART_RxCpltCallback:0000000000000000 $t
     /tmp/ccaSmKi1.s:3879   .text.HAL_UART_RxCpltCallback:0000000000000000 HAL_UART_RxCpltCallback
     /tmp/ccaSmKi1.s:3916   .text.HAL_UART_RxCpltCallback:0000000000000014 $d
     /tmp/ccaSmKi1.s:3921   .text.init:0000000000000000 $t
     /tmp/ccaSmKi1.s:3928   .text.init:0000000000000000 init
     /tmp/ccaSmKi1.s:4104   .text.init:00000000000000a4 $d
     /tmp/ccaSmKi1.s:4112   .text._ZN3ros11NodeHandle_I13STM32HardwareLi25ELi25ELi512ELi512EE15negotiateTopicsEv:0000000000000000 $t
     /tmp/ccaSmKi1.s:4119   .text._ZN3ros11NodeHandle_I13STM32HardwareLi25ELi25ELi512ELi512EE15negotiateTopicsEv:0000000000000000 _ZN3ros11NodeHandle_I13STM32HardwareLi25ELi25ELi512ELi512EE15negotiateTopicsEv
     /tmp/ccaSmKi1.s:4322   .text._ZN3ros11NodeHandle_I13STM32HardwareLi25ELi25ELi512ELi512EE15negotiateTopicsEv:00000000000000d4 $d
     /tmp/ccaSmKi1.s:5840   .rodata._ZTVN14rosserial_msgs9TopicInfoE:0000000000000000 _ZTVN14rosserial_msgs9TopicInfoE
     /tmp/ccaSmKi1.s:4329   .text._ZN3ros11NodeHandle_I13STM32HardwareLi25ELi25ELi512ELi512EE8spinOnceEv:0000000000000000 $t
     /tmp/ccaSmKi1.s:4336   .text._ZN3ros11NodeHandle_I13STM32HardwareLi25ELi25ELi512ELi512EE8spinOnceEv:0000000000000000 _ZN3ros11NodeHandle_I13STM32HardwareLi25ELi25ELi512ELi512EE8spinOnceEv
     /tmp/ccaSmKi1.s:5200   .text._ZN3ros11NodeHandle_I13STM32HardwareLi25ELi25ELi512ELi512EE8spinOnceEv:0000000000000360 $d
     /tmp/ccaSmKi1.s:5828   .rodata._ZTVN8std_msgs4TimeE:0000000000000000 _ZTVN8std_msgs4TimeE
     /tmp/ccaSmKi1.s:5213   .text.run:0000000000000000 $t
     /tmp/ccaSmKi1.s:5220   .text.run:0000000000000000 run
     /tmp/ccaSmKi1.s:5561   .text.run:0000000000000150 $d
     /tmp/ccaSmKi1.s:5579   .text._GLOBAL__sub_I_nh:0000000000000000 $t
     /tmp/ccaSmKi1.s:5585   .text._GLOBAL__sub_I_nh:0000000000000000 _GLOBAL__sub_I_nh
     /tmp/ccaSmKi1.s:5606   .init_array:0000000000000000 $d
     /tmp/ccaSmKi1.s:5613   .rodata._ZTSN3ros3MsgE:0000000000000000 _ZTSN3ros3MsgE
     /tmp/ccaSmKi1.s:5610   .rodata._ZTSN3ros3MsgE:0000000000000000 $d
     /tmp/ccaSmKi1.s:5620   .rodata._ZTIN3ros3MsgE:0000000000000000 _ZTIN3ros3MsgE
     /tmp/ccaSmKi1.s:5617   .rodata._ZTIN3ros3MsgE:0000000000000000 $d
     /tmp/ccaSmKi1.s:5628   .rodata._ZTSN9actuators18motor_driver_paramE:0000000000000000 _ZTSN9actuators18motor_driver_paramE
     /tmp/ccaSmKi1.s:5625   .rodata._ZTSN9actuators18motor_driver_paramE:0000000000000000 $d
     /tmp/ccaSmKi1.s:5635   .rodata._ZTIN9actuators18motor_driver_paramE:0000000000000000 _ZTIN9actuators18motor_driver_paramE
     /tmp/ccaSmKi1.s:5632   .rodata._ZTIN9actuators18motor_driver_paramE:0000000000000000 $d
     /tmp/ccaSmKi1.s:5644   .rodata._ZTSN8std_msgs4TimeE:0000000000000000 _ZTSN8std_msgs4TimeE
     /tmp/ccaSmKi1.s:5641   .rodata._ZTSN8std_msgs4TimeE:0000000000000000 $d
     /tmp/ccaSmKi1.s:5651   .rodata._ZTIN8std_msgs4TimeE:0000000000000000 _ZTIN8std_msgs4TimeE
     /tmp/ccaSmKi1.s:5648   .rodata._ZTIN8std_msgs4TimeE:0000000000000000 $d
     /tmp/ccaSmKi1.s:5660   .rodata._ZTSN14rosserial_msgs9TopicInfoE:0000000000000000 _ZTSN14rosserial_msgs9TopicInfoE
     /tmp/ccaSmKi1.s:5657   .rodata._ZTSN14rosserial_msgs9TopicInfoE:0000000000000000 $d
     /tmp/ccaSmKi1.s:5667   .rodata._ZTIN14rosserial_msgs9TopicInfoE:0000000000000000 _ZTIN14rosserial_msgs9TopicInfoE
     /tmp/ccaSmKi1.s:5664   .rodata._ZTIN14rosserial_msgs9TopicInfoE:0000000000000000 $d
     /tmp/ccaSmKi1.s:5676   .rodata._ZTSN14rosserial_msgs3LogE:0000000000000000 _ZTSN14rosserial_msgs3LogE
     /tmp/ccaSmKi1.s:5673   .rodata._ZTSN14rosserial_msgs3LogE:0000000000000000 $d
     /tmp/ccaSmKi1.s:5683   .rodata._ZTIN14rosserial_msgs3LogE:0000000000000000 _ZTIN14rosserial_msgs3LogE
     /tmp/ccaSmKi1.s:5680   .rodata._ZTIN14rosserial_msgs3LogE:0000000000000000 $d
     /tmp/ccaSmKi1.s:5692   .rodata._ZTSN14rosserial_msgs20RequestParamResponseE:0000000000000000 _ZTSN14rosserial_msgs20RequestParamResponseE
     /tmp/ccaSmKi1.s:5689   .rodata._ZTSN14rosserial_msgs20RequestParamResponseE:0000000000000000 $d
     /tmp/ccaSmKi1.s:5699   .rodata._ZTIN14rosserial_msgs20RequestParamResponseE:0000000000000000 _ZTIN14rosserial_msgs20RequestParamResponseE
     /tmp/ccaSmKi1.s:5696   .rodata._ZTIN14rosserial_msgs20RequestParamResponseE:0000000000000000 $d
     /tmp/ccaSmKi1.s:5708   .rodata._ZTSN3ros15NodeHandleBase_E:0000000000000000 _ZTSN3ros15NodeHandleBase_E
     /tmp/ccaSmKi1.s:5705   .rodata._ZTSN3ros15NodeHandleBase_E:0000000000000000 $d
     /tmp/ccaSmKi1.s:5715   .rodata._ZTIN3ros15NodeHandleBase_E:0000000000000000 _ZTIN3ros15NodeHandleBase_E
     /tmp/ccaSmKi1.s:5712   .rodata._ZTIN3ros15NodeHandleBase_E:0000000000000000 $d
     /tmp/ccaSmKi1.s:5723   .rodata._ZTSN3ros11Subscriber_E:0000000000000000 _ZTSN3ros11Subscriber_E
ARM GAS  /tmp/ccaSmKi1.s 			page 162


     /tmp/ccaSmKi1.s:5720   .rodata._ZTSN3ros11Subscriber_E:0000000000000000 $d
     /tmp/ccaSmKi1.s:5730   .rodata._ZTIN3ros11Subscriber_E:0000000000000000 _ZTIN3ros11Subscriber_E
     /tmp/ccaSmKi1.s:5727   .rodata._ZTIN3ros11Subscriber_E:0000000000000000 $d
     /tmp/ccaSmKi1.s:5738   .rodata._ZTSN9actuators7Vector4E:0000000000000000 _ZTSN9actuators7Vector4E
     /tmp/ccaSmKi1.s:5735   .rodata._ZTSN9actuators7Vector4E:0000000000000000 $d
     /tmp/ccaSmKi1.s:5745   .rodata._ZTIN9actuators7Vector4E:0000000000000000 _ZTIN9actuators7Vector4E
     /tmp/ccaSmKi1.s:5742   .rodata._ZTIN9actuators7Vector4E:0000000000000000 $d
     /tmp/ccaSmKi1.s:5754   .rodata._ZTSN9actuators7Vector2E:0000000000000000 _ZTSN9actuators7Vector2E
     /tmp/ccaSmKi1.s:5751   .rodata._ZTSN9actuators7Vector2E:0000000000000000 $d
     /tmp/ccaSmKi1.s:5761   .rodata._ZTIN9actuators7Vector2E:0000000000000000 _ZTIN9actuators7Vector2E
     /tmp/ccaSmKi1.s:5758   .rodata._ZTIN9actuators7Vector2E:0000000000000000 $d
     /tmp/ccaSmKi1.s:5770   .rodata._ZTSN3ros11NodeHandle_I13STM32HardwareLi25ELi25ELi512ELi512EEE:0000000000000000 _ZTSN3ros11NodeHandle_I13STM32HardwareLi25ELi25ELi512ELi512EEE
     /tmp/ccaSmKi1.s:5767   .rodata._ZTSN3ros11NodeHandle_I13STM32HardwareLi25ELi25ELi512ELi512EEE:0000000000000000 $d
     /tmp/ccaSmKi1.s:5778   .rodata._ZTIN3ros11NodeHandle_I13STM32HardwareLi25ELi25ELi512ELi512EEE:0000000000000000 _ZTIN3ros11NodeHandle_I13STM32HardwareLi25ELi25ELi512ELi512EEE
     /tmp/ccaSmKi1.s:5775   .rodata._ZTIN3ros11NodeHandle_I13STM32HardwareLi25ELi25ELi512ELi512EEE:0000000000000000 $d
     /tmp/ccaSmKi1.s:5787   .rodata._ZTSN3ros10SubscriberIN9actuators18motor_driver_paramEvEE:0000000000000000 _ZTSN3ros10SubscriberIN9actuators18motor_driver_paramEvEE
     /tmp/ccaSmKi1.s:5784   .rodata._ZTSN3ros10SubscriberIN9actuators18motor_driver_paramEvEE:0000000000000000 $d
     /tmp/ccaSmKi1.s:5795   .rodata._ZTIN3ros10SubscriberIN9actuators18motor_driver_paramEvEE:0000000000000000 _ZTIN3ros10SubscriberIN9actuators18motor_driver_paramEvEE
     /tmp/ccaSmKi1.s:5792   .rodata._ZTIN3ros10SubscriberIN9actuators18motor_driver_paramEvEE:0000000000000000 $d
     /tmp/ccaSmKi1.s:5801   .rodata._ZTVN3ros3MsgE:0000000000000000 $d
     /tmp/ccaSmKi1.s:5813   .rodata._ZTVN9actuators18motor_driver_paramE:0000000000000000 $d
     /tmp/ccaSmKi1.s:5825   .rodata._ZTVN8std_msgs4TimeE:0000000000000000 $d
     /tmp/ccaSmKi1.s:5837   .rodata._ZTVN14rosserial_msgs9TopicInfoE:0000000000000000 $d
     /tmp/ccaSmKi1.s:5849   .rodata._ZTVN14rosserial_msgs3LogE:0000000000000000 $d
     /tmp/ccaSmKi1.s:5861   .rodata._ZTVN14rosserial_msgs20RequestParamResponseE:0000000000000000 $d
     /tmp/ccaSmKi1.s:5873   .rodata._ZTVN3ros15NodeHandleBase_E:0000000000000000 $d
     /tmp/ccaSmKi1.s:5884   .rodata._ZTVN3ros11Subscriber_E:0000000000000000 $d
     /tmp/ccaSmKi1.s:5896   .rodata._ZTVN9actuators7Vector4E:0000000000000000 $d
     /tmp/ccaSmKi1.s:5908   .rodata._ZTVN9actuators7Vector2E:0000000000000000 $d
     /tmp/ccaSmKi1.s:5920   .rodata._ZTVN3ros11NodeHandle_I13STM32HardwareLi25ELi25ELi512ELi512EEE:0000000000000000 $d
     /tmp/ccaSmKi1.s:5931   .rodata._ZTVN3ros10SubscriberIN9actuators18motor_driver_paramEvEE:0000000000000000 $d
     /tmp/ccaSmKi1.s:5993   .bss.sub:0000000000000000 sub
     /tmp/ccaSmKi1.s:5986   .bss.pub2:0000000000000000 pub2
     /tmp/ccaSmKi1.s:5979   .bss.pub1:0000000000000000 pub1
     /tmp/ccaSmKi1.s:5965   .bss.free_wheel_e:0000000000000000 free_wheel_e
     /tmp/ccaSmKi1.s:5958   .bss.encoder_count:0000000000000000 encoder_count
     /tmp/ccaSmKi1.s:5972   .bss.nh:0000000000000000 nh
     /tmp/ccaSmKi1.s:5952   .bss._ZZN13STM32Hardware5flushEvE5mutex:0000000000000000 $d
     /tmp/ccaSmKi1.s:5954   .bss.encoder_count:0000000000000000 $d
     /tmp/ccaSmKi1.s:5961   .bss.free_wheel_e:0000000000000000 $d
     /tmp/ccaSmKi1.s:5968   .bss.nh:0000000000000000 $d
     /tmp/ccaSmKi1.s:5975   .bss.pub1:0000000000000000 $d
     /tmp/ccaSmKi1.s:5982   .bss.pub2:0000000000000000 $d
     /tmp/ccaSmKi1.s:5989   .bss.sub:0000000000000000 $d
     /tmp/ccaSmKi1.s:5996   .rodata._ZN14rosserial_msgsL12REQUESTPARAME:0000000000000000 $d
     /tmp/ccaSmKi1.s:6000   .rodata._ZN14rosserial_msgsL12REQUESTPARAME:0000000000000000 _ZN14rosserial_msgsL12REQUESTPARAME

UNDEFINED SYMBOLS
memset
huart2
_ZN5motor14set_motorParamEN9actuators18motor_driver_paramE
motor_
memcpy
HAL_UART_Transmit_DMA
strlen
realloc
HAL_UART_Receive_DMA
ARM GAS  /tmp/ccaSmKi1.s 			page 163


_Z9robo_initv
HAL_GetTick
_ZN3ros16normalizeSecNSecERmS0_
__aeabi_f2d
__aeabi_dmul
__aeabi_ddiv
__aeabi_d2f
HAL_GPIO_ReadPin
HAL_Delay
encoder_
ex
ey
_ZTVN10__cxxabiv117__class_type_infoE
_ZTVN10__cxxabiv120__si_class_type_infoE
__cxa_pure_virtual
